BL51 BANKED LINKER/LOCATER V6.22                                                        06/21/2023  15:37:55  PAGE 1


BL51 BANKED LINKER/LOCATER V6.22, INVOKED BY:
C:\KEIL_V5\C51\C51\BIN\BL51.EXE .\STARTUP.obj, .\main.obj, .\LT6711GXE.obj, .\LT6911GXE.obj, .\LT7911GXE.obj, .\LT8711GX
>> E.obj, .\LT86121GXE.obj, .\Interrupt.obj, .\ModAuxMsg.obj, .\ModCC1BasicTypec.obj, .\ModCC1MsgTypec.obj, .\ModCC1Type
>> c.obj, .\ModCC2BasicTypec.obj, .\ModCC2MsgTypec.obj, .\ModCC2Typec.obj, .\ModCCSharedTypec.obj, .\ModDpEdid.obj, .\Mo
>> dDpLinkCts.obj, .\ModDpLinkTrain.obj, .\ModDpRx.obj, .\ModDpRxEq.obj, .\ModDpRxMst.obj, .\ModDpTx.obj, .\ModDscDec.ob
>> j, .\ModDscEnc.obj, .\ModFrlRx.obj, .\ModFrlTrain.obj, .\ModHdmiEdid.obj, .\ModHdmiRx.obj, .\ModHdmiRxEq.obj, .\ModHd
>> miTx.obj, .\ModLvdsTx.obj, .\ModMipiTx.obj, .\ModRxBasicTypec.obj, .\ModRxMsgTypec.obj, .\ModRxTypec.obj, .\ModSystem
>> .obj, .\ModTmdsRx.obj, .\ModTxBasicTypec.obj, .\ModTxMsgTypec.obj, .\ModTxTypec.obj, .\DrvAudio.obj, .\DrvBillBoard.o
>> bj, .\DrvCec.obj, .\DrvCsc.obj, .\DrvDdcMast.obj, .\DrvDpRx.obj, .\DrvDpRxDscByPass.obj, .\DrvDpRxDscDec.obj, .\DrvDp
>> Tx.obj, .\DrvDpTxDscByPass.obj, .\DrvDpTxDscEnc.obj, .\DrvGpio.obj, .\DrvHdcpRx.obj, .\DrvHdcpTx.obj, .\DrvHdmiRx.obj
>> , .\DrvHdmiRXDscByPass.obj, .\DrvHdmiRXDscDec.obj, .\DrvHdmiTx.obj, .\DrvHdmiTxDscByPass.obj, .\DrvHdmiTxDscEnc.obj, 
>> .\DrvI2CMast.obj, .\DrvLvdsTx.obj, .\DrvMipiDscEncTx.obj, .\DrvMipiTx.obj, .\DrvRxTypec.obj, .\DrvSystem.obj, .\DrvTx
>> Typec.obj, .\DrvTypecDcc.obj, .\DrvTypecUcc.obj, .\Register.obj, .\OcmPrint.obj, .\OcmTimer.obj TO LT2204 REGFILE (.\
>> LT2204.ORC) RAMSIZE (256)


MEMORY MODEL: LARGE


INPUT MODULES INCLUDED:
  .\STARTUP.obj (?C_STARTUP)
  .\main.obj (MAIN)
  .\LT6711GXE.obj (LT6711GXE)
  .\LT6911GXE.obj (LT6911GXE)
  .\LT7911GXE.obj (LT7911GXE)
  .\LT8711GXE.obj (LT8711GXE)
  .\LT86121GXE.obj (LT86121GXE)
  .\Interrupt.obj (INTERRUPT)
  .\ModAuxMsg.obj (MODAUXMSG)
  .\ModCC1BasicTypec.obj (MODCC1BASICTYPEC)
  .\ModCC1MsgTypec.obj (MODCC1MSGTYPEC)
  .\ModCC1Typec.obj (MODCC1TYPEC)
  .\ModCC2BasicTypec.obj (MODCC2BASICTYPEC)
  .\ModCC2MsgTypec.obj (MODCC2MSGTYPEC)
  .\ModCC2Typec.obj (MODCC2TYPEC)
  .\ModCCSharedTypec.obj (MODCCSHAREDTYPEC)
  .\ModDpEdid.obj (MODDPEDID)
  .\ModDpLinkCts.obj (MODDPLINKCTS)
  .\ModDpLinkTrain.obj (MODDPLINKTRAIN)
  .\ModDpRx.obj (MODDPRX)
  .\ModDpRxEq.obj (MODDPRXEQ)
  .\ModDpRxMst.obj (MODDPRXMST)
  .\ModDpTx.obj (MODDPTX)
  .\ModDscDec.obj (MODDSCDEC)
  .\ModDscEnc.obj (MODDSCENC)
  .\ModFrlRx.obj (MODFRLRX)
  .\ModFrlTrain.obj (MODFRLTRAIN)
  .\ModHdmiEdid.obj (MODHDMIEDID)
  .\ModHdmiRx.obj (MODHDMIRX)
  .\ModHdmiRxEq.obj (MODHDMIRXEQ)
  .\ModHdmiTx.obj (MODHDMITX)
  .\ModLvdsTx.obj (MODLVDSTX)
  .\ModMipiTx.obj (MODMIPITX)
  .\ModRxBasicTypec.obj (MODRXBASICTYPEC)
  .\ModRxMsgTypec.obj (MODRXMSGTYPEC)
  .\ModRxTypec.obj (MODRXTYPEC)
  .\ModSystem.obj (MODSYSTEM)
  .\ModTmdsRx.obj (MODTMDSRX)
BL51 BANKED LINKER/LOCATER V6.22                                                      06/21/2023  15:37:55  PAGE 2


  .\ModTxBasicTypec.obj (MODTXBASICTYPEC)
  .\ModTxMsgTypec.obj (MODTXMSGTYPEC)
  .\ModTxTypec.obj (MODTXTYPEC)
  .\DrvAudio.obj (DRVAUDIO)
  .\DrvBillBoard.obj (DRVBILLBOARD)
  .\DrvCec.obj (DRVCEC)
  .\DrvCsc.obj (DRVCSC)
  .\DrvDdcMast.obj (DRVDDCMAST)
  .\DrvDpRx.obj (DRVDPRX)
  .\DrvDpRxDscByPass.obj (DRVDPRXDSCBYPASS)
  .\DrvDpRxDscDec.obj (DRVDPRXDSCDEC)
  .\DrvDpTx.obj (DRVDPTX)
  .\DrvDpTxDscByPass.obj (DRVDPTXDSCBYPASS)
  .\DrvDpTxDscEnc.obj (DRVDPTXDSCENC)
  .\DrvGpio.obj (DRVGPIO)
  .\DrvHdcpRx.obj (DRVHDCPRX)
  .\DrvHdcpTx.obj (DRVHDCPTX)
  .\DrvHdmiRx.obj (DRVHDMIRX)
  .\DrvHdmiRXDscByPass.obj (DRVHDMIRXDSCBYPASS)
  .\DrvHdmiRXDscDec.obj (DRVHDMIRXDSCDEC)
  .\DrvHdmiTx.obj (DRVHDMITX)
  .\DrvHdmiTxDscByPass.obj (DRVHDMITXDSCBYPASS)
  .\DrvHdmiTxDscEnc.obj (DRVHDMITXDSCENC)
  .\DrvI2CMast.obj (DRVI2CMAST)
  .\DrvLvdsTx.obj (DRVLVDSTX)
  .\DrvMipiDscEncTx.obj (DRVMIPIDSCENCTX)
  .\DrvMipiTx.obj (DRVMIPITX)
  .\DrvRxTypec.obj (DRVRXTYPEC)
  .\DrvSystem.obj (DRVSYSTEM)
  .\DrvTxTypec.obj (DRVTXTYPEC)
  .\DrvTypecDcc.obj (DRVTYPECDCC)
  .\DrvTypecUcc.obj (DRVTYPECUCC)
  .\Register.obj (REGISTER)
  .\OcmPrint.obj (OCMPRINT)
  .\OcmTimer.obj (OCMTIMER)
  C:\KEIL_V5\C51\C51\LIB\C51L.LIB (?C_INIT)
  C:\KEIL_V5\C51\C51\LIB\C51L.LIB (?C?COPY)
  C:\KEIL_V5\C51\C51\LIB\C51L.LIB (?C?CLDPTR)
  C:\KEIL_V5\C51\C51\LIB\C51L.LIB (?C?CLDOPTR)
  C:\KEIL_V5\C51\C51\LIB\C51L.LIB (?C?CILDOPTR)
  C:\KEIL_V5\C51\C51\LIB\C51L.LIB (?C?CSTPTR)
  C:\KEIL_V5\C51\C51\LIB\C51L.LIB (?C?CSTOPTR)
  C:\KEIL_V5\C51\C51\LIB\C51L.LIB (?C?IMUL)
  C:\KEIL_V5\C51\C51\LIB\C51L.LIB (?C?UIDIV)
  C:\KEIL_V5\C51\C51\LIB\C51L.LIB (?C?IILDX)
  C:\KEIL_V5\C51\C51\LIB\C51L.LIB (?C?ILDOPTR)
  C:\KEIL_V5\C51\C51\LIB\C51L.LIB (?C?ISTPTR)
  C:\KEIL_V5\C51\C51\LIB\C51L.LIB (?C?ISTOPTR)
  C:\KEIL_V5\C51\C51\LIB\C51L.LIB (?C?LADD)
  C:\KEIL_V5\C51\C51\LIB\C51L.LIB (?C?LMUL)
  C:\KEIL_V5\C51\C51\LIB\C51L.LIB (?C?ULDIV)
  C:\KEIL_V5\C51\C51\LIB\C51L.LIB (?C?ULCMP)
  C:\KEIL_V5\C51\C51\LIB\C51L.LIB (?C?ULSHR)
  C:\KEIL_V5\C51\C51\LIB\C51L.LIB (?C?LSHL)
  C:\KEIL_V5\C51\C51\LIB\C51L.LIB (?C?LLDPTR)
  C:\KEIL_V5\C51\C51\LIB\C51L.LIB (?C?LLDOPTR)
  C:\KEIL_V5\C51\C51\LIB\C51L.LIB (?C?LSTPTR)
BL51 BANKED LINKER/LOCATER V6.22                                                      06/21/2023  15:37:55  PAGE 3


  C:\KEIL_V5\C51\C51\LIB\C51L.LIB (?C?LLDXDATA)
  C:\KEIL_V5\C51\C51\LIB\C51L.LIB (?C?LLDXDATA0)
  C:\KEIL_V5\C51\C51\LIB\C51L.LIB (?C?LSTXDATA)
  C:\KEIL_V5\C51\C51\LIB\C51L.LIB (?C?LSTKXDATA)
  C:\KEIL_V5\C51\C51\LIB\C51L.LIB (?C?PLDXDATA)
  C:\KEIL_V5\C51\C51\LIB\C51L.LIB (?C?PSTXDATA)
  C:\KEIL_V5\C51\C51\LIB\C51L.LIB (?C?CCASE)
  C:\KEIL_V5\C51\C51\LIB\C51L.LIB (PUTCHAR)
  C:\KEIL_V5\C51\C51\LIB\C51L.LIB (ABS)
  C:\KEIL_V5\C51\C51\LIB\C51L.LIB (STRLEN)
  C:\KEIL_V5\C51\C51\LIB\C51L.LIB (?C?MEMSET)
  C:\KEIL_V5\C51\C51\LIB\C51L.LIB (VSPRINTF)
  C:\KEIL_V5\C51\C51\LIB\C51L.LIB (?C?LLDIDATA)
  C:\KEIL_V5\C51\C51\LIB\C51L.LIB (?C?LLDPDATA)
  C:\KEIL_V5\C51\C51\LIB\C51L.LIB (?C?LLDCODE)
  C:\KEIL_V5\C51\C51\LIB\C51L.LIB (?C?LSTIDATA)
  C:\KEIL_V5\C51\C51\LIB\C51L.LIB (?C?LSTPDATA)
  C:\KEIL_V5\C51\C51\LIB\C51L.LIB (PRINTF)
  C:\KEIL_V5\C51\C51\LIB\C51L.LIB (?C?PLDIXDATA)


LINK MAP OF MODULE:  LT2204 (?C_STARTUP)


            TYPE    BASE      LENGTH    RELOCATION   SEGMENT NAME
            -----------------------------------------------------

            * * * * * * *   D A T A   M E M O R Y   * * * * * * *
            REG     0000H     0008H     ABSOLUTE     "REG BANK 0"
            DATA    0008H     0005H     UNIT         _DATA_GROUP_
            IDATA   000DH     0006H     UNIT         _IDATA_GROUP_
                    0013H     000DH                  *** GAP ***
            BIT     0020H.0   0001H.1   UNIT         _BIT_GROUP_
                    0021H.1   0000H.7                *** GAP ***
            IDATA   0022H     0043H     UNIT         ?ID?MODAUXMSG
            IDATA   0065H     0001H     UNIT         ?STACK

            * * * * * * *  X D A T A   M E M O R Y  * * * * * * *
            XDATA   0000H     0297H     UNIT         ?XD?MODCC1TYPEC
            XDATA   0297H     021AH     UNIT         ?XD?MODHDMIEDID
            XDATA   04B1H     0115H     UNIT         _XDATA_GROUP_
            XDATA   05C6H     003CH     UNIT         ?XD?MODHDMITX
            XDATA   0602H     0028H     UNIT         ?XD?MODDPRX
            XDATA   062AH     001EH     UNIT         ?XD?MODHDMIRX
            XDATA   0648H     000EH     UNIT         ?XD?MODFRLTRAIN
            XDATA   0656H     0007H     UNIT         ?XD?MOD_HDMITX_READSINKERRORCNT?MODHDMITX
            XDATA   065DH     0005H     UNIT         ?XD?MODCC1BASICTYPEC
            XDATA   0662H     0004H     UNIT         ?XD?OCMTIMER
            XDATA   0666H     0003H     UNIT         ?XD?_MOD_HDMITX_VRRSET?MODHDMITX
            XDATA   0669H     0002H     UNIT         ?XD?MODCC2BASICTYPEC
            XDATA   066BH     0002H     UNIT         ?XD?_DRV_DPRX_RXTIMINGGET?DRVDPRX
            XDATA   066DH     0001H     UNIT         ?XD?MODAUXMSG
            XDATA   066EH     0001H     UNIT         ?XD?MODCC1MSGTYPEC
            XDATA   066FH     0001H     UNIT         ?XD?DRVDPRX
            XDATA   0670H     0001H     UNIT         ?XD?DRVSYSTEM
            XDATA   0671H     0001H     UNIT         ?XD?DRV_SYS_HDCPKEYLOAD?DRVSYSTEM
                    0672H     9A8FH                  *** GAP ***
BL51 BANKED LINKER/LOCATER V6.22                                                      06/21/2023  15:37:55  PAGE 4


            XDATA   A101H     0001H     ABSOLUTE     
            XDATA   A102H     0001H     ABSOLUTE     
            XDATA   A103H     0001H     ABSOLUTE     
            XDATA   A104H     0001H     ABSOLUTE     
            XDATA   A105H     0001H     ABSOLUTE     
            XDATA   A106H     0001H     ABSOLUTE     
            XDATA   A107H     0001H     ABSOLUTE     
            XDATA   A108H     0001H     ABSOLUTE     
            XDATA   A109H     0001H     ABSOLUTE     
            XDATA   A10AH     0001H     ABSOLUTE     
            XDATA   A10BH     0001H     ABSOLUTE     
            XDATA   A10CH     0001H     ABSOLUTE     
            XDATA   A10DH     0001H     ABSOLUTE     
            XDATA   A10EH     0001H     ABSOLUTE     
                    A10FH     0004H                  *** GAP ***
            XDATA   A113H     0001H     ABSOLUTE     
                    A114H     0001H                  *** GAP ***
            XDATA   A115H     0001H     ABSOLUTE     
                    A116H     0001H                  *** GAP ***
            XDATA   A117H     0001H     ABSOLUTE     
                    A118H     0001H                  *** GAP ***
            XDATA   A119H     0001H     ABSOLUTE     
                    A11AH     0001H                  *** GAP ***
            XDATA   A11BH     0001H     ABSOLUTE     
            XDATA   A11CH     0001H     ABSOLUTE     
                    A11DH     0002H                  *** GAP ***
            XDATA   A11FH     0001H     ABSOLUTE     
                    A120H     0005H                  *** GAP ***
            XDATA   A125H     0001H     ABSOLUTE     
            XDATA   A126H     0001H     ABSOLUTE     
            XDATA   A127H     0001H     ABSOLUTE     
            XDATA   A128H     0001H     ABSOLUTE     
                    A129H     0007H                  *** GAP ***
            XDATA   A130H     0001H     ABSOLUTE     
            XDATA   A131H     0001H     ABSOLUTE     
            XDATA   A132H     0001H     ABSOLUTE     
            XDATA   A133H     0001H     ABSOLUTE     
                    A134H     0001H                  *** GAP ***
            XDATA   A135H     0001H     ABSOLUTE     
                    A136H     0001H                  *** GAP ***
            XDATA   A137H     0001H     ABSOLUTE     
            XDATA   A138H     0001H     ABSOLUTE     
                    A139H     0001H                  *** GAP ***
            XDATA   A13AH     0001H     ABSOLUTE     
            XDATA   A13BH     0001H     ABSOLUTE     
            XDATA   A13CH     0001H     ABSOLUTE     
                    A13DH     0001H                  *** GAP ***
            XDATA   A13EH     0001H     ABSOLUTE     
                    A13FH     0003H                  *** GAP ***
            XDATA   A142H     0001H     ABSOLUTE     
            XDATA   A143H     0001H     ABSOLUTE     
            XDATA   A144H     0001H     ABSOLUTE     
                    A145H     0003H                  *** GAP ***
            XDATA   A148H     0001H     ABSOLUTE     
            XDATA   A149H     0001H     ABSOLUTE     
                    A14AH     0001H                  *** GAP ***
            XDATA   A14BH     0001H     ABSOLUTE     
BL51 BANKED LINKER/LOCATER V6.22                                                      06/21/2023  15:37:55  PAGE 5


                    A14CH     0001H                  *** GAP ***
            XDATA   A14DH     0001H     ABSOLUTE     
            XDATA   A14EH     0001H     ABSOLUTE     
            XDATA   A14FH     0001H     ABSOLUTE     
            XDATA   A150H     0001H     ABSOLUTE     
            XDATA   A151H     0001H     ABSOLUTE     
            XDATA   A152H     0001H     ABSOLUTE     
                    A153H     0001H                  *** GAP ***
            XDATA   A154H     0001H     ABSOLUTE     
            XDATA   A155H     0001H     ABSOLUTE     
                    A156H     0002H                  *** GAP ***
            XDATA   A158H     0001H     ABSOLUTE     
            XDATA   A159H     0001H     ABSOLUTE     
            XDATA   A15AH     0001H     ABSOLUTE     
            XDATA   A15BH     0001H     ABSOLUTE     
            XDATA   A15CH     0001H     ABSOLUTE     
                    A15DH     000AH                  *** GAP ***
            XDATA   A167H     0001H     ABSOLUTE     
                    A168H     0007H                  *** GAP ***
            XDATA   A16FH     0001H     ABSOLUTE     
            XDATA   A170H     0001H     ABSOLUTE     
            XDATA   A171H     0001H     ABSOLUTE     
            XDATA   A172H     0001H     ABSOLUTE     
            XDATA   A173H     0001H     ABSOLUTE     
            XDATA   A174H     0001H     ABSOLUTE     
            XDATA   A175H     0001H     ABSOLUTE     
            XDATA   A176H     0001H     ABSOLUTE     
            XDATA   A177H     0001H     ABSOLUTE     
            XDATA   A178H     0001H     ABSOLUTE     
            XDATA   A179H     0001H     ABSOLUTE     
            XDATA   A17AH     0001H     ABSOLUTE     
            XDATA   A17BH     0001H     ABSOLUTE     
            XDATA   A17CH     0001H     ABSOLUTE     
            XDATA   A17DH     0001H     ABSOLUTE     
            XDATA   A17EH     0001H     ABSOLUTE     
                    A17FH     0081H                  *** GAP ***
            XDATA   A200H     0001H     ABSOLUTE     
            XDATA   A201H     0001H     ABSOLUTE     
            XDATA   A202H     0001H     ABSOLUTE     
            XDATA   A203H     0001H     ABSOLUTE     
                    A204H     0002H                  *** GAP ***
            XDATA   A206H     0001H     ABSOLUTE     
                    A207H     0003H                  *** GAP ***
            XDATA   A20AH     0001H     ABSOLUTE     
                    A20BH     0005H                  *** GAP ***
            XDATA   A210H     0001H     ABSOLUTE     
                    A211H     0001H                  *** GAP ***
            XDATA   A212H     0001H     ABSOLUTE     
                    A213H     0014H                  *** GAP ***
            XDATA   A227H     0001H     ABSOLUTE     
                    A228H     0014H                  *** GAP ***
            XDATA   A23CH     0001H     ABSOLUTE     
                    A23DH     0014H                  *** GAP ***
            XDATA   A251H     0001H     ABSOLUTE     
                    A252H     0046H                  *** GAP ***
            XDATA   A298H     0001H     ABSOLUTE     
                    A299H     0010H                  *** GAP ***
BL51 BANKED LINKER/LOCATER V6.22                                                      06/21/2023  15:37:55  PAGE 6


            XDATA   A2A9H     0001H     ABSOLUTE     
                    A2AAH     0001H                  *** GAP ***
            XDATA   A2ABH     0001H     ABSOLUTE     
            XDATA   A2ACH     0001H     ABSOLUTE     
            XDATA   A2ADH     0001H     ABSOLUTE     
            XDATA   A2AEH     0001H     ABSOLUTE     
            XDATA   A2AFH     0001H     ABSOLUTE     
            XDATA   A2B0H     0001H     ABSOLUTE     
            XDATA   A2B1H     0001H     ABSOLUTE     
            XDATA   A2B2H     0001H     ABSOLUTE     
            XDATA   A2B3H     0001H     ABSOLUTE     
            XDATA   A2B4H     0001H     ABSOLUTE     
            XDATA   A2B5H     0001H     ABSOLUTE     
            XDATA   A2B6H     0001H     ABSOLUTE     
            XDATA   A2B7H     0001H     ABSOLUTE     
            XDATA   A2B8H     0001H     ABSOLUTE     
            XDATA   A2B9H     0001H     ABSOLUTE     
            XDATA   A2BAH     0001H     ABSOLUTE     
            XDATA   A2BBH     0001H     ABSOLUTE     
            XDATA   A2BCH     0001H     ABSOLUTE     
                    A2BDH     0043H                  *** GAP ***
            XDATA   A300H     0001H     ABSOLUTE     
                    A301H     0001H                  *** GAP ***
            XDATA   A302H     0001H     ABSOLUTE     
                    A303H     0005H                  *** GAP ***
            XDATA   A308H     0001H     ABSOLUTE     
                    A309H     000BH                  *** GAP ***
            XDATA   A314H     0001H     ABSOLUTE     
                    A315H     000BH                  *** GAP ***
            XDATA   A320H     0001H     ABSOLUTE     
            XDATA   A321H     0001H     ABSOLUTE     
                    A322H     0001H                  *** GAP ***
            XDATA   A323H     0001H     ABSOLUTE     
            XDATA   A324H     0001H     ABSOLUTE     
            XDATA   A325H     0001H     ABSOLUTE     
            XDATA   A326H     0001H     ABSOLUTE     
                    A327H     0003H                  *** GAP ***
            XDATA   A32AH     0001H     ABSOLUTE     
            XDATA   A32BH     0001H     ABSOLUTE     
                    A32CH     0002H                  *** GAP ***
            XDATA   A32EH     0001H     ABSOLUTE     
            XDATA   A32FH     0001H     ABSOLUTE     
                    A330H     0002H                  *** GAP ***
            XDATA   A332H     0001H     ABSOLUTE     
            XDATA   A333H     0001H     ABSOLUTE     
            XDATA   A334H     0001H     ABSOLUTE     
            XDATA   A335H     0001H     ABSOLUTE     
                    A336H     0006H                  *** GAP ***
            XDATA   A33CH     0001H     ABSOLUTE     
            XDATA   A33DH     0001H     ABSOLUTE     
            XDATA   A33EH     0001H     ABSOLUTE     
            XDATA   A33FH     0001H     ABSOLUTE     
            XDATA   A340H     0001H     ABSOLUTE     
            XDATA   A341H     0001H     ABSOLUTE     
            XDATA   A342H     0001H     ABSOLUTE     
            XDATA   A343H     0001H     ABSOLUTE     
            XDATA   A344H     0001H     ABSOLUTE     
BL51 BANKED LINKER/LOCATER V6.22                                                      06/21/2023  15:37:55  PAGE 7


            XDATA   A345H     0001H     ABSOLUTE     
            XDATA   A346H     0001H     ABSOLUTE     
                    A347H     000FH                  *** GAP ***
            XDATA   A356H     0001H     ABSOLUTE     
            XDATA   A357H     0001H     ABSOLUTE     
                    A358H     0003H                  *** GAP ***
            XDATA   A35BH     0001H     ABSOLUTE     
                    A35CH     0004H                  *** GAP ***
            XDATA   A360H     0001H     ABSOLUTE     
            XDATA   A361H     0001H     ABSOLUTE     
            XDATA   A362H     0001H     ABSOLUTE     
            XDATA   A363H     0001H     ABSOLUTE     
            XDATA   A364H     0001H     ABSOLUTE     
            XDATA   A365H     0001H     ABSOLUTE     
            XDATA   A366H     0001H     ABSOLUTE     
            XDATA   A367H     0001H     ABSOLUTE     
            XDATA   A368H     0001H     ABSOLUTE     
            XDATA   A369H     0001H     ABSOLUTE     
            XDATA   A36AH     0001H     ABSOLUTE     
            XDATA   A36BH     0001H     ABSOLUTE     
            XDATA   A36CH     0001H     ABSOLUTE     
            XDATA   A36DH     0001H     ABSOLUTE     
            XDATA   A36EH     0001H     ABSOLUTE     
            XDATA   A36FH     0001H     ABSOLUTE     
            XDATA   A370H     0001H     ABSOLUTE     
            XDATA   A371H     0001H     ABSOLUTE     
            XDATA   A372H     0001H     ABSOLUTE     
            XDATA   A373H     0001H     ABSOLUTE     
            XDATA   A374H     0001H     ABSOLUTE     
            XDATA   A375H     0001H     ABSOLUTE     
            XDATA   A376H     0001H     ABSOLUTE     
            XDATA   A377H     0001H     ABSOLUTE     
            XDATA   A378H     0001H     ABSOLUTE     
            XDATA   A379H     0001H     ABSOLUTE     
            XDATA   A37AH     0001H     ABSOLUTE     
            XDATA   A37BH     0001H     ABSOLUTE     
            XDATA   A37CH     0001H     ABSOLUTE     
            XDATA   A37DH     0001H     ABSOLUTE     
            XDATA   A37EH     0001H     ABSOLUTE     
            XDATA   A37FH     0001H     ABSOLUTE     
            XDATA   A380H     0001H     ABSOLUTE     
            XDATA   A381H     0001H     ABSOLUTE     
            XDATA   A382H     0001H     ABSOLUTE     
            XDATA   A383H     0001H     ABSOLUTE     
            XDATA   A384H     0001H     ABSOLUTE     
            XDATA   A385H     0001H     ABSOLUTE     
            XDATA   A386H     0001H     ABSOLUTE     
            XDATA   A387H     0001H     ABSOLUTE     
            XDATA   A388H     0001H     ABSOLUTE     
                    A389H     2178H                  *** GAP ***
            XDATA   C501H     0001H     ABSOLUTE     
            XDATA   C502H     0001H     ABSOLUTE     
            XDATA   C503H     0001H     ABSOLUTE     
            XDATA   C504H     0001H     ABSOLUTE     
                    C505H     0003H                  *** GAP ***
            XDATA   C508H     0001H     ABSOLUTE     
                    C509H     0001H                  *** GAP ***
BL51 BANKED LINKER/LOCATER V6.22                                                      06/21/2023  15:37:55  PAGE 8


            XDATA   C50AH     0001H     ABSOLUTE     
                    C50BH     0001H                  *** GAP ***
            XDATA   C50CH     0001H     ABSOLUTE     
                    C50DH     0003H                  *** GAP ***
            XDATA   C510H     0001H     ABSOLUTE     
            XDATA   C511H     0001H     ABSOLUTE     
                    C512H     0010H                  *** GAP ***
            XDATA   C522H     0001H     ABSOLUTE     
                    C523H     0007H                  *** GAP ***
            XDATA   C52AH     0001H     ABSOLUTE     
                    C52BH     00DFH                  *** GAP ***
            XDATA   C60AH     0001H     ABSOLUTE     
                    C60BH     0023H                  *** GAP ***
            XDATA   C62EH     0001H     ABSOLUTE     
            XDATA   C62FH     0001H     ABSOLUTE     
                    C630H     0007H                  *** GAP ***
            XDATA   C637H     0001H     ABSOLUTE     
            XDATA   C638H     0001H     ABSOLUTE     
            XDATA   C639H     0001H     ABSOLUTE     
                    C63AH     0010H                  *** GAP ***
            XDATA   C64AH     0001H     ABSOLUTE     
                    C64BH     0031H                  *** GAP ***
            XDATA   C67CH     0001H     ABSOLUTE     
                    C67DH     00C3H                  *** GAP ***
            XDATA   C740H     0001H     ABSOLUTE     
                    C741H     0005H                  *** GAP ***
            XDATA   C746H     0001H     ABSOLUTE     
            XDATA   C747H     0001H     ABSOLUTE     
            XDATA   C748H     0001H     ABSOLUTE     
            XDATA   C749H     0001H     ABSOLUTE     
            XDATA   C74AH     0001H     ABSOLUTE     
                    C74BH     000DH                  *** GAP ***
            XDATA   C758H     0001H     ABSOLUTE     
            XDATA   C759H     0001H     ABSOLUTE     
            XDATA   C75AH     0001H     ABSOLUTE     
                    C75BH     000AH                  *** GAP ***
            XDATA   C765H     0001H     ABSOLUTE     
            XDATA   C766H     0001H     ABSOLUTE     
            XDATA   C767H     0001H     ABSOLUTE     
            XDATA   C768H     0001H     ABSOLUTE     
                    C769H     000BH                  *** GAP ***
            XDATA   C774H     0001H     ABSOLUTE     
            XDATA   C775H     0001H     ABSOLUTE     
                    C776H     0006H                  *** GAP ***
            XDATA   C77CH     0001H     ABSOLUTE     
            XDATA   C77DH     0001H     ABSOLUTE     
            XDATA   C77EH     0001H     ABSOLUTE     
            XDATA   C77FH     0001H     ABSOLUTE     
                    C780H     0043H                  *** GAP ***
            XDATA   C7C3H     0001H     ABSOLUTE     
            XDATA   C7C4H     0001H     ABSOLUTE     
            XDATA   C7C5H     0001H     ABSOLUTE     
            XDATA   C7C6H     0001H     ABSOLUTE     
            XDATA   C7C7H     0001H     ABSOLUTE     
            XDATA   C7C8H     0001H     ABSOLUTE     
            XDATA   C7C9H     0001H     ABSOLUTE     
            XDATA   C7CAH     0001H     ABSOLUTE     
BL51 BANKED LINKER/LOCATER V6.22                                                      06/21/2023  15:37:55  PAGE 9


            XDATA   C7CBH     0001H     ABSOLUTE     
            XDATA   C7CCH     0001H     ABSOLUTE     
            XDATA   C7CDH     0001H     ABSOLUTE     
            XDATA   C7CEH     0001H     ABSOLUTE     
            XDATA   C7CFH     0001H     ABSOLUTE     
            XDATA   C7D0H     0001H     ABSOLUTE     
            XDATA   C7D1H     0001H     ABSOLUTE     
                    C7D2H     0004H                  *** GAP ***
            XDATA   C7D6H     0001H     ABSOLUTE     
            XDATA   C7D7H     0001H     ABSOLUTE     
                    C7D8H     000EH                  *** GAP ***
            XDATA   C7E6H     0001H     ABSOLUTE     
            XDATA   C7E7H     0001H     ABSOLUTE     
            XDATA   C7E8H     0001H     ABSOLUTE     
                    C7E9H     0012H                  *** GAP ***
            XDATA   C7FBH     0001H     ABSOLUTE     
                    C7FCH     0015H                  *** GAP ***
            XDATA   C811H     0001H     ABSOLUTE     
            XDATA   C812H     0001H     ABSOLUTE     
                    C813H     0006H                  *** GAP ***
            XDATA   C819H     0001H     ABSOLUTE     
                    C81AH     0006H                  *** GAP ***
            XDATA   C820H     0001H     ABSOLUTE     
            XDATA   C821H     0001H     ABSOLUTE     
            XDATA   C822H     0001H     ABSOLUTE     
            XDATA   C823H     0001H     ABSOLUTE     
            XDATA   C824H     0001H     ABSOLUTE     
            XDATA   C825H     0001H     ABSOLUTE     
            XDATA   C826H     0001H     ABSOLUTE     
            XDATA   C827H     0001H     ABSOLUTE     
            XDATA   C828H     0001H     ABSOLUTE     
                    C829H     001DH                  *** GAP ***
            XDATA   C846H     0001H     ABSOLUTE     
            XDATA   C847H     0001H     ABSOLUTE     
            XDATA   C848H     0001H     ABSOLUTE     
            XDATA   C849H     0001H     ABSOLUTE     
            XDATA   C84AH     0001H     ABSOLUTE     
            XDATA   C84BH     0001H     ABSOLUTE     
            XDATA   C84CH     0001H     ABSOLUTE     
            XDATA   C84DH     0001H     ABSOLUTE     
            XDATA   C84EH     0001H     ABSOLUTE     
            XDATA   C84FH     0001H     ABSOLUTE     
            XDATA   C850H     0001H     ABSOLUTE     
            XDATA   C851H     0001H     ABSOLUTE     
            XDATA   C852H     0001H     ABSOLUTE     
            XDATA   C853H     0001H     ABSOLUTE     
            XDATA   C854H     0001H     ABSOLUTE     
            XDATA   C855H     0001H     ABSOLUTE     
            XDATA   C856H     0001H     ABSOLUTE     
            XDATA   C857H     0001H     ABSOLUTE     
            XDATA   C858H     0001H     ABSOLUTE     
            XDATA   C859H     0001H     ABSOLUTE     
                    C85AH     0014H                  *** GAP ***
            XDATA   C86EH     0001H     ABSOLUTE     
            XDATA   C86FH     0001H     ABSOLUTE     
                    C870H     0001H                  *** GAP ***
            XDATA   C871H     0001H     ABSOLUTE     
BL51 BANKED LINKER/LOCATER V6.22                                                      06/21/2023  15:37:55  PAGE 10


                    C872H     000BH                  *** GAP ***
            XDATA   C87DH     0001H     ABSOLUTE     
                    C87EH     0002H                  *** GAP ***
            XDATA   C880H     0001H     ABSOLUTE     
                    C881H     002FH                  *** GAP ***
            XDATA   C8B0H     0001H     ABSOLUTE     
            XDATA   C8B1H     0001H     ABSOLUTE     
            XDATA   C8B2H     0001H     ABSOLUTE     
            XDATA   C8B3H     0001H     ABSOLUTE     
            XDATA   C8B4H     0001H     ABSOLUTE     
                    C8B5H     004EH                  *** GAP ***
            XDATA   C903H     0001H     ABSOLUTE     
                    C904H     0002H                  *** GAP ***
            XDATA   C906H     0001H     ABSOLUTE     
            XDATA   C907H     0001H     ABSOLUTE     
            XDATA   C908H     0001H     ABSOLUTE     
                    C909H     0001H                  *** GAP ***
            XDATA   C90AH     0001H     ABSOLUTE     
                    C90BH     0005H                  *** GAP ***
            XDATA   C910H     0001H     ABSOLUTE     
            XDATA   C911H     0001H     ABSOLUTE     
            XDATA   C912H     0001H     ABSOLUTE     
            XDATA   C913H     0001H     ABSOLUTE     
            XDATA   C914H     0001H     ABSOLUTE     
            XDATA   C915H     0001H     ABSOLUTE     
            XDATA   C916H     0001H     ABSOLUTE     
            XDATA   C917H     0001H     ABSOLUTE     
            XDATA   C918H     0001H     ABSOLUTE     
            XDATA   C919H     0001H     ABSOLUTE     
            XDATA   C91AH     0001H     ABSOLUTE     
            XDATA   C91BH     0001H     ABSOLUTE     
            XDATA   C91CH     0001H     ABSOLUTE     
            XDATA   C91DH     0001H     ABSOLUTE     
            XDATA   C91EH     0001H     ABSOLUTE     
                    C91FH     0001H                  *** GAP ***
            XDATA   C920H     0001H     ABSOLUTE     
                    C921H     00DFH                  *** GAP ***
            XDATA   CA00H     0001H     ABSOLUTE     
            XDATA   CA01H     0001H     ABSOLUTE     
                    CA02H     0001H                  *** GAP ***
            XDATA   CA03H     0001H     ABSOLUTE     
                    CA04H     0002H                  *** GAP ***
            XDATA   CA06H     0001H     ABSOLUTE     
                    CA07H     0003H                  *** GAP ***
            XDATA   CA0AH     0001H     ABSOLUTE     
                    CA0BH     0006H                  *** GAP ***
            XDATA   CA11H     0001H     ABSOLUTE     
            XDATA   CA12H     0001H     ABSOLUTE     
                    CA13H     0001H                  *** GAP ***
            XDATA   CA14H     0001H     ABSOLUTE     
            XDATA   CA15H     0001H     ABSOLUTE     
            XDATA   CA16H     0001H     ABSOLUTE     
                    CA17H     0007H                  *** GAP ***
            XDATA   CA1EH     0001H     ABSOLUTE     
                    CA1FH     000BH                  *** GAP ***
            XDATA   CA2AH     0001H     ABSOLUTE     
            XDATA   CA2BH     0001H     ABSOLUTE     
BL51 BANKED LINKER/LOCATER V6.22                                                      06/21/2023  15:37:55  PAGE 11


                    CA2CH     0002H                  *** GAP ***
            XDATA   CA2EH     0001H     ABSOLUTE     
                    CA2FH     0002H                  *** GAP ***
            XDATA   CA31H     0001H     ABSOLUTE     
                    CA32H     004EH                  *** GAP ***
            XDATA   CA80H     0001H     ABSOLUTE     
                    CA81H     0003H                  *** GAP ***
            XDATA   CA84H     0001H     ABSOLUTE     
                    CA85H     002EH                  *** GAP ***
            XDATA   CAB3H     0001H     ABSOLUTE     
                    CAB4H     0009H                  *** GAP ***
            XDATA   CABDH     0001H     ABSOLUTE     
                    CABEH     005BH                  *** GAP ***
            XDATA   CB19H     0001H     ABSOLUTE     
                    CB1AH     0021H                  *** GAP ***
            XDATA   CB3BH     0001H     ABSOLUTE     
            XDATA   CB3CH     0001H     ABSOLUTE     
            XDATA   CB3DH     0001H     ABSOLUTE     
            XDATA   CB3EH     0001H     ABSOLUTE     
            XDATA   CB3FH     0001H     ABSOLUTE     
            XDATA   CB40H     0001H     ABSOLUTE     
            XDATA   CB41H     0001H     ABSOLUTE     
            XDATA   CB42H     0001H     ABSOLUTE     
            XDATA   CB43H     0001H     ABSOLUTE     
            XDATA   CB44H     0001H     ABSOLUTE     
            XDATA   CB45H     0001H     ABSOLUTE     
                    CB46H     0054H                  *** GAP ***
            XDATA   CB9AH     0001H     ABSOLUTE     
            XDATA   CB9BH     0001H     ABSOLUTE     
            XDATA   CB9CH     0001H     ABSOLUTE     
                    CB9DH     0002H                  *** GAP ***
            XDATA   CB9FH     0001H     ABSOLUTE     
            XDATA   CBA0H     0001H     ABSOLUTE     
                    CBA1H     0013H                  *** GAP ***
            XDATA   CBB4H     0001H     ABSOLUTE     
                    CBB5H     0020H                  *** GAP ***
            XDATA   CBD5H     0001H     ABSOLUTE     
                    CBD6H     002AH                  *** GAP ***
            XDATA   CC00H     0001H     ABSOLUTE     
                    CC01H     0002H                  *** GAP ***
            XDATA   CC03H     0001H     ABSOLUTE     
                    CC04H     0002H                  *** GAP ***
            XDATA   CC06H     0001H     ABSOLUTE     
            XDATA   CC07H     0001H     ABSOLUTE     
            XDATA   CC08H     0001H     ABSOLUTE     
                    CC09H     0001H                  *** GAP ***
            XDATA   CC0AH     0001H     ABSOLUTE     
                    CC0BH     0004H                  *** GAP ***
            XDATA   CC0FH     0001H     ABSOLUTE     
            XDATA   CC10H     0001H     ABSOLUTE     
                    CC11H     0001H                  *** GAP ***
            XDATA   CC12H     0001H     ABSOLUTE     
                    CC13H     0002H                  *** GAP ***
            XDATA   CC15H     0001H     ABSOLUTE     
                    CC16H     0003H                  *** GAP ***
            XDATA   CC19H     0001H     ABSOLUTE     
                    CC1AH     0002H                  *** GAP ***
BL51 BANKED LINKER/LOCATER V6.22                                                      06/21/2023  15:37:55  PAGE 12


            XDATA   CC1CH     0001H     ABSOLUTE     
                    CC1DH     0002H                  *** GAP ***
            XDATA   CC1FH     0001H     ABSOLUTE     
            XDATA   CC20H     0001H     ABSOLUTE     
                    CC21H     0001H                  *** GAP ***
            XDATA   CC22H     0001H     ABSOLUTE     
                    CC23H     0005H                  *** GAP ***
            XDATA   CC28H     0001H     ABSOLUTE     
                    CC29H     0001H                  *** GAP ***
            XDATA   CC2AH     0001H     ABSOLUTE     
            XDATA   CC2BH     0001H     ABSOLUTE     
            XDATA   CC2CH     0001H     ABSOLUTE     
                    CC2DH     0001H                  *** GAP ***
            XDATA   CC2EH     0001H     ABSOLUTE     
            XDATA   CC2FH     0001H     ABSOLUTE     
                    CC30H     0002H                  *** GAP ***
            XDATA   CC32H     0001H     ABSOLUTE     
            XDATA   CC33H     0001H     ABSOLUTE     
            XDATA   CC34H     0001H     ABSOLUTE     
            XDATA   CC35H     0001H     ABSOLUTE     
            XDATA   CC36H     0001H     ABSOLUTE     
            XDATA   CC37H     0001H     ABSOLUTE     
            XDATA   CC38H     0001H     ABSOLUTE     
            XDATA   CC39H     0001H     ABSOLUTE     
            XDATA   CC3AH     0001H     ABSOLUTE     
            XDATA   CC3BH     0001H     ABSOLUTE     
            XDATA   CC3CH     0001H     ABSOLUTE     
            XDATA   CC3DH     0001H     ABSOLUTE     
            XDATA   CC3EH     0001H     ABSOLUTE     
            XDATA   CC3FH     0001H     ABSOLUTE     
            XDATA   CC40H     0001H     ABSOLUTE     
            XDATA   CC41H     0001H     ABSOLUTE     
            XDATA   CC42H     0001H     ABSOLUTE     
            XDATA   CC43H     0001H     ABSOLUTE     
            XDATA   CC44H     0001H     ABSOLUTE     
            XDATA   CC45H     0001H     ABSOLUTE     
            XDATA   CC46H     0001H     ABSOLUTE     
            XDATA   CC47H     0001H     ABSOLUTE     
            XDATA   CC48H     0001H     ABSOLUTE     
            XDATA   CC49H     0001H     ABSOLUTE     
            XDATA   CC4AH     0001H     ABSOLUTE     
            XDATA   CC4BH     0001H     ABSOLUTE     
            XDATA   CC4CH     0001H     ABSOLUTE     
            XDATA   CC4DH     0001H     ABSOLUTE     
            XDATA   CC4EH     0001H     ABSOLUTE     
            XDATA   CC4FH     0001H     ABSOLUTE     
            XDATA   CC50H     0001H     ABSOLUTE     
            XDATA   CC51H     0001H     ABSOLUTE     
            XDATA   CC52H     0001H     ABSOLUTE     
            XDATA   CC53H     0001H     ABSOLUTE     
            XDATA   CC54H     0001H     ABSOLUTE     
            XDATA   CC55H     0001H     ABSOLUTE     
            XDATA   CC56H     0001H     ABSOLUTE     
            XDATA   CC57H     0001H     ABSOLUTE     
            XDATA   CC58H     0001H     ABSOLUTE     
                    CC59H     0007H                  *** GAP ***
            XDATA   CC60H     0001H     ABSOLUTE     
BL51 BANKED LINKER/LOCATER V6.22                                                      06/21/2023  15:37:55  PAGE 13


                    CC61H     0002H                  *** GAP ***
            XDATA   CC63H     0001H     ABSOLUTE     
            XDATA   CC64H     0001H     ABSOLUTE     
            XDATA   CC65H     0001H     ABSOLUTE     
                    CC66H     0005H                  *** GAP ***
            XDATA   CC6BH     0001H     ABSOLUTE     
                    CC6CH     0004H                  *** GAP ***
            XDATA   CC70H     0001H     ABSOLUTE     
                    CC71H     0004H                  *** GAP ***
            XDATA   CC75H     0001H     ABSOLUTE     
                    CC76H     0002H                  *** GAP ***
            XDATA   CC78H     0001H     ABSOLUTE     
            XDATA   CC79H     0001H     ABSOLUTE     
            XDATA   CC7AH     0001H     ABSOLUTE     
            XDATA   CC7BH     0001H     ABSOLUTE     
            XDATA   CC7CH     0001H     ABSOLUTE     
            XDATA   CC7DH     0001H     ABSOLUTE     
            XDATA   CC7EH     0001H     ABSOLUTE     
            XDATA   CC7FH     0001H     ABSOLUTE     
            XDATA   CC80H     0001H     ABSOLUTE     
            XDATA   CC81H     0001H     ABSOLUTE     
            XDATA   CC82H     0001H     ABSOLUTE     
            XDATA   CC83H     0001H     ABSOLUTE     
            XDATA   CC84H     0001H     ABSOLUTE     
            XDATA   CC85H     0001H     ABSOLUTE     
            XDATA   CC86H     0001H     ABSOLUTE     
            XDATA   CC87H     0001H     ABSOLUTE     
            XDATA   CC88H     0001H     ABSOLUTE     
            XDATA   CC89H     0001H     ABSOLUTE     
            XDATA   CC8AH     0001H     ABSOLUTE     
            XDATA   CC8BH     0001H     ABSOLUTE     
            XDATA   CC8CH     0001H     ABSOLUTE     
                    CC8DH     0007H                  *** GAP ***
            XDATA   CC94H     0001H     ABSOLUTE     
                    CC95H     0005H                  *** GAP ***
            XDATA   CC9AH     0001H     ABSOLUTE     
            XDATA   CC9BH     0001H     ABSOLUTE     
            XDATA   CC9CH     0001H     ABSOLUTE     
            XDATA   CC9DH     0001H     ABSOLUTE     
                    CC9EH     0001H                  *** GAP ***
            XDATA   CC9FH     0001H     ABSOLUTE     
            XDATA   CCA0H     0001H     ABSOLUTE     
            XDATA   CCA1H     0001H     ABSOLUTE     
                    CCA2H     0001H                  *** GAP ***
            XDATA   CCA3H     0001H     ABSOLUTE     
            XDATA   CCA4H     0001H     ABSOLUTE     
            XDATA   CCA5H     0001H     ABSOLUTE     
            XDATA   CCA6H     0001H     ABSOLUTE     
            XDATA   CCA7H     0001H     ABSOLUTE     
                    CCA8H     0004H                  *** GAP ***
            XDATA   CCACH     0001H     ABSOLUTE     
            XDATA   CCADH     0001H     ABSOLUTE     
            XDATA   CCAEH     0001H     ABSOLUTE     
            XDATA   CCAFH     0001H     ABSOLUTE     
            XDATA   CCB0H     0001H     ABSOLUTE     
            XDATA   CCB1H     0001H     ABSOLUTE     
                    CCB2H     0003H                  *** GAP ***
BL51 BANKED LINKER/LOCATER V6.22                                                      06/21/2023  15:37:55  PAGE 14


            XDATA   CCB5H     0001H     ABSOLUTE     
            XDATA   CCB6H     0001H     ABSOLUTE     
            XDATA   CCB7H     0001H     ABSOLUTE     
                    CCB8H     0018H                  *** GAP ***
            XDATA   CCD0H     0001H     ABSOLUTE     
                    CCD1H     0002H                  *** GAP ***
            XDATA   CCD3H     0001H     ABSOLUTE     
                    CCD4H     0003H                  *** GAP ***
            XDATA   CCD7H     0001H     ABSOLUTE     
                    CCD8H     0001H                  *** GAP ***
            XDATA   CCD9H     0001H     ABSOLUTE     
                    CCDAH     0001H                  *** GAP ***
            XDATA   CCDBH     0001H     ABSOLUTE     
                    CCDCH     0001H                  *** GAP ***
            XDATA   CCDDH     0001H     ABSOLUTE     
                    CCDEH     0003H                  *** GAP ***
            XDATA   CCE1H     0001H     ABSOLUTE     
                    CCE2H     000DH                  *** GAP ***
            XDATA   CCEFH     0001H     ABSOLUTE     
                    CCF0H     0001H                  *** GAP ***
            XDATA   CCF1H     0001H     ABSOLUTE     
            XDATA   CCF2H     0001H     ABSOLUTE     
            XDATA   CCF3H     0001H     ABSOLUTE     
            XDATA   CCF4H     0001H     ABSOLUTE     
            XDATA   CCF5H     0001H     ABSOLUTE     
            XDATA   CCF6H     0001H     ABSOLUTE     
                    CCF7H     0005H                  *** GAP ***
            XDATA   CCFCH     0001H     ABSOLUTE     
                    CCFDH     0003H                  *** GAP ***
            XDATA   CD00H     0001H     ABSOLUTE     
            XDATA   CD01H     0001H     ABSOLUTE     
            XDATA   CD02H     0001H     ABSOLUTE     
            XDATA   CD03H     0001H     ABSOLUTE     
                    CD04H     0002H                  *** GAP ***
            XDATA   CD06H     0001H     ABSOLUTE     
            XDATA   CD07H     0001H     ABSOLUTE     
            XDATA   CD08H     0001H     ABSOLUTE     
            XDATA   CD09H     0001H     ABSOLUTE     
            XDATA   CD0AH     0001H     ABSOLUTE     
            XDATA   CD0BH     0001H     ABSOLUTE     
            XDATA   CD0CH     0001H     ABSOLUTE     
            XDATA   CD0DH     0001H     ABSOLUTE     
            XDATA   CD0EH     0001H     ABSOLUTE     
            XDATA   CD0FH     0001H     ABSOLUTE     
                    CD10H     0004H                  *** GAP ***
            XDATA   CD14H     0001H     ABSOLUTE     
                    CD15H     0001H                  *** GAP ***
            XDATA   CD16H     0001H     ABSOLUTE     
                    CD17H     002FH                  *** GAP ***
            XDATA   CD46H     0001H     ABSOLUTE     
                    CD47H     0001H                  *** GAP ***
            XDATA   CD48H     0001H     ABSOLUTE     
                    CD49H     0009H                  *** GAP ***
            XDATA   CD52H     0001H     ABSOLUTE     
                    CD53H     0002H                  *** GAP ***
            XDATA   CD55H     0001H     ABSOLUTE     
                    CD56H     0001H                  *** GAP ***
BL51 BANKED LINKER/LOCATER V6.22                                                      06/21/2023  15:37:55  PAGE 15


            XDATA   CD57H     0001H     ABSOLUTE     
                    CD58H     0002H                  *** GAP ***
            XDATA   CD5AH     0001H     ABSOLUTE     
                    CD5BH     0006H                  *** GAP ***
            XDATA   CD61H     0001H     ABSOLUTE     
            XDATA   CD62H     0001H     ABSOLUTE     
            XDATA   CD63H     0001H     ABSOLUTE     
                    CD64H     001CH                  *** GAP ***
            XDATA   CD80H     0001H     ABSOLUTE     
                    CD81H     001BH                  *** GAP ***
            XDATA   CD9CH     0001H     ABSOLUTE     
                    CD9DH     0005H                  *** GAP ***
            XDATA   CDA2H     0001H     ABSOLUTE     
                    CDA3H     0003H                  *** GAP ***
            XDATA   CDA6H     0001H     ABSOLUTE     
                    CDA7H     000EH                  *** GAP ***
            XDATA   CDB5H     0001H     ABSOLUTE     
            XDATA   CDB6H     0001H     ABSOLUTE     
                    CDB7H     0002H                  *** GAP ***
            XDATA   CDB9H     0001H     ABSOLUTE     
            XDATA   CDBAH     0001H     ABSOLUTE     
            XDATA   CDBBH     0001H     ABSOLUTE     
            XDATA   CDBCH     0001H     ABSOLUTE     
            XDATA   CDBDH     0001H     ABSOLUTE     
            XDATA   CDBEH     0001H     ABSOLUTE     
                    CDBFH     0001H                  *** GAP ***
            XDATA   CDC0H     0001H     ABSOLUTE     
            XDATA   CDC1H     0001H     ABSOLUTE     
                    CDC2H     0019H                  *** GAP ***
            XDATA   CDDBH     0001H     ABSOLUTE     
            XDATA   CDDCH     0001H     ABSOLUTE     
                    CDDDH     0002H                  *** GAP ***
            XDATA   CDDFH     0001H     ABSOLUTE     
            XDATA   CDE0H     0001H     ABSOLUTE     
                    CDE1H     0002H                  *** GAP ***
            XDATA   CDE3H     0001H     ABSOLUTE     
                    CDE4H     0002H                  *** GAP ***
            XDATA   CDE6H     0001H     ABSOLUTE     
                    CDE7H     0009H                  *** GAP ***
            XDATA   CDF0H     0001H     ABSOLUTE     
                    CDF1H     0007H                  *** GAP ***
            XDATA   CDF8H     0001H     ABSOLUTE     
            XDATA   CDF9H     0001H     ABSOLUTE     
                    CDFAH     002EH                  *** GAP ***
            XDATA   CE28H     0001H     ABSOLUTE     
                    CE29H     000CH                  *** GAP ***
            XDATA   CE35H     0001H     ABSOLUTE     
                    CE36H     0019H                  *** GAP ***
            XDATA   CE4FH     0001H     ABSOLUTE     
                    CE50H     0030H                  *** GAP ***
            XDATA   CE80H     0001H     ABSOLUTE     
            XDATA   CE81H     0001H     ABSOLUTE     
                    CE82H     0001H                  *** GAP ***
            XDATA   CE83H     0001H     ABSOLUTE     
            XDATA   CE84H     0001H     ABSOLUTE     
            XDATA   CE85H     0001H     ABSOLUTE     
            XDATA   CE86H     0001H     ABSOLUTE     
BL51 BANKED LINKER/LOCATER V6.22                                                      06/21/2023  15:37:55  PAGE 16


                    CE87H     0002H                  *** GAP ***
            XDATA   CE89H     0001H     ABSOLUTE     
            XDATA   CE8AH     0001H     ABSOLUTE     
            XDATA   CE8BH     0001H     ABSOLUTE     
                    CE8CH     002AH                  *** GAP ***
            XDATA   CEB6H     0001H     ABSOLUTE     
            XDATA   CEB7H     0001H     ABSOLUTE     
            XDATA   CEB8H     0001H     ABSOLUTE     
                    CEB9H     0002H                  *** GAP ***
            XDATA   CEBBH     0001H     ABSOLUTE     
                    CEBCH     0007H                  *** GAP ***
            XDATA   CEC3H     0001H     ABSOLUTE     
            XDATA   CEC4H     0001H     ABSOLUTE     
            XDATA   CEC5H     0001H     ABSOLUTE     
                    CEC6H     0002H                  *** GAP ***
            XDATA   CEC8H     0001H     ABSOLUTE     
                    CEC9H     0166H                  *** GAP ***
            XDATA   D02FH     0001H     ABSOLUTE     
            XDATA   D030H     0001H     ABSOLUTE     
                    D031H     007EH                  *** GAP ***
            XDATA   D0AFH     0001H     ABSOLUTE     
            XDATA   D0B0H     0001H     ABSOLUTE     
                    D0B1H     0555H                  *** GAP ***
            XDATA   D606H     0001H     ABSOLUTE     
                    D607H     0011H                  *** GAP ***
            XDATA   D618H     0001H     ABSOLUTE     
                    D619H     0115H                  *** GAP ***
            XDATA   D72EH     0001H     ABSOLUTE     
            XDATA   D72FH     0001H     ABSOLUTE     
                    D730H     0007H                  *** GAP ***
            XDATA   D737H     0001H     ABSOLUTE     
                    D738H     046DH                  *** GAP ***
            XDATA   DBA5H     0001H     ABSOLUTE     
                    DBA6H     0026H                  *** GAP ***
            XDATA   DBCCH     0001H     ABSOLUTE     
            XDATA   DBCDH     0001H     ABSOLUTE     
            XDATA   DBCEH     0001H     ABSOLUTE     
            XDATA   DBCFH     0001H     ABSOLUTE     
            XDATA   DBD0H     0001H     ABSOLUTE     
            XDATA   DBD1H     0001H     ABSOLUTE     
            XDATA   DBD2H     0001H     ABSOLUTE     
            XDATA   DBD3H     0001H     ABSOLUTE     
                    DBD4H     0102H                  *** GAP ***
            XDATA   DCD6H     0001H     ABSOLUTE     
                    DCD7H     0334H                  *** GAP ***
            XDATA   E00BH     0001H     ABSOLUTE     
                    E00CH     004CH                  *** GAP ***
            XDATA   E058H     0001H     ABSOLUTE     
            XDATA   E059H     0001H     ABSOLUTE     
            XDATA   E05AH     0001H     ABSOLUTE     
            XDATA   E05BH     0001H     ABSOLUTE     
            XDATA   E05CH     0001H     ABSOLUTE     
            XDATA   E05DH     0001H     ABSOLUTE     
            XDATA   E05EH     0001H     ABSOLUTE     
                    E05FH     0001H                  *** GAP ***
            XDATA   E060H     0001H     ABSOLUTE     
                    E061H     0004H                  *** GAP ***
BL51 BANKED LINKER/LOCATER V6.22                                                      06/21/2023  15:37:55  PAGE 17


            XDATA   E065H     0001H     ABSOLUTE     
            XDATA   E066H     0001H     ABSOLUTE     
            XDATA   E067H     0001H     ABSOLUTE     
            XDATA   E068H     0001H     ABSOLUTE     
            XDATA   E069H     0001H     ABSOLUTE     
            XDATA   E06AH     0001H     ABSOLUTE     
                    E06BH     0015H                  *** GAP ***
            XDATA   E080H     0001H     ABSOLUTE     
            XDATA   E081H     0001H     ABSOLUTE     
            XDATA   E082H     0001H     ABSOLUTE     
            XDATA   E083H     0001H     ABSOLUTE     
            XDATA   E084H     0001H     ABSOLUTE     
            XDATA   E085H     0001H     ABSOLUTE     
            XDATA   E086H     0001H     ABSOLUTE     
            XDATA   E087H     0001H     ABSOLUTE     
            XDATA   E088H     0001H     ABSOLUTE     
            XDATA   E089H     0001H     ABSOLUTE     
            XDATA   E08AH     0001H     ABSOLUTE     
            XDATA   E08BH     0001H     ABSOLUTE     
            XDATA   E08CH     0001H     ABSOLUTE     
            XDATA   E08DH     0001H     ABSOLUTE     
            XDATA   E08EH     0001H     ABSOLUTE     
            XDATA   E08FH     0001H     ABSOLUTE     
            XDATA   E090H     0001H     ABSOLUTE     
            XDATA   E091H     0001H     ABSOLUTE     
            XDATA   E092H     0001H     ABSOLUTE     
            XDATA   E093H     0001H     ABSOLUTE     
            XDATA   E094H     0001H     ABSOLUTE     
            XDATA   E095H     0001H     ABSOLUTE     
            XDATA   E096H     0001H     ABSOLUTE     
            XDATA   E097H     0001H     ABSOLUTE     
            XDATA   E098H     0001H     ABSOLUTE     
            XDATA   E099H     0001H     ABSOLUTE     
            XDATA   E09AH     0001H     ABSOLUTE     
            XDATA   E09BH     0001H     ABSOLUTE     
            XDATA   E09CH     0001H     ABSOLUTE     
            XDATA   E09DH     0001H     ABSOLUTE     
            XDATA   E09EH     0001H     ABSOLUTE     
            XDATA   E09FH     0001H     ABSOLUTE     
            XDATA   E0A0H     0001H     ABSOLUTE     
            XDATA   E0A1H     0001H     ABSOLUTE     
            XDATA   E0A2H     0001H     ABSOLUTE     
            XDATA   E0A3H     0001H     ABSOLUTE     
            XDATA   E0A4H     0001H     ABSOLUTE     
            XDATA   E0A5H     0001H     ABSOLUTE     
            XDATA   E0A6H     0001H     ABSOLUTE     
            XDATA   E0A7H     0001H     ABSOLUTE     
            XDATA   E0A8H     0001H     ABSOLUTE     
            XDATA   E0A9H     0001H     ABSOLUTE     
            XDATA   E0AAH     0001H     ABSOLUTE     
            XDATA   E0ABH     0001H     ABSOLUTE     
            XDATA   E0ACH     0001H     ABSOLUTE     
            XDATA   E0ADH     0001H     ABSOLUTE     
            XDATA   E0AEH     0001H     ABSOLUTE     
            XDATA   E0AFH     0001H     ABSOLUTE     
            XDATA   E0B0H     0001H     ABSOLUTE     
                    E0B1H     003DH                  *** GAP ***
BL51 BANKED LINKER/LOCATER V6.22                                                      06/21/2023  15:37:55  PAGE 18


            XDATA   E0EEH     0001H     ABSOLUTE     
                    E0EFH     0014H                  *** GAP ***
            XDATA   E103H     0001H     ABSOLUTE     
                    E104H     0001H                  *** GAP ***
            XDATA   E105H     0001H     ABSOLUTE     
            XDATA   E106H     0001H     ABSOLUTE     
            XDATA   E107H     0001H     ABSOLUTE     
            XDATA   E108H     0001H     ABSOLUTE     
            XDATA   E109H     0001H     ABSOLUTE     
            XDATA   E10AH     0001H     ABSOLUTE     
            XDATA   E10BH     0001H     ABSOLUTE     
            XDATA   E10CH     0001H     ABSOLUTE     
            XDATA   E10DH     0001H     ABSOLUTE     
            XDATA   E10EH     0001H     ABSOLUTE     
            XDATA   E10FH     0001H     ABSOLUTE     
                    E110H     0010H                  *** GAP ***
            XDATA   E120H     0001H     ABSOLUTE     
            XDATA   E121H     0001H     ABSOLUTE     
            XDATA   E122H     0001H     ABSOLUTE     
            XDATA   E123H     0001H     ABSOLUTE     
            XDATA   E124H     0001H     ABSOLUTE     
            XDATA   E125H     0001H     ABSOLUTE     
            XDATA   E126H     0001H     ABSOLUTE     
            XDATA   E127H     0001H     ABSOLUTE     
            XDATA   E128H     0001H     ABSOLUTE     
            XDATA   E129H     0001H     ABSOLUTE     
            XDATA   E12AH     0001H     ABSOLUTE     
            XDATA   E12BH     0001H     ABSOLUTE     
            XDATA   E12CH     0001H     ABSOLUTE     
            XDATA   E12DH     0001H     ABSOLUTE     
            XDATA   E12EH     0001H     ABSOLUTE     
            XDATA   E12FH     0001H     ABSOLUTE     
            XDATA   E130H     0001H     ABSOLUTE     
            XDATA   E131H     0001H     ABSOLUTE     
            XDATA   E132H     0001H     ABSOLUTE     
            XDATA   E133H     0001H     ABSOLUTE     
            XDATA   E134H     0001H     ABSOLUTE     
            XDATA   E135H     0001H     ABSOLUTE     
            XDATA   E136H     0001H     ABSOLUTE     
            XDATA   E137H     0001H     ABSOLUTE     
            XDATA   E138H     0001H     ABSOLUTE     
                    E139H     0007H                  *** GAP ***
            XDATA   E140H     0001H     ABSOLUTE     
            XDATA   E141H     0001H     ABSOLUTE     
                    E142H     00BEH                  *** GAP ***
            XDATA   E200H     0001H     ABSOLUTE     
            XDATA   E201H     0001H     ABSOLUTE     
                    E202H     0003H                  *** GAP ***
            XDATA   E205H     0001H     ABSOLUTE     
                    E206H     0001H                  *** GAP ***
            XDATA   E207H     0001H     ABSOLUTE     
            XDATA   E208H     0001H     ABSOLUTE     
            XDATA   E209H     0001H     ABSOLUTE     
                    E20AH     0003H                  *** GAP ***
            XDATA   E20DH     0001H     ABSOLUTE     
            XDATA   E20EH     0001H     ABSOLUTE     
            XDATA   E20FH     0001H     ABSOLUTE     
BL51 BANKED LINKER/LOCATER V6.22                                                      06/21/2023  15:37:55  PAGE 19


            XDATA   E210H     0001H     ABSOLUTE     
            XDATA   E211H     0001H     ABSOLUTE     
            XDATA   E212H     0001H     ABSOLUTE     
                    E213H     0006H                  *** GAP ***
            XDATA   E219H     0001H     ABSOLUTE     
                    E21AH     0006H                  *** GAP ***
            XDATA   E220H     0001H     ABSOLUTE     
                    E221H     0001H                  *** GAP ***
            XDATA   E222H     0001H     ABSOLUTE     
                    E223H     0005H                  *** GAP ***
            XDATA   E228H     0001H     ABSOLUTE     
                    E229H     0001H                  *** GAP ***
            XDATA   E22AH     0001H     ABSOLUTE     
                    E22BH     0012H                  *** GAP ***
            XDATA   E23DH     0001H     ABSOLUTE     
                    E23EH     0009H                  *** GAP ***
            XDATA   E247H     0001H     ABSOLUTE     
                    E248H     0006H                  *** GAP ***
            XDATA   E24EH     0001H     ABSOLUTE     
            XDATA   E24FH     0001H     ABSOLUTE     
            XDATA   E250H     0001H     ABSOLUTE     
                    E251H     0012H                  *** GAP ***
            XDATA   E263H     0001H     ABSOLUTE     
                    E264H     0009H                  *** GAP ***
            XDATA   E26DH     0001H     ABSOLUTE     
                    E26EH     0006H                  *** GAP ***
            XDATA   E274H     0001H     ABSOLUTE     
                    E275H     0014H                  *** GAP ***
            XDATA   E289H     0001H     ABSOLUTE     
                    E28AH     0009H                  *** GAP ***
            XDATA   E293H     0001H     ABSOLUTE     
                    E294H     0008H                  *** GAP ***
            XDATA   E29CH     0001H     ABSOLUTE     
                    E29DH     0004H                  *** GAP ***
            XDATA   E2A1H     0001H     ABSOLUTE     
            XDATA   E2A2H     0001H     ABSOLUTE     
                    E2A3H     0014H                  *** GAP ***
            XDATA   E2B7H     0001H     ABSOLUTE     
                    E2B8H     000AH                  *** GAP ***
            XDATA   E2C2H     0001H     ABSOLUTE     
            XDATA   E2C3H     0001H     ABSOLUTE     
            XDATA   E2C4H     0001H     ABSOLUTE     
            XDATA   E2C5H     0001H     ABSOLUTE     
                    E2C6H     003AH                  *** GAP ***
            XDATA   E300H     0001H     ABSOLUTE     
            XDATA   E301H     0001H     ABSOLUTE     
                    E302H     0001H                  *** GAP ***
            XDATA   E303H     0001H     ABSOLUTE     
                    E304H     0005H                  *** GAP ***
            XDATA   E309H     0001H     ABSOLUTE     
            XDATA   E30AH     0001H     ABSOLUTE     
            XDATA   E30BH     0001H     ABSOLUTE     
            XDATA   E30CH     0001H     ABSOLUTE     
            XDATA   E30DH     0001H     ABSOLUTE     
            XDATA   E30EH     0001H     ABSOLUTE     
            XDATA   E30FH     0001H     ABSOLUTE     
            XDATA   E310H     0001H     ABSOLUTE     
BL51 BANKED LINKER/LOCATER V6.22                                                      06/21/2023  15:37:55  PAGE 20


            XDATA   E311H     0001H     ABSOLUTE     
            XDATA   E312H     0001H     ABSOLUTE     
            XDATA   E313H     0001H     ABSOLUTE     
            XDATA   E314H     0001H     ABSOLUTE     
            XDATA   E315H     0001H     ABSOLUTE     
            XDATA   E316H     0001H     ABSOLUTE     
            XDATA   E317H     0001H     ABSOLUTE     
            XDATA   E318H     0001H     ABSOLUTE     
            XDATA   E319H     0001H     ABSOLUTE     
            XDATA   E31AH     0001H     ABSOLUTE     
            XDATA   E31BH     0001H     ABSOLUTE     
            XDATA   E31CH     0001H     ABSOLUTE     
            XDATA   E31DH     0001H     ABSOLUTE     
            XDATA   E31EH     0001H     ABSOLUTE     
            XDATA   E31FH     0001H     ABSOLUTE     
            XDATA   E320H     0001H     ABSOLUTE     
            XDATA   E321H     0001H     ABSOLUTE     
            XDATA   E322H     0001H     ABSOLUTE     
            XDATA   E323H     0001H     ABSOLUTE     
            XDATA   E324H     0001H     ABSOLUTE     
                    E325H     0006H                  *** GAP ***
            XDATA   E32BH     0001H     ABSOLUTE     
            XDATA   E32CH     0001H     ABSOLUTE     
                    E32DH     0001H                  *** GAP ***
            XDATA   E32EH     0001H     ABSOLUTE     
            XDATA   E32FH     0001H     ABSOLUTE     
            XDATA   E330H     0001H     ABSOLUTE     
                    E331H     0007H                  *** GAP ***
            XDATA   E338H     0001H     ABSOLUTE     
                    E339H     0015H                  *** GAP ***
            XDATA   E34EH     0001H     ABSOLUTE     
                    E34FH     0009H                  *** GAP ***
            XDATA   E358H     0001H     ABSOLUTE     
                    E359H     0009H                  *** GAP ***
            XDATA   E362H     0001H     ABSOLUTE     
                    E363H     001CH                  *** GAP ***
            XDATA   E37FH     0001H     ABSOLUTE     
            XDATA   E380H     0001H     ABSOLUTE     
            XDATA   E381H     0001H     ABSOLUTE     
            XDATA   E382H     0001H     ABSOLUTE     
                    E383H     0001H                  *** GAP ***
            XDATA   E384H     0001H     ABSOLUTE     
            XDATA   E385H     0001H     ABSOLUTE     
                    E386H     0001H                  *** GAP ***
            XDATA   E387H     0001H     ABSOLUTE     
            XDATA   E388H     0001H     ABSOLUTE     
            XDATA   E389H     0001H     ABSOLUTE     
            XDATA   E38AH     0001H     ABSOLUTE     
                    E38BH     0006H                  *** GAP ***
            XDATA   E391H     0001H     ABSOLUTE     
            XDATA   E392H     0001H     ABSOLUTE     
                    E393H     016DH                  *** GAP ***
            XDATA   E500H     0001H     ABSOLUTE     
            XDATA   E501H     0001H     ABSOLUTE     
                    E502H     0004H                  *** GAP ***
            XDATA   E506H     0001H     ABSOLUTE     
                    E507H     0004H                  *** GAP ***
BL51 BANKED LINKER/LOCATER V6.22                                                      06/21/2023  15:37:55  PAGE 21


            XDATA   E50BH     0001H     ABSOLUTE     
                    E50CH     0004H                  *** GAP ***
            XDATA   E510H     0001H     ABSOLUTE     
                    E511H     0001H                  *** GAP ***
            XDATA   E512H     0001H     ABSOLUTE     
                    E513H     001DH                  *** GAP ***
            XDATA   E530H     0001H     ABSOLUTE     
            XDATA   E531H     0001H     ABSOLUTE     
            XDATA   E532H     0001H     ABSOLUTE     
                    E533H     0002H                  *** GAP ***
            XDATA   E535H     0001H     ABSOLUTE     
            XDATA   E536H     0001H     ABSOLUTE     
                    E537H     0004H                  *** GAP ***
            XDATA   E53BH     0001H     ABSOLUTE     
                    E53CH     0004H                  *** GAP ***
            XDATA   E540H     0001H     ABSOLUTE     
            XDATA   E541H     0001H     ABSOLUTE     
            XDATA   E542H     0001H     ABSOLUTE     
                    E543H     0002H                  *** GAP ***
            XDATA   E545H     0001H     ABSOLUTE     
            XDATA   E546H     0001H     ABSOLUTE     
                    E547H     0004H                  *** GAP ***
            XDATA   E54BH     0001H     ABSOLUTE     
                    E54CH     0004H                  *** GAP ***
            XDATA   E550H     0001H     ABSOLUTE     
                    E551H     0002H                  *** GAP ***
            XDATA   E553H     0001H     ABSOLUTE     
                    E554H     0001H                  *** GAP ***
            XDATA   E555H     0001H     ABSOLUTE     
            XDATA   E556H     0001H     ABSOLUTE     
                    E557H     0004H                  *** GAP ***
            XDATA   E55BH     0001H     ABSOLUTE     
                    E55CH     000FH                  *** GAP ***
            XDATA   E56BH     0001H     ABSOLUTE     
                    E56CH     0014H                  *** GAP ***
            XDATA   E580H     0001H     ABSOLUTE     
            XDATA   E581H     0001H     ABSOLUTE     
                    E582H     0006H                  *** GAP ***
            XDATA   E588H     0001H     ABSOLUTE     
                    E589H     0017H                  *** GAP ***
            XDATA   E5A0H     0001H     ABSOLUTE     
            XDATA   E5A1H     0001H     ABSOLUTE     
            XDATA   E5A2H     0001H     ABSOLUTE     
            XDATA   E5A3H     0001H     ABSOLUTE     
                    E5A4H     0001H                  *** GAP ***
            XDATA   E5A5H     0001H     ABSOLUTE     
                    E5A6H     006AH                  *** GAP ***
            XDATA   E610H     0001H     ABSOLUTE     
                    E611H     004FH                  *** GAP ***
            XDATA   E660H     0001H     ABSOLUTE     
            XDATA   E661H     0001H     ABSOLUTE     
                    E662H     000EH                  *** GAP ***
            XDATA   E670H     0001H     ABSOLUTE     
            XDATA   E671H     0001H     ABSOLUTE     
                    E672H     001EH                  *** GAP ***
            XDATA   E690H     0001H     ABSOLUTE     
                    E691H     0003H                  *** GAP ***
BL51 BANKED LINKER/LOCATER V6.22                                                      06/21/2023  15:37:55  PAGE 22


            XDATA   E694H     0001H     ABSOLUTE     
                    E695H     0001H                  *** GAP ***
            XDATA   E696H     0001H     ABSOLUTE     
            XDATA   E697H     0001H     ABSOLUTE     
            XDATA   E698H     0001H     ABSOLUTE     
            XDATA   E699H     0001H     ABSOLUTE     
            XDATA   E69AH     0001H     ABSOLUTE     
                    E69BH     0028H                  *** GAP ***
            XDATA   E6C3H     0001H     ABSOLUTE     
                    E6C4H     0003H                  *** GAP ***
            XDATA   E6C7H     0001H     ABSOLUTE     
            XDATA   E6C8H     0001H     ABSOLUTE     
                    E6C9H     0001H                  *** GAP ***
            XDATA   E6CAH     0001H     ABSOLUTE     
                    E6CBH     0009H                  *** GAP ***
            XDATA   E6D4H     0001H     ABSOLUTE     
                    E6D5H     0008H                  *** GAP ***
            XDATA   E6DDH     0001H     ABSOLUTE     
                    E6DEH     000BH                  *** GAP ***
            XDATA   E6E9H     0001H     ABSOLUTE     
            XDATA   E6EAH     0001H     ABSOLUTE     
            XDATA   E6EBH     0001H     ABSOLUTE     
            XDATA   E6ECH     0001H     ABSOLUTE     
            XDATA   E6EDH     0001H     ABSOLUTE     
            XDATA   E6EEH     0001H     ABSOLUTE     
                    E6EFH     0011H                  *** GAP ***
            XDATA   E700H     0001H     ABSOLUTE     
                    E701H     0001H                  *** GAP ***
            XDATA   E702H     0001H     ABSOLUTE     
                    E703H     0001H                  *** GAP ***
            XDATA   E704H     0001H     ABSOLUTE     
                    E705H     0001H                  *** GAP ***
            XDATA   E706H     0001H     ABSOLUTE     
                    E707H     0010H                  *** GAP ***
            XDATA   E717H     0001H     ABSOLUTE     
                    E718H     01ECH                  *** GAP ***
            XDATA   E904H     0001H     ABSOLUTE     
                    E905H     0002H                  *** GAP ***
            XDATA   E907H     0001H     ABSOLUTE     
            XDATA   E908H     0001H     ABSOLUTE     
                    E909H     000DH                  *** GAP ***
            XDATA   E916H     0001H     ABSOLUTE     
                    E917H     0003H                  *** GAP ***
            XDATA   E91AH     0001H     ABSOLUTE     
            XDATA   E91BH     0001H     ABSOLUTE     
                    E91CH     0005H                  *** GAP ***
            XDATA   E921H     0001H     ABSOLUTE     
            XDATA   E922H     0001H     ABSOLUTE     
                    E923H     0002H                  *** GAP ***
            XDATA   E925H     0001H     ABSOLUTE     
                    E926H     0003H                  *** GAP ***
            XDATA   E929H     0001H     ABSOLUTE     
                    E92AH     0001H                  *** GAP ***
            XDATA   E92BH     0001H     ABSOLUTE     
            XDATA   E92CH     0001H     ABSOLUTE     
            XDATA   E92DH     0001H     ABSOLUTE     
                    E92EH     0053H                  *** GAP ***
BL51 BANKED LINKER/LOCATER V6.22                                                      06/21/2023  15:37:55  PAGE 23


            XDATA   E981H     0001H     ABSOLUTE     
                    E982H     0001H                  *** GAP ***
            XDATA   E983H     0001H     ABSOLUTE     
            XDATA   E984H     0001H     ABSOLUTE     
            XDATA   E985H     0001H     ABSOLUTE     
                    E986H     0003H                  *** GAP ***
            XDATA   E989H     0001H     ABSOLUTE     
                    E98AH     0003H                  *** GAP ***
            XDATA   E98DH     0001H     ABSOLUTE     
                    E98EH     0001H                  *** GAP ***
            XDATA   E98FH     0001H     ABSOLUTE     
            XDATA   E990H     0001H     ABSOLUTE     
                    E991H     0003H                  *** GAP ***
            XDATA   E994H     0001H     ABSOLUTE     
                    E995H     000BH                  *** GAP ***
            XDATA   E9A0H     0001H     ABSOLUTE     
                    E9A1H     0002H                  *** GAP ***
            XDATA   E9A3H     0001H     ABSOLUTE     
                    E9A4H     0001H                  *** GAP ***
            XDATA   E9A5H     0001H     ABSOLUTE     
                    E9A6H     0009H                  *** GAP ***
            XDATA   E9AFH     0001H     ABSOLUTE     
            XDATA   E9B0H     0001H     ABSOLUTE     
            XDATA   E9B1H     0001H     ABSOLUTE     
            XDATA   E9B2H     0001H     ABSOLUTE     
            XDATA   E9B3H     0001H     ABSOLUTE     
                    E9B4H     0001H                  *** GAP ***
            XDATA   E9B5H     0001H     ABSOLUTE     
            XDATA   E9B6H     0001H     ABSOLUTE     
                    E9B7H     0003H                  *** GAP ***
            XDATA   E9BAH     0001H     ABSOLUTE     
            XDATA   E9BBH     0001H     ABSOLUTE     
            XDATA   E9BCH     0001H     ABSOLUTE     
            XDATA   E9BDH     0001H     ABSOLUTE     
            XDATA   E9BEH     0001H     ABSOLUTE     
                    E9BFH     0004H                  *** GAP ***
            XDATA   E9C3H     0001H     ABSOLUTE     
                    E9C4H     0003H                  *** GAP ***
            XDATA   E9C7H     0001H     ABSOLUTE     
                    E9C8H     0001H                  *** GAP ***
            XDATA   E9C9H     0001H     ABSOLUTE     
            XDATA   E9CAH     0001H     ABSOLUTE     
            XDATA   E9CBH     0001H     ABSOLUTE     
                    E9CCH     0009H                  *** GAP ***
            XDATA   E9D5H     0001H     ABSOLUTE     
            XDATA   E9D6H     0001H     ABSOLUTE     
                    E9D7H     0006H                  *** GAP ***
            XDATA   E9DDH     0001H     ABSOLUTE     
            XDATA   E9DEH     0001H     ABSOLUTE     
            XDATA   E9DFH     0001H     ABSOLUTE     
            XDATA   E9E0H     0001H     ABSOLUTE     
            XDATA   E9E1H     0001H     ABSOLUTE     
            XDATA   E9E2H     0001H     ABSOLUTE     
            XDATA   E9E3H     0001H     ABSOLUTE     
                    E9E4H     001DH                  *** GAP ***
            XDATA   EA01H     0001H     ABSOLUTE     
                    EA02H     0001H                  *** GAP ***
BL51 BANKED LINKER/LOCATER V6.22                                                      06/21/2023  15:37:55  PAGE 24


            XDATA   EA03H     0001H     ABSOLUTE     
            XDATA   EA04H     0001H     ABSOLUTE     
            XDATA   EA05H     0001H     ABSOLUTE     
                    EA06H     0006H                  *** GAP ***
            XDATA   EA0CH     0001H     ABSOLUTE     
                    EA0DH     000AH                  *** GAP ***
            XDATA   EA17H     0001H     ABSOLUTE     
            XDATA   EA18H     0001H     ABSOLUTE     
            XDATA   EA19H     0001H     ABSOLUTE     
            XDATA   EA1AH     0001H     ABSOLUTE     
            XDATA   EA1BH     0001H     ABSOLUTE     
            XDATA   EA1CH     0001H     ABSOLUTE     
            XDATA   EA1DH     0001H     ABSOLUTE     
                    EA1EH     0012H                  *** GAP ***
            XDATA   EA30H     0001H     ABSOLUTE     
            XDATA   EA31H     0001H     ABSOLUTE     
            XDATA   EA32H     0001H     ABSOLUTE     
            XDATA   EA33H     0001H     ABSOLUTE     
            XDATA   EA34H     0001H     ABSOLUTE     
                    EA35H     0010H                  *** GAP ***
            XDATA   EA45H     0001H     ABSOLUTE     
                    EA46H     0009H                  *** GAP ***
            XDATA   EA4FH     0001H     ABSOLUTE     
                    EA50H     0009H                  *** GAP ***
            XDATA   EA59H     0001H     ABSOLUTE     
                    EA5AH     00ACH                  *** GAP ***
            XDATA   EB06H     0001H     ABSOLUTE     
                    EB07H     0006H                  *** GAP ***
            XDATA   EB0DH     0001H     ABSOLUTE     
                    EB0EH     0003H                  *** GAP ***
            XDATA   EB11H     0001H     ABSOLUTE     
                    EB12H     0006H                  *** GAP ***
            XDATA   EB18H     0001H     ABSOLUTE     
            XDATA   EB19H     0001H     ABSOLUTE     
                    EB1AH     0025H                  *** GAP ***
            XDATA   EB3FH     0001H     ABSOLUTE     
                    EB40H     0003H                  *** GAP ***
            XDATA   EB43H     0001H     ABSOLUTE     
            XDATA   EB44H     0001H     ABSOLUTE     
            XDATA   EB45H     0001H     ABSOLUTE     
            XDATA   EB46H     0001H     ABSOLUTE     
            XDATA   EB47H     0001H     ABSOLUTE     
            XDATA   EB48H     0001H     ABSOLUTE     
            XDATA   EB49H     0001H     ABSOLUTE     
            XDATA   EB4AH     0001H     ABSOLUTE     
            XDATA   EB4BH     0001H     ABSOLUTE     
            XDATA   EB4CH     0001H     ABSOLUTE     
            XDATA   EB4DH     0001H     ABSOLUTE     
            XDATA   EB4EH     0001H     ABSOLUTE     
            XDATA   EB4FH     0001H     ABSOLUTE     
            XDATA   EB50H     0001H     ABSOLUTE     
            XDATA   EB51H     0001H     ABSOLUTE     
            XDATA   EB52H     0001H     ABSOLUTE     
            XDATA   EB53H     0001H     ABSOLUTE     
            XDATA   EB54H     0001H     ABSOLUTE     
            XDATA   EB55H     0001H     ABSOLUTE     
            XDATA   EB56H     0001H     ABSOLUTE     
BL51 BANKED LINKER/LOCATER V6.22                                                      06/21/2023  15:37:55  PAGE 25


                    EB57H     0009H                  *** GAP ***
            XDATA   EB60H     0001H     ABSOLUTE     
            XDATA   EB61H     0001H     ABSOLUTE     
            XDATA   EB62H     0001H     ABSOLUTE     
            XDATA   EB63H     0001H     ABSOLUTE     
            XDATA   EB64H     0001H     ABSOLUTE     
            XDATA   EB65H     0001H     ABSOLUTE     
            XDATA   EB66H     0001H     ABSOLUTE     
            XDATA   EB67H     0001H     ABSOLUTE     
            XDATA   EB68H     0001H     ABSOLUTE     
                    EB69H     000AH                  *** GAP ***
            XDATA   EB73H     0001H     ABSOLUTE     
            XDATA   EB74H     0001H     ABSOLUTE     
            XDATA   EB75H     0001H     ABSOLUTE     
            XDATA   EB76H     0001H     ABSOLUTE     
            XDATA   EB77H     0001H     ABSOLUTE     
            XDATA   EB78H     0001H     ABSOLUTE     
            XDATA   EB79H     0001H     ABSOLUTE     
            XDATA   EB7AH     0001H     ABSOLUTE     
            XDATA   EB7BH     0001H     ABSOLUTE     
                    EB7CH     0035H                  *** GAP ***
            XDATA   EBB1H     0001H     ABSOLUTE     
            XDATA   EBB2H     0001H     ABSOLUTE     
            XDATA   EBB3H     0001H     ABSOLUTE     
            XDATA   EBB4H     0001H     ABSOLUTE     
            XDATA   EBB5H     0001H     ABSOLUTE     
            XDATA   EBB6H     0001H     ABSOLUTE     
            XDATA   EBB7H     0001H     ABSOLUTE     
            XDATA   EBB8H     0001H     ABSOLUTE     
            XDATA   EBB9H     0001H     ABSOLUTE     
                    EBBAH     0049H                  *** GAP ***
            XDATA   EC03H     0001H     ABSOLUTE     
                    EC04H     0009H                  *** GAP ***
            XDATA   EC0DH     0001H     ABSOLUTE     
            XDATA   EC0EH     0001H     ABSOLUTE     
            XDATA   EC0FH     0001H     ABSOLUTE     
                    EC10H     0006H                  *** GAP ***
            XDATA   EC16H     0001H     ABSOLUTE     
            XDATA   EC17H     0001H     ABSOLUTE     
                    EC18H     0010H                  *** GAP ***
            XDATA   EC28H     0001H     ABSOLUTE     
            XDATA   EC29H     0001H     ABSOLUTE     
            XDATA   EC2AH     0001H     ABSOLUTE     
            XDATA   EC2BH     0001H     ABSOLUTE     
            XDATA   EC2CH     0001H     ABSOLUTE     
            XDATA   EC2DH     0001H     ABSOLUTE     
                    EC2EH     0015H                  *** GAP ***
            XDATA   EC43H     0001H     ABSOLUTE     
                    EC44H     00BCH                  *** GAP ***
            XDATA   ED00H     0001H     ABSOLUTE     
            XDATA   ED01H     0001H     ABSOLUTE     
            XDATA   ED02H     0001H     ABSOLUTE     
                    ED03H     0005H                  *** GAP ***
            XDATA   ED08H     0001H     ABSOLUTE     
            XDATA   ED09H     0001H     ABSOLUTE     
            XDATA   ED0AH     0001H     ABSOLUTE     
                    ED0BH     0005H                  *** GAP ***
BL51 BANKED LINKER/LOCATER V6.22                                                      06/21/2023  15:37:55  PAGE 26


            XDATA   ED10H     0001H     ABSOLUTE     
            XDATA   ED11H     0001H     ABSOLUTE     
                    ED12H     000EH                  *** GAP ***
            XDATA   ED20H     0001H     ABSOLUTE     
            XDATA   ED21H     0001H     ABSOLUTE     
            XDATA   ED22H     0001H     ABSOLUTE     
            XDATA   ED23H     0001H     ABSOLUTE     
                    ED24H     000CH                  *** GAP ***
            XDATA   ED30H     0001H     ABSOLUTE     
                    ED31H     0001H                  *** GAP ***
            XDATA   ED32H     0001H     ABSOLUTE     
                    ED33H     0005H                  *** GAP ***
            XDATA   ED38H     0001H     ABSOLUTE     
            XDATA   ED39H     0001H     ABSOLUTE     
                    ED3AH     0001H                  *** GAP ***
            XDATA   ED3BH     0001H     ABSOLUTE     
            XDATA   ED3CH     0001H     ABSOLUTE     
            XDATA   ED3DH     0001H     ABSOLUTE     
            XDATA   ED3EH     0001H     ABSOLUTE     
                    ED3FH     00C1H                  *** GAP ***
            XDATA   EE00H     0001H     ABSOLUTE     
                    EE01H     0002H                  *** GAP ***
            XDATA   EE03H     0001H     ABSOLUTE     
            XDATA   EE04H     0001H     ABSOLUTE     
            XDATA   EE05H     0001H     ABSOLUTE     
                    EE06H     0002H                  *** GAP ***
            XDATA   EE08H     0001H     ABSOLUTE     
            XDATA   EE09H     0001H     ABSOLUTE     
            XDATA   EE0AH     0001H     ABSOLUTE     
            XDATA   EE0BH     0001H     ABSOLUTE     
            XDATA   EE0CH     0001H     ABSOLUTE     
            XDATA   EE0DH     0001H     ABSOLUTE     
            XDATA   EE0EH     0001H     ABSOLUTE     
            XDATA   EE0FH     0001H     ABSOLUTE     
                    EE10H     0048H                  *** GAP ***
            XDATA   EE58H     0001H     ABSOLUTE     
                    EE59H     0027H                  *** GAP ***
            XDATA   EE80H     0001H     ABSOLUTE     
            XDATA   EE81H     0001H     ABSOLUTE     
            XDATA   EE82H     0001H     ABSOLUTE     
            XDATA   EE83H     0001H     ABSOLUTE     
            XDATA   EE84H     0001H     ABSOLUTE     
            XDATA   EE85H     0001H     ABSOLUTE     
                    EE86H     0001H                  *** GAP ***
            XDATA   EE87H     0001H     ABSOLUTE     
            XDATA   EE88H     0001H     ABSOLUTE     
            XDATA   EE89H     0001H     ABSOLUTE     
                    EE8AH     0001H                  *** GAP ***
            XDATA   EE8BH     0001H     ABSOLUTE     
            XDATA   EE8CH     0001H     ABSOLUTE     
            XDATA   EE8DH     0001H     ABSOLUTE     
            XDATA   EE8EH     0001H     ABSOLUTE     
            XDATA   EE8FH     0001H     ABSOLUTE     
            XDATA   EE90H     0001H     ABSOLUTE     
            XDATA   EE91H     0001H     ABSOLUTE     
            XDATA   EE92H     0001H     ABSOLUTE     
            XDATA   EE93H     0001H     ABSOLUTE     
BL51 BANKED LINKER/LOCATER V6.22                                                      06/21/2023  15:37:55  PAGE 27


                    EE94H     0002H                  *** GAP ***
            XDATA   EE96H     0001H     ABSOLUTE     
            XDATA   EE97H     0001H     ABSOLUTE     
            XDATA   EE98H     0001H     ABSOLUTE     
                    EE99H     0001H                  *** GAP ***
            XDATA   EE9AH     0001H     ABSOLUTE     
            XDATA   EE9BH     0001H     ABSOLUTE     
            XDATA   EE9CH     0001H     ABSOLUTE     
                    EE9DH     0002H                  *** GAP ***
            XDATA   EE9FH     0001H     ABSOLUTE     
            XDATA   EEA0H     0001H     ABSOLUTE     
            XDATA   EEA1H     0001H     ABSOLUTE     
            XDATA   EEA2H     0001H     ABSOLUTE     
            XDATA   EEA3H     0001H     ABSOLUTE     
                    EEA4H     0002H                  *** GAP ***
            XDATA   EEA6H     0001H     ABSOLUTE     
            XDATA   EEA7H     0001H     ABSOLUTE     
                    EEA8H     0001H                  *** GAP ***
            XDATA   EEA9H     0001H     ABSOLUTE     
            XDATA   EEAAH     0001H     ABSOLUTE     
            XDATA   EEABH     0001H     ABSOLUTE     
            XDATA   EEACH     0001H     ABSOLUTE     
            XDATA   EEADH     0001H     ABSOLUTE     
                    EEAEH     0043H                  *** GAP ***
            XDATA   EEF1H     0001H     ABSOLUTE     
            XDATA   EEF2H     0001H     ABSOLUTE     
            XDATA   EEF3H     0001H     ABSOLUTE     
            XDATA   EEF4H     0001H     ABSOLUTE     
            XDATA   EEF5H     0001H     ABSOLUTE     
            XDATA   EEF6H     0001H     ABSOLUTE     
            XDATA   EEF7H     0001H     ABSOLUTE     
            XDATA   EEF8H     0001H     ABSOLUTE     
                    EEF9H     0007H                  *** GAP ***
            XDATA   EF00H     0001H     ABSOLUTE     
                    EF01H     0002H                  *** GAP ***
            XDATA   EF03H     0001H     ABSOLUTE     
            XDATA   EF04H     0001H     ABSOLUTE     
            XDATA   EF05H     0001H     ABSOLUTE     
            XDATA   EF06H     0001H     ABSOLUTE     
            XDATA   EF07H     0001H     ABSOLUTE     
            XDATA   EF08H     0001H     ABSOLUTE     
            XDATA   EF09H     0001H     ABSOLUTE     
            XDATA   EF0AH     0001H     ABSOLUTE     
            XDATA   EF0BH     0001H     ABSOLUTE     
            XDATA   EF0CH     0001H     ABSOLUTE     
            XDATA   EF0DH     0001H     ABSOLUTE     
            XDATA   EF0EH     0001H     ABSOLUTE     
            XDATA   EF0FH     0001H     ABSOLUTE     
            XDATA   EF10H     0001H     ABSOLUTE     
            XDATA   EF11H     0001H     ABSOLUTE     
            XDATA   EF12H     0001H     ABSOLUTE     
            XDATA   EF13H     0001H     ABSOLUTE     
                    EF14H     0001H                  *** GAP ***
            XDATA   EF15H     0001H     ABSOLUTE     
            XDATA   EF16H     0001H     ABSOLUTE     
            XDATA   EF17H     0001H     ABSOLUTE     
            XDATA   EF18H     0001H     ABSOLUTE     
BL51 BANKED LINKER/LOCATER V6.22                                                      06/21/2023  15:37:55  PAGE 28


            XDATA   EF19H     0001H     ABSOLUTE     
                    EF1AH     0002H                  *** GAP ***
            XDATA   EF1CH     0001H     ABSOLUTE     
            XDATA   EF1DH     0001H     ABSOLUTE     
            XDATA   EF1EH     0001H     ABSOLUTE     
            XDATA   EF1FH     0001H     ABSOLUTE     
            XDATA   EF20H     0001H     ABSOLUTE     
            XDATA   EF21H     0001H     ABSOLUTE     
            XDATA   EF22H     0001H     ABSOLUTE     
            XDATA   EF23H     0001H     ABSOLUTE     
                    EF24H     0016H                  *** GAP ***
            XDATA   EF3AH     0001H     ABSOLUTE     
            XDATA   EF3BH     0001H     ABSOLUTE     
            XDATA   EF3CH     0001H     ABSOLUTE     
            XDATA   EF3DH     0001H     ABSOLUTE     
            XDATA   EF3EH     0001H     ABSOLUTE     
            XDATA   EF3FH     0001H     ABSOLUTE     
            XDATA   EF40H     0001H     ABSOLUTE     
            XDATA   EF41H     0001H     ABSOLUTE     
            XDATA   EF42H     0001H     ABSOLUTE     
            XDATA   EF43H     0001H     ABSOLUTE     
            XDATA   EF44H     0001H     ABSOLUTE     
            XDATA   EF45H     0001H     ABSOLUTE     
            XDATA   EF46H     0001H     ABSOLUTE     
            XDATA   EF47H     0001H     ABSOLUTE     
            XDATA   EF48H     0001H     ABSOLUTE     
            XDATA   EF49H     0001H     ABSOLUTE     
            XDATA   EF4AH     0001H     ABSOLUTE     
            XDATA   EF4BH     0001H     ABSOLUTE     
            XDATA   EF4CH     0001H     ABSOLUTE     
            XDATA   EF4DH     0001H     ABSOLUTE     
            XDATA   EF4EH     0001H     ABSOLUTE     
            XDATA   EF4FH     0001H     ABSOLUTE     
            XDATA   EF50H     0001H     ABSOLUTE     
            XDATA   EF51H     0001H     ABSOLUTE     
            XDATA   EF52H     0001H     ABSOLUTE     
            XDATA   EF53H     0001H     ABSOLUTE     
            XDATA   EF54H     0001H     ABSOLUTE     
            XDATA   EF55H     0001H     ABSOLUTE     
            XDATA   EF56H     0001H     ABSOLUTE     
            XDATA   EF57H     0001H     ABSOLUTE     
            XDATA   EF58H     0001H     ABSOLUTE     
            XDATA   EF59H     0001H     ABSOLUTE     
            XDATA   EF5AH     0001H     ABSOLUTE     
            XDATA   EF5BH     0001H     ABSOLUTE     
            XDATA   EF5CH     0001H     ABSOLUTE     
            XDATA   EF5DH     0001H     ABSOLUTE     
                    EF5EH     0022H                  *** GAP ***
            XDATA   EF80H     0001H     ABSOLUTE     
            XDATA   EF81H     0001H     ABSOLUTE     
            XDATA   EF82H     0001H     ABSOLUTE     
            XDATA   EF83H     0001H     ABSOLUTE     
            XDATA   EF84H     0001H     ABSOLUTE     
                    EF85H     0002H                  *** GAP ***
            XDATA   EF87H     0001H     ABSOLUTE     
            XDATA   EF88H     0001H     ABSOLUTE     
            XDATA   EF89H     0001H     ABSOLUTE     
BL51 BANKED LINKER/LOCATER V6.22                                                      06/21/2023  15:37:55  PAGE 29


                    EF8AH     0001H                  *** GAP ***
            XDATA   EF8BH     0001H     ABSOLUTE     
            XDATA   EF8CH     0001H     ABSOLUTE     
            XDATA   EF8DH     0001H     ABSOLUTE     
            XDATA   EF8EH     0001H     ABSOLUTE     
            XDATA   EF8FH     0001H     ABSOLUTE     
            XDATA   EF90H     0001H     ABSOLUTE     
            XDATA   EF91H     0001H     ABSOLUTE     
            XDATA   EF92H     0001H     ABSOLUTE     
            XDATA   EF93H     0001H     ABSOLUTE     
                    EF94H     0002H                  *** GAP ***
            XDATA   EF96H     0001H     ABSOLUTE     
            XDATA   EF97H     0001H     ABSOLUTE     
            XDATA   EF98H     0001H     ABSOLUTE     
                    EF99H     0001H                  *** GAP ***
            XDATA   EF9AH     0001H     ABSOLUTE     
            XDATA   EF9BH     0001H     ABSOLUTE     
            XDATA   EF9CH     0001H     ABSOLUTE     
                    EF9DH     0002H                  *** GAP ***
            XDATA   EF9FH     0001H     ABSOLUTE     
            XDATA   EFA0H     0001H     ABSOLUTE     
            XDATA   EFA1H     0001H     ABSOLUTE     
            XDATA   EFA2H     0001H     ABSOLUTE     
            XDATA   EFA3H     0001H     ABSOLUTE     
                    EFA4H     0002H                  *** GAP ***
            XDATA   EFA6H     0001H     ABSOLUTE     
            XDATA   EFA7H     0001H     ABSOLUTE     
                    EFA8H     0003H                  *** GAP ***
            XDATA   EFABH     0001H     ABSOLUTE     
            XDATA   EFACH     0001H     ABSOLUTE     
            XDATA   EFADH     0001H     ABSOLUTE     
                    EFAEH     0043H                  *** GAP ***
            XDATA   EFF1H     0001H     ABSOLUTE     
            XDATA   EFF2H     0001H     ABSOLUTE     
            XDATA   EFF3H     0001H     ABSOLUTE     
            XDATA   EFF4H     0001H     ABSOLUTE     
            XDATA   EFF5H     0001H     ABSOLUTE     
            XDATA   EFF6H     0001H     ABSOLUTE     
            XDATA   EFF7H     0001H     ABSOLUTE     
            XDATA   EFF8H     0001H     ABSOLUTE     
                    EFF9H     0037H                  *** GAP ***
            XDATA   F030H     0001H     ABSOLUTE     
                    F031H     0003H                  *** GAP ***
            XDATA   F034H     0001H     ABSOLUTE     
                    F035H     00CBH                  *** GAP ***
            XDATA   F100H     0001H     ABSOLUTE     
                    F101H     0002H                  *** GAP ***
            XDATA   F103H     0001H     ABSOLUTE     
            XDATA   F104H     0001H     ABSOLUTE     
            XDATA   F105H     0001H     ABSOLUTE     
            XDATA   F106H     0001H     ABSOLUTE     
            XDATA   F107H     0001H     ABSOLUTE     
                    F108H     0005H                  *** GAP ***
            XDATA   F10DH     0001H     ABSOLUTE     
            XDATA   F10EH     0001H     ABSOLUTE     
                    F10FH     000AH                  *** GAP ***
            XDATA   F119H     0001H     ABSOLUTE     
BL51 BANKED LINKER/LOCATER V6.22                                                      06/21/2023  15:37:55  PAGE 30


            XDATA   F11AH     0001H     ABSOLUTE     
            XDATA   F11BH     0001H     ABSOLUTE     
                    F11CH     002EH                  *** GAP ***
            XDATA   F14AH     0001H     ABSOLUTE     
                    F14BH     0001H                  *** GAP ***
            XDATA   F14CH     0001H     ABSOLUTE     
                    F14DH     0001H                  *** GAP ***
            XDATA   F14EH     0001H     ABSOLUTE     
                    F14FH     0001H                  *** GAP ***
            XDATA   F150H     0001H     ABSOLUTE     
                    F151H     0001H                  *** GAP ***
            XDATA   F152H     0001H     ABSOLUTE     
            XDATA   F153H     0001H     ABSOLUTE     
            XDATA   F154H     0001H     ABSOLUTE     
                    F155H     0008H                  *** GAP ***
            XDATA   F15DH     0001H     ABSOLUTE     
                    F15EH     0001H                  *** GAP ***
            XDATA   F15FH     0001H     ABSOLUTE     
            XDATA   F160H     0001H     ABSOLUTE     
                    F161H     0003H                  *** GAP ***
            XDATA   F164H     0001H     ABSOLUTE     
                    F165H     0001H                  *** GAP ***
            XDATA   F166H     0001H     ABSOLUTE     
                    F167H     0001H                  *** GAP ***
            XDATA   F168H     0001H     ABSOLUTE     
            XDATA   F169H     0001H     ABSOLUTE     
                    F16AH     0002H                  *** GAP ***
            XDATA   F16CH     0001H     ABSOLUTE     
                    F16DH     0001H                  *** GAP ***
            XDATA   F16EH     0001H     ABSOLUTE     
                    F16FH     0001H                  *** GAP ***
            XDATA   F170H     0001H     ABSOLUTE     
            XDATA   F171H     0001H     ABSOLUTE     
            XDATA   F172H     0001H     ABSOLUTE     
                    F173H     0001H                  *** GAP ***
            XDATA   F174H     0001H     ABSOLUTE     
                    F175H     0001H                  *** GAP ***
            XDATA   F176H     0001H     ABSOLUTE     
                    F177H     0001H                  *** GAP ***
            XDATA   F178H     0001H     ABSOLUTE     
                    F179H     0001H                  *** GAP ***
            XDATA   F17AH     0001H     ABSOLUTE     
                    F17BH     0001H                  *** GAP ***
            XDATA   F17CH     0001H     ABSOLUTE     
                    F17DH     0001H                  *** GAP ***
            XDATA   F17EH     0001H     ABSOLUTE     
                    F17FH     0001H                  *** GAP ***
            XDATA   F180H     0001H     ABSOLUTE     
                    F181H     0001H                  *** GAP ***
            XDATA   F182H     0001H     ABSOLUTE     
                    F183H     0001H                  *** GAP ***
            XDATA   F184H     0001H     ABSOLUTE     
                    F185H     0005H                  *** GAP ***
            XDATA   F18AH     0001H     ABSOLUTE     
                    F18BH     0006H                  *** GAP ***
            XDATA   F191H     0001H     ABSOLUTE     
                    F192H     0001H                  *** GAP ***
BL51 BANKED LINKER/LOCATER V6.22                                                      06/21/2023  15:37:55  PAGE 31


            XDATA   F193H     0001H     ABSOLUTE     
                    F194H     0001H                  *** GAP ***
            XDATA   F195H     0001H     ABSOLUTE     
                    F196H     0001H                  *** GAP ***
            XDATA   F197H     0001H     ABSOLUTE     
                    F198H     000DH                  *** GAP ***
            XDATA   F1A5H     0001H     ABSOLUTE     
                    F1A6H     000EH                  *** GAP ***
            XDATA   F1B4H     0001H     ABSOLUTE     
            XDATA   F1B5H     0001H     ABSOLUTE     
                    F1B6H     0001H                  *** GAP ***
            XDATA   F1B7H     0001H     ABSOLUTE     
            XDATA   F1B8H     0001H     ABSOLUTE     
            XDATA   F1B9H     0001H     ABSOLUTE     
                    F1BAH     0001H                  *** GAP ***
            XDATA   F1BBH     0001H     ABSOLUTE     
                    F1BCH     0006H                  *** GAP ***
            XDATA   F1C2H     0001H     ABSOLUTE     
                    F1C3H     0001H                  *** GAP ***
            XDATA   F1C4H     0001H     ABSOLUTE     
                    F1C5H     0004H                  *** GAP ***
            XDATA   F1C9H     0001H     ABSOLUTE     
                    F1CAH     0002H                  *** GAP ***
            XDATA   F1CCH     0001H     ABSOLUTE     
            XDATA   F1CDH     0001H     ABSOLUTE     
            XDATA   F1CEH     0001H     ABSOLUTE     
            XDATA   F1CFH     0001H     ABSOLUTE     
            XDATA   F1D0H     0001H     ABSOLUTE     
            XDATA   F1D1H     0001H     ABSOLUTE     
            XDATA   F1D2H     0001H     ABSOLUTE     
            XDATA   F1D3H     0001H     ABSOLUTE     
                    F1D4H     000DH                  *** GAP ***
            XDATA   F1E1H     0001H     ABSOLUTE     
                    F1E2H     0011H                  *** GAP ***
            XDATA   F1F3H     0001H     ABSOLUTE     
            XDATA   F1F4H     0001H     ABSOLUTE     
            XDATA   F1F5H     0001H     ABSOLUTE     
            XDATA   F1F6H     0001H     ABSOLUTE     
            XDATA   F1F7H     0001H     ABSOLUTE     
            XDATA   F1F8H     0001H     ABSOLUTE     
            XDATA   F1F9H     0001H     ABSOLUTE     
            XDATA   F1FAH     0001H     ABSOLUTE     
                    F1FBH     0002H                  *** GAP ***
            XDATA   F1FDH     0001H     ABSOLUTE     
            XDATA   F1FEH     0001H     ABSOLUTE     
                    F1FFH     0011H                  *** GAP ***
            XDATA   F210H     0001H     ABSOLUTE     
                    F211H     0005H                  *** GAP ***
            XDATA   F216H     0001H     ABSOLUTE     
            XDATA   F217H     0001H     ABSOLUTE     
            XDATA   F218H     0001H     ABSOLUTE     
            XDATA   F219H     0001H     ABSOLUTE     
                    F21AH     0049H                  *** GAP ***
            XDATA   F263H     0001H     ABSOLUTE     
            XDATA   F264H     0001H     ABSOLUTE     
            XDATA   F265H     0001H     ABSOLUTE     
            XDATA   F266H     0001H     ABSOLUTE     
BL51 BANKED LINKER/LOCATER V6.22                                                      06/21/2023  15:37:55  PAGE 32


            XDATA   F267H     0001H     ABSOLUTE     
                    F268H     0014H                  *** GAP ***
            XDATA   F27CH     0001H     ABSOLUTE     
                    F27DH     002CH                  *** GAP ***
            XDATA   F2A9H     0001H     ABSOLUTE     
            XDATA   F2AAH     0001H     ABSOLUTE     
            XDATA   F2ABH     0001H     ABSOLUTE     
                    F2ACH     0010H                  *** GAP ***
            XDATA   F2BCH     0001H     ABSOLUTE     
            XDATA   F2BDH     0001H     ABSOLUTE     
                    F2BEH     001DH                  *** GAP ***
            XDATA   F2DBH     0001H     ABSOLUTE     
            XDATA   F2DCH     0001H     ABSOLUTE     
            XDATA   F2DDH     0001H     ABSOLUTE     
            XDATA   F2DEH     0001H     ABSOLUTE     
            XDATA   F2DFH     0001H     ABSOLUTE     
            XDATA   F2E0H     0001H     ABSOLUTE     
            XDATA   F2E1H     0001H     ABSOLUTE     
            XDATA   F2E2H     0001H     ABSOLUTE     
            XDATA   F2E3H     0001H     ABSOLUTE     
            XDATA   F2E4H     0001H     ABSOLUTE     
            XDATA   F2E5H     0001H     ABSOLUTE     
            XDATA   F2E6H     0001H     ABSOLUTE     
            XDATA   F2E7H     0001H     ABSOLUTE     
            XDATA   F2E8H     0001H     ABSOLUTE     
            XDATA   F2E9H     0001H     ABSOLUTE     
            XDATA   F2EAH     0001H     ABSOLUTE     
            XDATA   F2EBH     0001H     ABSOLUTE     
            XDATA   F2ECH     0001H     ABSOLUTE     
            XDATA   F2EDH     0001H     ABSOLUTE     
            XDATA   F2EEH     0001H     ABSOLUTE     
            XDATA   F2EFH     0001H     ABSOLUTE     
                    F2F0H     0001H                  *** GAP ***
            XDATA   F2F1H     0001H     ABSOLUTE     
                    F2F2H     0003H                  *** GAP ***
            XDATA   F2F5H     0001H     ABSOLUTE     
            XDATA   F2F6H     0001H     ABSOLUTE     
            XDATA   F2F7H     0001H     ABSOLUTE     
            XDATA   F2F8H     0001H     ABSOLUTE     
            XDATA   F2F9H     0001H     ABSOLUTE     
                    F2FAH     0006H                  *** GAP ***
            XDATA   F300H     0001H     ABSOLUTE     
            XDATA   F301H     0001H     ABSOLUTE     
            XDATA   F302H     0001H     ABSOLUTE     
            XDATA   F303H     0001H     ABSOLUTE     
            XDATA   F304H     0001H     ABSOLUTE     
            XDATA   F305H     0001H     ABSOLUTE     
            XDATA   F306H     0001H     ABSOLUTE     
            XDATA   F307H     0001H     ABSOLUTE     
            XDATA   F308H     0001H     ABSOLUTE     
            XDATA   F309H     0001H     ABSOLUTE     
            XDATA   F30AH     0001H     ABSOLUTE     
            XDATA   F30BH     0001H     ABSOLUTE     
            XDATA   F30CH     0001H     ABSOLUTE     
            XDATA   F30DH     0001H     ABSOLUTE     
            XDATA   F30EH     0001H     ABSOLUTE     
            XDATA   F30FH     0001H     ABSOLUTE     
BL51 BANKED LINKER/LOCATER V6.22                                                      06/21/2023  15:37:55  PAGE 33


            XDATA   F310H     0001H     ABSOLUTE     
            XDATA   F311H     0001H     ABSOLUTE     
            XDATA   F312H     0001H     ABSOLUTE     
            XDATA   F313H     0001H     ABSOLUTE     
            XDATA   F314H     0001H     ABSOLUTE     
            XDATA   F315H     0001H     ABSOLUTE     
            XDATA   F316H     0001H     ABSOLUTE     
                    F317H     0007H                  *** GAP ***
            XDATA   F31EH     0001H     ABSOLUTE     
                    F31FH     0001H                  *** GAP ***
            XDATA   F320H     0001H     ABSOLUTE     
            XDATA   F321H     0001H     ABSOLUTE     
            XDATA   F322H     0001H     ABSOLUTE     
            XDATA   F323H     0001H     ABSOLUTE     
            XDATA   F324H     0001H     ABSOLUTE     
            XDATA   F325H     0001H     ABSOLUTE     
            XDATA   F326H     0001H     ABSOLUTE     
                    F327H     0008H                  *** GAP ***
            XDATA   F32FH     0001H     ABSOLUTE     
                    F330H     0001H                  *** GAP ***
            XDATA   F331H     0001H     ABSOLUTE     
                    F332H     0002H                  *** GAP ***
            XDATA   F334H     0001H     ABSOLUTE     
                    F335H     0002H                  *** GAP ***
            XDATA   F337H     0001H     ABSOLUTE     
            XDATA   F338H     0001H     ABSOLUTE     
                    F339H     0001H                  *** GAP ***
            XDATA   F33AH     0001H     ABSOLUTE     
            XDATA   F33BH     0001H     ABSOLUTE     
            XDATA   F33CH     0001H     ABSOLUTE     
            XDATA   F33DH     0001H     ABSOLUTE     
            XDATA   F33EH     0001H     ABSOLUTE     
                    F33FH     0007H                  *** GAP ***
            XDATA   F346H     0001H     ABSOLUTE     
            XDATA   F347H     0001H     ABSOLUTE     
            XDATA   F348H     0001H     ABSOLUTE     
            XDATA   F349H     0001H     ABSOLUTE     
            XDATA   F34AH     0001H     ABSOLUTE     
            XDATA   F34BH     0001H     ABSOLUTE     
            XDATA   F34CH     0001H     ABSOLUTE     
            XDATA   F34DH     0001H     ABSOLUTE     
            XDATA   F34EH     0001H     ABSOLUTE     
            XDATA   F34FH     0001H     ABSOLUTE     
                    F350H     0005H                  *** GAP ***
            XDATA   F355H     0001H     ABSOLUTE     
                    F356H     000DH                  *** GAP ***
            XDATA   F363H     0001H     ABSOLUTE     
                    F364H     0005H                  *** GAP ***
            XDATA   F369H     0001H     ABSOLUTE     
                    F36AH     0004H                  *** GAP ***
            XDATA   F36EH     0001H     ABSOLUTE     
                    F36FH     0008H                  *** GAP ***
            XDATA   F377H     0001H     ABSOLUTE     
                    F378H     0001H                  *** GAP ***
            XDATA   F379H     0001H     ABSOLUTE     
                    F37AH     0001H                  *** GAP ***
            XDATA   F37BH     0001H     ABSOLUTE     
BL51 BANKED LINKER/LOCATER V6.22                                                      06/21/2023  15:37:55  PAGE 34


                    F37CH     0001H                  *** GAP ***
            XDATA   F37DH     0001H     ABSOLUTE     
            XDATA   F37EH     0001H     ABSOLUTE     
                    F37FH     0003H                  *** GAP ***
            XDATA   F382H     0001H     ABSOLUTE     
            XDATA   F383H     0001H     ABSOLUTE     
                    F384H     0002H                  *** GAP ***
            XDATA   F386H     0001H     ABSOLUTE     
            XDATA   F387H     0001H     ABSOLUTE     
            XDATA   F388H     0001H     ABSOLUTE     
            XDATA   F389H     0001H     ABSOLUTE     
                    F38AH     0005H                  *** GAP ***
            XDATA   F38FH     0001H     ABSOLUTE     
            XDATA   F390H     0001H     ABSOLUTE     
                    F391H     003DH                  *** GAP ***
            XDATA   F3CEH     0001H     ABSOLUTE     
                    F3CFH     0010H                  *** GAP ***
            XDATA   F3DFH     0001H     ABSOLUTE     
                    F3E0H     0002H                  *** GAP ***
            XDATA   F3E2H     0001H     ABSOLUTE     
                    F3E3H     0015H                  *** GAP ***
            XDATA   F3F8H     0001H     ABSOLUTE     
            XDATA   F3F9H     0001H     ABSOLUTE     
            XDATA   F3FAH     0001H     ABSOLUTE     
                    F3FBH     0007H                  *** GAP ***
            XDATA   F402H     0001H     ABSOLUTE     
                    F403H     0002H                  *** GAP ***
            XDATA   F405H     0001H     ABSOLUTE     
            XDATA   F406H     0001H     ABSOLUTE     
                    F407H     0001H                  *** GAP ***
            XDATA   F408H     0001H     ABSOLUTE     
            XDATA   F409H     0001H     ABSOLUTE     
                    F40AH     0004H                  *** GAP ***
            XDATA   F40EH     0001H     ABSOLUTE     
            XDATA   F40FH     0001H     ABSOLUTE     
            XDATA   F410H     0001H     ABSOLUTE     
            XDATA   F411H     0001H     ABSOLUTE     
            XDATA   F412H     0001H     ABSOLUTE     
                    F413H     0003H                  *** GAP ***
            XDATA   F416H     0001H     ABSOLUTE     
            XDATA   F417H     0001H     ABSOLUTE     
                    F418H     0008H                  *** GAP ***
            XDATA   F420H     0001H     ABSOLUTE     
                    F421H     0005H                  *** GAP ***
            XDATA   F426H     0001H     ABSOLUTE     
                    F427H     000BH                  *** GAP ***
            XDATA   F432H     0001H     ABSOLUTE     
                    F433H     0003H                  *** GAP ***
            XDATA   F436H     0001H     ABSOLUTE     
                    F437H     0001H                  *** GAP ***
            XDATA   F438H     0001H     ABSOLUTE     
            XDATA   F439H     0001H     ABSOLUTE     
                    F43AH     00C6H                  *** GAP ***
            XDATA   F500H     0001H     ABSOLUTE     
            XDATA   F501H     0001H     ABSOLUTE     
            XDATA   F502H     0001H     ABSOLUTE     
                    F503H     000CH                  *** GAP ***
BL51 BANKED LINKER/LOCATER V6.22                                                      06/21/2023  15:37:55  PAGE 35


            XDATA   F50FH     0001H     ABSOLUTE     
                    F510H     0010H                  *** GAP ***
            XDATA   F520H     0001H     ABSOLUTE     
                    F521H     0002H                  *** GAP ***
            XDATA   F523H     0001H     ABSOLUTE     
                    F524H     0007H                  *** GAP ***
            XDATA   F52BH     0001H     ABSOLUTE     
            XDATA   F52CH     0001H     ABSOLUTE     
                    F52DH     0003H                  *** GAP ***
            XDATA   F530H     0001H     ABSOLUTE     
                    F531H     000FH                  *** GAP ***
            XDATA   F540H     0001H     ABSOLUTE     
            XDATA   F541H     0001H     ABSOLUTE     
            XDATA   F542H     0001H     ABSOLUTE     
            XDATA   F543H     0001H     ABSOLUTE     
            XDATA   F544H     0001H     ABSOLUTE     
            XDATA   F545H     0001H     ABSOLUTE     
            XDATA   F546H     0001H     ABSOLUTE     
            XDATA   F547H     0001H     ABSOLUTE     
            XDATA   F548H     0001H     ABSOLUTE     
            XDATA   F549H     0001H     ABSOLUTE     
            XDATA   F54AH     0001H     ABSOLUTE     
            XDATA   F54BH     0001H     ABSOLUTE     
            XDATA   F54CH     0001H     ABSOLUTE     
            XDATA   F54DH     0001H     ABSOLUTE     
                    F54EH     0005H                  *** GAP ***
            XDATA   F553H     0001H     ABSOLUTE     
                    F554H     0001H                  *** GAP ***
            XDATA   F555H     0001H     ABSOLUTE     
                    F556H     0001H                  *** GAP ***
            XDATA   F557H     0001H     ABSOLUTE     
                    F558H     0007H                  *** GAP ***
            XDATA   F55FH     0001H     ABSOLUTE     
                    F560H     001CH                  *** GAP ***
            XDATA   F57CH     0001H     ABSOLUTE     
            XDATA   F57DH     0001H     ABSOLUTE     
            XDATA   F57EH     0001H     ABSOLUTE     
            XDATA   F57FH     0001H     ABSOLUTE     
            XDATA   F580H     0001H     ABSOLUTE     
            XDATA   F581H     0001H     ABSOLUTE     
                    F582H     0002H                  *** GAP ***
            XDATA   F584H     0001H     ABSOLUTE     
            XDATA   F585H     0001H     ABSOLUTE     
            XDATA   F586H     0001H     ABSOLUTE     
            XDATA   F587H     0001H     ABSOLUTE     
            XDATA   F588H     0001H     ABSOLUTE     
            XDATA   F589H     0001H     ABSOLUTE     
            XDATA   F58AH     0001H     ABSOLUTE     
                    F58BH     0001H                  *** GAP ***
            XDATA   F58CH     0001H     ABSOLUTE     
            XDATA   F58DH     0001H     ABSOLUTE     
                    F58EH     0001H                  *** GAP ***
            XDATA   F58FH     0001H     ABSOLUTE     
                    F590H     0001H                  *** GAP ***
            XDATA   F591H     0001H     ABSOLUTE     
                    F592H     0004H                  *** GAP ***
            XDATA   F596H     0001H     ABSOLUTE     
BL51 BANKED LINKER/LOCATER V6.22                                                      06/21/2023  15:37:55  PAGE 36


                    F597H     0004H                  *** GAP ***
            XDATA   F59BH     0001H     ABSOLUTE     
                    F59CH     0004H                  *** GAP ***
            XDATA   F5A0H     0001H     ABSOLUTE     
            XDATA   F5A1H     0001H     ABSOLUTE     
                    F5A2H     0004H                  *** GAP ***
            XDATA   F5A6H     0001H     ABSOLUTE     
                    F5A7H     0020H                  *** GAP ***
            XDATA   F5C7H     0001H     ABSOLUTE     
            XDATA   F5C8H     0001H     ABSOLUTE     
            XDATA   F5C9H     0001H     ABSOLUTE     
            XDATA   F5CAH     0001H     ABSOLUTE     
            XDATA   F5CBH     0001H     ABSOLUTE     
            XDATA   F5CCH     0001H     ABSOLUTE     
                    F5CDH     0012H                  *** GAP ***
            XDATA   F5DFH     0001H     ABSOLUTE     
                    F5E0H     0012H                  *** GAP ***
            XDATA   F5F2H     0001H     ABSOLUTE     
                    F5F3H     0013H                  *** GAP ***
            XDATA   F606H     0001H     ABSOLUTE     
                    F607H     0003H                  *** GAP ***
            XDATA   F60AH     0001H     ABSOLUTE     
            XDATA   F60BH     0001H     ABSOLUTE     
            XDATA   F60CH     0001H     ABSOLUTE     
            XDATA   F60DH     0001H     ABSOLUTE     
            XDATA   F60EH     0001H     ABSOLUTE     
                    F60FH     0001H                  *** GAP ***
            XDATA   F610H     0001H     ABSOLUTE     
            XDATA   F611H     0001H     ABSOLUTE     
            XDATA   F612H     0001H     ABSOLUTE     
            XDATA   F613H     0001H     ABSOLUTE     
            XDATA   F614H     0001H     ABSOLUTE     
                    F615H     0044H                  *** GAP ***
            XDATA   F659H     0001H     ABSOLUTE     
            XDATA   F65AH     0001H     ABSOLUTE     
            XDATA   F65BH     0001H     ABSOLUTE     
                    F65CH     0034H                  *** GAP ***
            XDATA   F690H     0001H     ABSOLUTE     
            XDATA   F691H     0001H     ABSOLUTE     
            XDATA   F692H     0001H     ABSOLUTE     
                    F693H     0009H                  *** GAP ***
            XDATA   F69CH     0001H     ABSOLUTE     
            XDATA   F69DH     0001H     ABSOLUTE     
            XDATA   F69EH     0001H     ABSOLUTE     
                    F69FH     0001H                  *** GAP ***
            XDATA   F6A0H     0001H     ABSOLUTE     
                    F6A1H     000FH                  *** GAP ***
            XDATA   F6B0H     0001H     ABSOLUTE     
            XDATA   F6B1H     0001H     ABSOLUTE     
            XDATA   F6B2H     0001H     ABSOLUTE     
                    F6B3H     001BH                  *** GAP ***
            XDATA   F6CEH     0001H     ABSOLUTE     
            XDATA   F6CFH     0001H     ABSOLUTE     
                    F6D0H     0001H                  *** GAP ***
            XDATA   F6D1H     0001H     ABSOLUTE     
            XDATA   F6D2H     0001H     ABSOLUTE     
            XDATA   F6D3H     0001H     ABSOLUTE     
BL51 BANKED LINKER/LOCATER V6.22                                                      06/21/2023  15:37:55  PAGE 37


            XDATA   F6D4H     0001H     ABSOLUTE     
            XDATA   F6D5H     0001H     ABSOLUTE     
            XDATA   F6D6H     0001H     ABSOLUTE     
            XDATA   F6D7H     0001H     ABSOLUTE     
            XDATA   F6D8H     0001H     ABSOLUTE     
                    F6D9H     0004H                  *** GAP ***
            XDATA   F6DDH     0001H     ABSOLUTE     
                    F6DEH     000DH                  *** GAP ***
            XDATA   F6EBH     0001H     ABSOLUTE     
                    F6ECH     0001H                  *** GAP ***
            XDATA   F6EDH     0001H     ABSOLUTE     
                    F6EEH     0001H                  *** GAP ***
            XDATA   F6EFH     0001H     ABSOLUTE     
                    F6F0H     000BH                  *** GAP ***
            XDATA   F6FBH     0001H     ABSOLUTE     
                    F6FCH     0004H                  *** GAP ***
            XDATA   F700H     0001H     ABSOLUTE     
                    F701H     0002H                  *** GAP ***
            XDATA   F703H     0001H     ABSOLUTE     
                    F704H     0001H                  *** GAP ***
            XDATA   F705H     0001H     ABSOLUTE     
            XDATA   F706H     0001H     ABSOLUTE     
            XDATA   F707H     0001H     ABSOLUTE     
            XDATA   F708H     0001H     ABSOLUTE     
            XDATA   F709H     0001H     ABSOLUTE     
            XDATA   F70AH     0001H     ABSOLUTE     
            XDATA   F70BH     0001H     ABSOLUTE     
            XDATA   F70CH     0001H     ABSOLUTE     
            XDATA   F70DH     0001H     ABSOLUTE     
            XDATA   F70EH     0001H     ABSOLUTE     
            XDATA   F70FH     0001H     ABSOLUTE     
            XDATA   F710H     0001H     ABSOLUTE     
            XDATA   F711H     0001H     ABSOLUTE     
            XDATA   F712H     0001H     ABSOLUTE     
            XDATA   F713H     0001H     ABSOLUTE     
            XDATA   F714H     0001H     ABSOLUTE     
            XDATA   F715H     0001H     ABSOLUTE     
            XDATA   F716H     0001H     ABSOLUTE     
            XDATA   F717H     0001H     ABSOLUTE     
            XDATA   F718H     0001H     ABSOLUTE     
            XDATA   F719H     0001H     ABSOLUTE     
            XDATA   F71AH     0001H     ABSOLUTE     
            XDATA   F71BH     0001H     ABSOLUTE     
            XDATA   F71CH     0001H     ABSOLUTE     
                    F71DH     0001H                  *** GAP ***
            XDATA   F71EH     0001H     ABSOLUTE     
                    F71FH     0005H                  *** GAP ***
            XDATA   F724H     0001H     ABSOLUTE     
            XDATA   F725H     0001H     ABSOLUTE     
            XDATA   F726H     0001H     ABSOLUTE     
            XDATA   F727H     0001H     ABSOLUTE     
            XDATA   F728H     0001H     ABSOLUTE     
            XDATA   F729H     0001H     ABSOLUTE     
            XDATA   F72AH     0001H     ABSOLUTE     
            XDATA   F72BH     0001H     ABSOLUTE     
            XDATA   F72CH     0001H     ABSOLUTE     
                    F72DH     0001H                  *** GAP ***
BL51 BANKED LINKER/LOCATER V6.22                                                      06/21/2023  15:37:55  PAGE 38


            XDATA   F72EH     0001H     ABSOLUTE     
            XDATA   F72FH     0001H     ABSOLUTE     
                    F730H     0070H                  *** GAP ***
            XDATA   F7A0H     0001H     ABSOLUTE     
                    F7A1H     0042H                  *** GAP ***
            XDATA   F7E3H     0001H     ABSOLUTE     
            XDATA   F7E4H     0001H     ABSOLUTE     
                    F7E5H     0002H                  *** GAP ***
            XDATA   F7E7H     0001H     ABSOLUTE     
                    F7E8H     0002H                  *** GAP ***
            XDATA   F7EAH     0001H     ABSOLUTE     
            XDATA   F7EBH     0001H     ABSOLUTE     
                    F7ECH     0001H                  *** GAP ***
            XDATA   F7EDH     0001H     ABSOLUTE     
                    F7EEH     0002H                  *** GAP ***
            XDATA   F7F0H     0001H     ABSOLUTE     
            XDATA   F7F1H     0001H     ABSOLUTE     
                    F7F2H     0004H                  *** GAP ***
            XDATA   F7F6H     0001H     ABSOLUTE     
            XDATA   F7F7H     0001H     ABSOLUTE     
            XDATA   F7F8H     0001H     ABSOLUTE     
            XDATA   F7F9H     0001H     ABSOLUTE     
            XDATA   F7FAH     0001H     ABSOLUTE     
            XDATA   F7FBH     0001H     ABSOLUTE     
                    F7FCH     0104H                  *** GAP ***
            XDATA   F900H     0001H     ABSOLUTE     
                    F901H     0309H                  *** GAP ***
            XDATA   FC0AH     0001H     ABSOLUTE     
                    FC0BH     0001H                  *** GAP ***
            XDATA   FC0CH     0001H     ABSOLUTE     
            XDATA   FC0DH     0001H     ABSOLUTE     
                    FC0EH     0005H                  *** GAP ***
            XDATA   FC13H     0001H     ABSOLUTE     
            XDATA   FC14H     0001H     ABSOLUTE     
            XDATA   FC15H     0001H     ABSOLUTE     
            XDATA   FC16H     0001H     ABSOLUTE     
            XDATA   FC17H     0001H     ABSOLUTE     
            XDATA   FC18H     0001H     ABSOLUTE     
            XDATA   FC19H     0001H     ABSOLUTE     
            XDATA   FC1AH     0001H     ABSOLUTE     
            XDATA   FC1BH     0001H     ABSOLUTE     
            XDATA   FC1CH     0001H     ABSOLUTE     
                    FC1DH     0005H                  *** GAP ***
            XDATA   FC22H     0001H     ABSOLUTE     
            XDATA   FC23H     0001H     ABSOLUTE     
                    FC24H     0005H                  *** GAP ***
            XDATA   FC29H     0001H     ABSOLUTE     
                    FC2AH     0002H                  *** GAP ***
            XDATA   FC2CH     0001H     ABSOLUTE     
            XDATA   FC2DH     0001H     ABSOLUTE     
            XDATA   FC2EH     0001H     ABSOLUTE     
            XDATA   FC2FH     0001H     ABSOLUTE     
            XDATA   FC30H     0001H     ABSOLUTE     
            XDATA   FC31H     0001H     ABSOLUTE     
                    FC32H     0004H                  *** GAP ***
            XDATA   FC36H     0001H     ABSOLUTE     
                    FC37H     0003H                  *** GAP ***
BL51 BANKED LINKER/LOCATER V6.22                                                      06/21/2023  15:37:55  PAGE 39


            XDATA   FC3AH     0001H     ABSOLUTE     
            XDATA   FC3BH     0001H     ABSOLUTE     
            XDATA   FC3CH     0001H     ABSOLUTE     
            XDATA   FC3DH     0001H     ABSOLUTE     
            XDATA   FC3EH     0001H     ABSOLUTE     
                    FC3FH     0001H                  *** GAP ***
            XDATA   FC40H     0001H     ABSOLUTE     
            XDATA   FC41H     0001H     ABSOLUTE     
            XDATA   FC42H     0001H     ABSOLUTE     
            XDATA   FC43H     0001H     ABSOLUTE     
            XDATA   FC44H     0001H     ABSOLUTE     
            XDATA   FC45H     0001H     ABSOLUTE     
            XDATA   FC46H     0001H     ABSOLUTE     
                    FC47H     0006H                  *** GAP ***
            XDATA   FC4DH     0001H     ABSOLUTE     
                    FC4EH     003CH                  *** GAP ***
            XDATA   FC8AH     0001H     ABSOLUTE     
                    FC8BH     0001H                  *** GAP ***
            XDATA   FC8CH     0001H     ABSOLUTE     
            XDATA   FC8DH     0001H     ABSOLUTE     
                    FC8EH     0005H                  *** GAP ***
            XDATA   FC93H     0001H     ABSOLUTE     
                    FC94H     0001H                  *** GAP ***
            XDATA   FC95H     0001H     ABSOLUTE     
            XDATA   FC96H     0001H     ABSOLUTE     
            XDATA   FC97H     0001H     ABSOLUTE     
            XDATA   FC98H     0001H     ABSOLUTE     
            XDATA   FC99H     0001H     ABSOLUTE     
            XDATA   FC9AH     0001H     ABSOLUTE     
            XDATA   FC9BH     0001H     ABSOLUTE     
            XDATA   FC9CH     0001H     ABSOLUTE     
                    FC9DH     0005H                  *** GAP ***
            XDATA   FCA2H     0001H     ABSOLUTE     
            XDATA   FCA3H     0001H     ABSOLUTE     
                    FCA4H     0002H                  *** GAP ***
            XDATA   FCA6H     0001H     ABSOLUTE     
            XDATA   FCA7H     0001H     ABSOLUTE     
            XDATA   FCA8H     0001H     ABSOLUTE     
            XDATA   FCA9H     0001H     ABSOLUTE     
                    FCAAH     0001H                  *** GAP ***
            XDATA   FCABH     0001H     ABSOLUTE     
            XDATA   FCACH     0001H     ABSOLUTE     
            XDATA   FCADH     0001H     ABSOLUTE     
            XDATA   FCAEH     0001H     ABSOLUTE     
            XDATA   FCAFH     0001H     ABSOLUTE     
            XDATA   FCB0H     0001H     ABSOLUTE     
            XDATA   FCB1H     0001H     ABSOLUTE     
                    FCB2H     0004H                  *** GAP ***
            XDATA   FCB6H     0001H     ABSOLUTE     
                    FCB7H     0003H                  *** GAP ***
            XDATA   FCBAH     0001H     ABSOLUTE     
            XDATA   FCBBH     0001H     ABSOLUTE     
                    FCBCH     0001H                  *** GAP ***
            XDATA   FCBDH     0001H     ABSOLUTE     
            XDATA   FCBEH     0001H     ABSOLUTE     
                    FCBFH     0001H                  *** GAP ***
            XDATA   FCC0H     0001H     ABSOLUTE     
BL51 BANKED LINKER/LOCATER V6.22                                                      06/21/2023  15:37:55  PAGE 40


            XDATA   FCC1H     0001H     ABSOLUTE     
                    FCC2H     000BH                  *** GAP ***
            XDATA   FCCDH     0001H     ABSOLUTE     
                    FCCEH     0004H                  *** GAP ***
            XDATA   FCD2H     0001H     ABSOLUTE     
            XDATA   FCD3H     0001H     ABSOLUTE     
            XDATA   FCD4H     0001H     ABSOLUTE     
            XDATA   FCD5H     0001H     ABSOLUTE     
            XDATA   FCD6H     0001H     ABSOLUTE     

            * * * * * * *   C O D E   M E M O R Y   * * * * * * *
            CODE    0000H     0003H     ABSOLUTE     
            CODE    0003H     0003H     ABSOLUTE     
            CODE    0006H     0005H     UNIT         ?PR?MOD_AUX_LINKCNTGET?MODAUXMSG
            CODE    000BH     0003H     ABSOLUTE     
            CODE    000EH     0004H     UNIT         ?PR?MOD_IT2_INTERRUPTSERVICE?INTERRUPT
            CODE    0012H     0001H     UNIT         ?PR?LT8711GXE_HDMITXVARINIT?LT8711GXE
            CODE    0013H     0003H     ABSOLUTE     
            CODE    0016H     0015H     UNIT         ?PR?LT8711GXE_POWERONINIT?LT8711GXE
            CODE    002BH     0003H     ABSOLUTE     
            CODE    002EH     0015H     UNIT         ?PR?_DRV_RPCUR_SEL?DRVTYPECDCC
            CODE    0043H     0003H     ABSOLUTE     
            CODE    0046H     05D0H     UNIT         ?PR?_CHIP_UFP_MESSAGE?MODCC1BASICTYPEC
            CODE    0616H     057FH     UNIT         ?C?LIB_CODE
            CODE    0B95H     051FH     UNIT         ?PR?_MOD_HDMIEDID_CTABLOCKANALYSIS?MODHDMIEDID
            CODE    10B4H     04FAH     UNIT         ?PR?MOD_DPRX_SOFTEQSET?MODDPRXEQ
            CODE    15AEH     03CBH     UNIT         ?PR?_CHIP_DCCSOURCECAP_CAL?MODCC2BASICTYPEC
            CODE    1979H     03C1H     UNIT         ?PR?_DRV_HDMITX_FRLFECLINCLKCAL?DRVHDMITX
            CODE    1D3AH     0365H     UNIT         ?PR?PRINTF?PRINTF
            CODE    209FH     035DH     UNIT         ?PR?_CHIP_UFP_VDMMSG?MODCC1BASICTYPEC
            CODE    23FCH     02DFH     UNIT         ?PR?MOD_DPRX_STATEHANDLER?MODDPRX
            CODE    26DBH     02D6H     UNIT         ?PR?MOD_UCC_INTERRUPT?MODCC1MSGTYPEC
            CODE    29B1H     0299H     UNIT         ?PR?MOD_FRLTX_PATTERNPROC?MODFRLTRAIN
            CODE    2C4AH     024DH     UNIT         ?PR?_DRV_HDMITX_TMDSTXPLLCAL?DRVHDMITX
            CODE    2E97H     0231H     UNIT         ?CO?MODCC1TYPEC
            CODE    30C8H     0214H     UNIT         ?CO?MODHDMIEDID
            CODE    32DCH     01DEH     UNIT         ?PR?_MOD_HDMITX_COLORIMETRYCAL?MODSYSTEM
            CODE    34BAH     01DDH     UNIT         ?PR?_MOD_HDMIEDID_ANALYSIS?MODHDMIEDID
            CODE    3697H     01D2H     UNIT         ?PR?_MOD_READ_DPCD?MODAUXMSG
            CODE    3869H     01D1H     UNIT         ?PR?_MOD_HDMITX_VICCAL?MODSYSTEM
            CODE    3A3AH     019DH     UNIT         ?PR?_DRV_SYSTEM_FMGET?DRVSYSTEM
            CODE    3BD7H     0186H     UNIT         ?PR?DRV_DPRX_RXPLLCALI?DRVDPRX
            CODE    3D5DH     0185H     UNIT         ?PR?_DRV_HDMITX_FRLTXPLLCAL?DRVHDMITX
            CODE    3EE2H     0182H     UNIT         ?PR?CHIP_UCC_SOURCECAPSEND?MODCC1TYPEC
            CODE    4064H     0179H     UNIT         ?PR?_MOD_CTABLOCK_UPDATE?MODHDMIEDID
            CODE    41DDH     0177H     UNIT         ?PR?_MOD_WRITE_DPCD?MODAUXMSG
            CODE    4354H     0169H     UNIT         ?PR?_MOD_AUDIO_HDMITXINFOCVT?MODSYSTEM
            CODE    44BDH     0161H     UNIT         ?PR?CHIP_UCCMESSAGE_SEND?MODCC1BASICTYPEC
            CODE    461EH     015DH     UNIT         ?PR?MOD_DCC_INTERRUPT?MODCC2MSGTYPEC
            CODE    477BH     0154H     UNIT         ?PR?MOD_HDMITX_STATEHANDLER?MODHDMITX
            CODE    48CFH     0150H     UNIT         ?PR?_CHIP_REQUESTMSG_CAL?MODCCSHAREDTYPEC
            CODE    4A1FH     0145H     UNIT         ?PR?_DRV_HDMITX_PHYSET?DRVHDMITX
            CODE    4B64H     013DH     UNIT         ?PR?MOD_DPRX_AUXTASK?MODAUXMSG
            CODE    4CA1H     0139H     UNIT         ?PR?_DRV_DPRX_RXTIMINGGET?DRVDPRX
            CODE    4DDAH     012BH     UNIT         ?CO?DRVHDMITX
            CODE    4F05H     0122H     UNIT         ?CO?MODHDMITX
            CODE    5027H     0121H     UNIT         ?PR?CHIP_UCC_PRSWAPSCAN?MODCC1TYPEC
BL51 BANKED LINKER/LOCATER V6.22                                                      06/21/2023  15:37:55  PAGE 41


            CODE    5148H     0121H     UNIT         ?PR?_CHIP_DFP_MESSAGE?MODCC2BASICTYPEC
            CODE    5269H     011EH     UNIT         ?CO?MODDPRXEQ
            CODE    5387H     0118H     UNIT         ?CO?MODDPRX
            CODE    549FH     0115H     UNIT         ?PR?_MOD_HMDITX_EDIDREAD?MODHDMITX
            CODE    55B4H     0114H     UNIT         ?PR?_MOD_HDMIEDID_UPDATE?MODHDMIEDID
            CODE    56C8H     010FH     UNIT         ?PR?MOD_DPRX_STATEJUDGE?MODDPRX
            CODE    57D7H     010DH     UNIT         ?PR?CHIP_DCCMESSAGE_SEND?MODCC2BASICTYPEC
            CODE    58E4H     0108H     UNIT         ?PR?_MOD_DISPLAYIDBLOCK_UPDATE?MODHDMIEDID
            CODE    59ECH     0108H     UNIT         ?PR?_DRV_HDMITX_READI2CBYTEN?DRVDDCMAST
            CODE    5AF4H     0104H     UNIT         ?PR?_MOD_FRLTX_DEEMPHASIS?MODFRLTRAIN
            CODE    5BF8H     0104H     UNIT         ?PR?_MOD_FRLTX_NORMAL?MODFRLTRAIN
            CODE    5CFCH     0100H     UNIT         ?PR?DRV_DPRX_DPCDINIT?DRVDPRX
            CODE    5DFCH     00FDH     UNIT         ?PR?_MOD_FRLTX_PRESHOOT?MODFRLTRAIN
            CODE    5EF9H     00FCH     UNIT         ?CO?MODFRLTRAIN
            CODE    5FF5H     00F8H     UNIT         ?C_INITSEG
            CODE    60EDH     00F6H     UNIT         ?PR?CHIP_UCC_TOGGLE?MODCC1TYPEC
            CODE    61E3H     00F5H     UNIT         ?PR?_MOD_HDMITX_ASPECTRATIOCAL?MODSYSTEM
            CODE    62D8H     00F4H     UNIT         ?PR?MOD_DPRX_PEAKCLKCAL?MODDPRX
            CODE    63CCH     00F3H     UNIT         ?PR?_DRV_DPRX_PCRMODESET?DRVDPRX
            CODE    64BFH     00F0H     UNIT         ?PR?CHIP_DCC_WITHPDDET?MODCC1TYPEC
            CODE    65AFH     00EFH     UNIT         ?PR?MOD_FRLTX_TRAINPROCESS?MODFRLTRAIN
            CODE    669EH     00EFH     UNIT         ?PR?MOD_HDMITX_STATEJUDGE?MODHDMITX
            CODE    678DH     00DDH     UNIT         ?PR?CHIP_UCCREQUEST_CAL?MODCC1BASICTYPEC
            CODE    686AH     00D3H     UNIT         ?PR?CHIP_UCC_OFFACTION?MODCC1TYPEC
            CODE    693DH     00CBH     UNIT         ?PR?CHIP_PSRDY_SEND?MODCC2MSGTYPEC
            CODE    6A08H     00CAH     UNIT         ?PR?MOD_FRLTX_FECERRORCHECK?MODFRLTRAIN
            CODE    6AD2H     00C9H     UNIT         ?PR?_DRV_CCRTERM_CALI?DRVTYPECDCC
            CODE    6B9BH     00C7H     UNIT         ?PR?MOD_FRLTX_TRAININGHDL?MODFRLTRAIN
            CODE    6C62H     00C1H     UNIT         ?PR?CHIP_CC_VARINIT?MODCC1TYPEC
            CODE    6D23H     00C1H     UNIT         ?CO?DRVDPRX
            CODE    6DE4H     00BFH     UNIT         ?PR?LT8711GXE_CCGPIOINIT?LT8711GXE
            CODE    6EA3H     00BFH     UNIT         ?PR?CHIP_UCC_PRSWAPSEND?MODCC1TYPEC
            CODE    6F62H     00BAH     UNIT         ?PR?MOD_DPRX_TRAININGEQPRINT?MODDPRXEQ
            CODE    701CH     00BAH     UNIT         ?PR?_MOD_BLOCK0_UPDATE?MODHDMIEDID
            CODE    70D6H     00BAH     UNIT         ?PR?_MOD_HDMITX_COLORSPACECAL?MODSYSTEM
            CODE    7190H     00B9H     UNIT         ?PR?MOD_HDMITX_AVIINFOSET?MODHDMITX
            CODE    7249H     00B7H     UNIT         ?PR?CHIP_UCC_RETRY?MODCC1MSGTYPEC
            CODE    7300H     00ADH     UNIT         ?PR?CHIP_NINTENDOSWITCH_HDMIHPD_HANDLE?MODCC1TYPEC
            CODE    73ADH     00ACH     UNIT         ?PR?LT8711GXE_DPRXCOLORINFOCVT?LT8711GXE
            CODE    7459H     00A9H     UNIT         ?PR?MOD_AUX_TRAININGDONE?MODAUXMSG
            CODE    7502H     00A9H     UNIT         ?PR?_DRV_DPRX_SSCJUDGEBYRXFM?DRVDPRX
            CODE    75ABH     00A1H     UNIT         ?PR?_DRV_DPRX_VIDCOLORINFOGET?DRVDPRX
            CODE    764CH     00A1H     UNIT         ?PR?_DRV_CCINT_INIT?DRVTYPECDCC
            CODE    76EDH     00A0H     UNIT         ?PR?_MOD_FRLTX_DEEMPHASISUPDATEOUT?MODFRLTRAIN
            CODE    778DH     0094H     UNIT         ?PR?CHIP_DVBUS_LVL_SET?MODCC2MSGTYPEC
            CODE    7821H     0092H     UNIT         ?PR?_MOD_HDMITX_VRRSET?MODHDMITX
            CODE    78B3H     0090H     UNIT         ?PR?DRV_SYSTEM_XTALSET?DRVSYSTEM
            CODE    7943H     008DH     UNIT         ?PR?MOD_DPRX_PCRMSAUPDATE?MODDPRX
            CODE    79D0H     008CH     UNIT         ?C_C51STARTUP
            CODE    7A5CH     008CH     UNIT         ?PR?MOD_HDMITX_HPDDETPROC?MODHDMITX
            CODE    7AE8H     008BH     UNIT         ?PR?_CHIP_DISCOVERID_HANDLE?MODCC1BASICTYPEC
            CODE    7B73H     008AH     UNIT         ?PR?TIMER0INTERRUPT?OCMTIMER
            CODE    7BFDH     0089H     UNIT         ?PR?_CHIP_UCC_FLIPDET?MODCC1TYPEC
            CODE    7C86H     0088H     UNIT         ?PR?_CHIP_UCCLOCK_VARISET?MODCC1TYPEC
            CODE    7D0EH     0088H     UNIT         ?PR?MOD_HDMITX_AUDIOINFOSET?MODHDMITX
            CODE    7D96H     0087H     UNIT         ?PR?_CHIP_CCMESSAGE_RESEND?MODCCSHAREDTYPEC
            CODE    7E1DH     0085H     UNIT         ?PR?CHIP_UCC_DRSWAPSEND?MODCC1TYPEC
BL51 BANKED LINKER/LOCATER V6.22                                                      06/21/2023  15:37:55  PAGE 42


            CODE    7EA2H     0084H     UNIT         ?PR?_DRV_HDMITX_TMDSSET?DRVHDMITX
            CODE    7F26H     0083H     UNIT         ?PR?_MOD_EDID_DPMODEPRINT?MODHDMIEDID
            CODE    7FA9H     007BH     UNIT         ?PR?_PRINTLT?OCMPRINT
            CODE    8024H     007AH     UNIT         ?PR?MOD_CCRX_LOOP?MODCC1TYPEC
            CODE    809EH     0076H     UNIT         ?PR?_MOD_READ_DPCD204?MODAUXMSG
            CODE    8114H     0075H     UNIT         ?PR?_DRV_DPRX_CHANNELSWAP?DRVDPRX
            CODE    8189H     0074H     UNIT         ?PR?DRV_DPRX_RTERMCAL?DRVDPRX
            CODE    81FDH     0072H     UNIT         ?PR?_OCM_TIMER_ISOVERFLOW?OCMTIMER
            CODE    826FH     0071H     UNIT         ?PR?_CHIP_UCC_SWAPSCAN?MODCC1TYPEC
            CODE    82E0H     0071H     UNIT         ?PR?MOD_HDMITX_HDMIVERSIONCAL?MODHDMITX
            CODE    8351H     006EH     UNIT         ?PR?_MOD_HDMITX_COLORRANGECAL?MODSYSTEM
            CODE    83BFH     006DH     UNIT         ?PR?_MOD_UCC_HPDIRQSEND?MODCC1TYPEC
            CODE    842CH     006BH     UNIT         ?PR?_CHIP_UCC_TOGGLEINIT?MODCC1TYPEC
            CODE    8497H     006AH     UNIT         ?PR?CHIP_NINTENDOSWITCH_WAKEUP_HANDLE?MODCC1TYPEC
            CODE    8501H     0069H     UNIT         ?CO?LT8711GXE
            CODE    856AH     0068H     UNIT         ?PR?_DRV_HDMITX_FRLTXPHYSET?DRVHDMITX
            CODE    85D2H     0068H     UNIT         ?PR?_DRV_CCRXPHY_SET?DRVTYPECDCC
            CODE    863AH     0067H     UNIT         ?PR?CHIP_UCC_PSSOURCEOFFDET?MODCC1TYPEC
            CODE    86A1H     0067H     UNIT         ?PR?MOD_FRLTX_FLTREADYPROC?MODFRLTRAIN
            CODE    8708H     0067H     UNIT         ?PR?DRV_DPRX_PCRINIT?DRVDPRX
            CODE    876FH     0067H     UNIT         ?CO?DRVSYSTEM
            CODE    87D6H     0065H     UNIT         ?PR?CHIP_UCCMESSAGESOP1_SEND?MODCC1BASICTYPEC
            CODE    883BH     0065H     UNIT         ?PR?_DRV_HDMITX_WRITEI2CBYTE?DRVDDCMAST
            CODE    88A0H     0065H     UNIT         ?PR?_DRV_DPRX_ANACDRRST?DRVDPRX
            CODE    8905H     0065H     UNIT         ?PR?DRV_SYS_HDCPKEYLOAD?DRVSYSTEM
            CODE    896AH     0063H     UNIT         ?PR?MOD_FRLTX_TRAININIT?MODFRLTRAIN
            CODE    89CDH     0063H     UNIT         ?PR?_DRV_SYS_DHRXPOWERDOMAIN?DRVSYSTEM
            CODE    8A30H     0062H     UNIT         ?PR?DRV_HDMITX_RTERMCALI?DRVHDMITX
            CODE    8A92H     0061H     UNIT         ?PR?MOD_DPRX_AUDIOCHANNELUPDATA?MODDPRX
            CODE    8AF3H     0060H     UNIT         ?PR?_LT8711GXE_DPRXMSGNOTIFY?LT8711GXE
            CODE    8B53H     0060H     UNIT         ?PR?MOD_IT1_INTERRUPTSERVICE?INTERRUPT
            CODE    8BB3H     0060H     UNIT         ?PR?_MOD_HDMITX_COLORDEPTHCAL?MODSYSTEM
            CODE    8C13H     005FH     UNIT         ?PR?CHIP_SOP1MSG_SEND?MODCC1TYPEC
            CODE    8C72H     005FH     UNIT         ?PR?_DRV_HDCPTX_ENABLE?DRVHDCPTX
            CODE    8CD1H     005CH     UNIT         ?PR?_DRV_GPIO_MODESET?DRVGPIO
            CODE    8D2DH     005AH     UNIT         ?PR?CHIP_UCCSEND_SOURCECAP?MODCC1BASICTYPEC
            CODE    8D87H     005AH     UNIT         ?PR?MOD_DPRX_SOURCECHANNELSET?MODDPRX
            CODE    8DE1H     0059H     UNIT         ?PR?CHIP_TSWAPSOURCESTART?MODCC1TYPEC
            CODE    8E3AH     0058H     UNIT         ?PR?_MOD_FRLTX_LANE3FFEADJUST?MODFRLTRAIN
            CODE    8E92H     0057H     UNIT         ?PR?_MOD_FRLTX_LANE1FFEADJUST?MODFRLTRAIN
            CODE    8EE9H     0056H     UNIT         ?PR?MOD_FRLTX_NOFFE?MODFRLTRAIN
            CODE    8F3FH     0056H     UNIT         ?PR?_MOD_FRLTX_LANE2FFEADJUST?MODFRLTRAIN
            CODE    8F95H     0055H     UNIT         ?PR?CHIP_LASTMSG_PSRDY?MODCC1MSGTYPEC
            CODE    8FEAH     0055H     UNIT         ?PR?CHIP_DCC_RETRY?MODCC2MSGTYPEC
            CODE    903FH     0055H     UNIT         ?PR?_DRV_SYSTEM_FMSTBGET?DRVSYSTEM
            CODE    9094H     0054H     UNIT         ?PR?_DRV_DPRX_RXPLLBAND?DRVDPRX
            CODE    90E8H     0054H     UNIT         ?PR?_DRV_DPRX_AUDIOINFOGET?DRVDPRX
            CODE    913CH     0053H     UNIT         ?PR?MOD_DPRX_PCRCOLORSPACEUPDATA?MODDPRX
            CODE    918FH     0053H     UNIT         ?PR?_DRV_DPRX_CP2520KEYCODESET?DRVDPRX
            CODE    91E2H     0052H     UNIT         ?PR?_OCM_TIMER_UPDLOCALTIME?OCMTIMER
            CODE    9234H     0051H     UNIT         ?PR?_DRV_CCDEBOUNCE_SET?DRVTYPECDCC
            CODE    9285H     004FH     UNIT         ?PR?_DRV_DPRX_CTLESET?DRVDPRX
            CODE    92D4H     004FH     UNIT         ?PR?_DRV_CCTXRATE_SET?DRVTYPECDCC
            CODE    9323H     004FH     UNIT         ?PR?_DRV_POWERROLE_SET?DRVTYPECDCC
            CODE    9372H     004EH     UNIT         ?PR?MOD_TIME2_INTERRUPTSERVICE?INTERRUPT
            CODE    93C0H     004EH     UNIT         ?PR?MOD_DPRX_SOURCEDETPROC?MODDPRX
            CODE    940EH     004DH     UNIT         ?PR?DRV_HDCPTX_HDCPINIT?DRVHDCPTX
BL51 BANKED LINKER/LOCATER V6.22                                                      06/21/2023  15:37:55  PAGE 43


            CODE    945BH     004CH     UNIT         ?PR?MOD_IT0_INTERRUPTSERVICE?INTERRUPT
            CODE    94A7H     004CH     UNIT         ?PR?_DRV_SYSTEM_PKTDATACHK?DRVSYSTEM
            CODE    94F3H     004CH     UNIT         ?PR?_DRV_SYSTEM_VIDCHKSTATEGET?DRVSYSTEM
            CODE    953FH     004BH     UNIT         ?PR?CHIP_HUBRESET_HANDLE?MODCC1TYPEC
            CODE    958AH     004BH     UNIT         ?PR?CHIP_DFP_VDMMSG?MODCC2BASICTYPEC
            CODE    95D5H     004AH     UNIT         ?PR?_CHIP_ALTMODE_HANDLE?MODCC1BASICTYPEC
            CODE    961FH     004AH     UNIT         ?PR?_MOD_FRLTX_LANE0FFEADJUST?MODFRLTRAIN
            CODE    9669H     004AH     UNIT         ?PR?DRV_DPRX_SETTINGINIT?DRVDPRX
            CODE    96B3H     004AH     UNIT         ?PR?_VSPRINTF?VSPRINTF
            CODE    96FDH     0049H     UNIT         ?PR?MOD_FRLTX_STARTPROC?MODFRLTRAIN
            CODE    9746H     0049H     UNIT         ?PR?_DRV_DPRX_RESET?DRVDPRX
            CODE    978FH     0048H     UNIT         ?PR?MAIN?MAIN
            CODE    97D7H     0048H     UNIT         ?PR?LT8711GXE_DPRXCSCORENCSEL?LT8711GXE
            CODE    981FH     0048H     UNIT         ?PR?_MOD_WRITE_DPCD102?MODAUXMSG
            CODE    9867H     0048H     UNIT         ?PR?CHIP_LASTMSG_ACCEPT?MODCC1MSGTYPEC
            CODE    98AFH     0048H     UNIT         ?PR?CHIP_DCC_FRDISCHARGE?MODCC1TYPEC
            CODE    98F7H     0047H     UNIT         ?PR?_DRV_SYS_DHTXPOWERDOMAIN?DRVSYSTEM
            CODE    993EH     0046H     UNIT         ?PR?CHIP_UCC_OFFDET?MODCC1TYPEC
            CODE    9984H     0045H     UNIT         ?PR?_DRV_SYS_LMTXPOWERDOMAIN?DRVSYSTEM
            CODE    99C9H     0043H     UNIT         ?PR?_DRV_DPRX_HPDSET?DRVDPRX
            CODE    9A0CH     0042H     UNIT         ?PR?_DRV_DPRX_PISET?DRVDPRX
            CODE    9A4EH     0041H     UNIT         ?PR?_MOD_DPRX_SETSTATE?MODDPRX
            CODE    9A8FH     0041H     UNIT         ?PR?_DRV_HDMITX_FRLDIGSET?DRVHDMITX
            CODE    9AD0H     0040H     UNIT         ?PR?_MOD_CHECK_DISIDSUM?MODHDMIEDID
            CODE    9B10H     003FH     UNIT         ?PR?_DRV_CCRXRATE_SET?DRVTYPECDCC
            CODE    9B4FH     003DH     UNIT         ?PR?LT8711GXE_DPRXDPORTYPECDET?LT8711GXE
            CODE    9B8CH     003DH     UNIT         ?PR?DRV_HDMITX_PHYDIS?DRVHDMITX
            CODE    9BC9H     003DH     UNIT         ?PR?_DRV_SYS_DECPOWERDOMAIN?DRVSYSTEM
            CODE    9C06H     003DH     UNIT         ?PR?_DRV_SYS_ENCPOWERDOMAIN?DRVSYSTEM
            CODE    9C43H     003CH     UNIT         ?PR?_MOD_AUX_EDIDREAD?MODAUXMSG
            CODE    9C7FH     003CH     UNIT         ?PR?_CHIP_DCC_ONDET?MODCC1TYPEC
            CODE    9CBBH     003CH     UNIT         ?PR?MOD_FRLTX_TRAINFAIL?MODFRLTRAIN
            CODE    9CF7H     003BH     UNIT         ?PR?DRV_AUDIO_HDMIOUTINIT?DRVAUDIO
            CODE    9D32H     0038H     UNIT         ?PR?MOD_AUX_DONEGET?MODAUXMSG
            CODE    9D6AH     0038H     UNIT         ?PR?CHIP_UCC_FLIP?MODCC1TYPEC
            CODE    9DA2H     0038H     UNIT         ?PR?_DRV_SYSTEM_FMSET?DRVSYSTEM
            CODE    9DDAH     0037H     UNIT         ?PR?_MOD_READ_DPCD206?MODAUXMSG
            CODE    9E11H     0037H     UNIT         ?PR?CHIP_RP_SOFTRST_HANDLE?MODCC1TYPEC
            CODE    9E48H     0036H     UNIT         ?PR?CHIP_UCCOFFTMP_SET?MODCC1TYPEC
            CODE    9E7EH     0036H     UNIT         ?PR?DRV_DPRX_MAINLINK?DRVDPRX
            CODE    9EB4H     0036H     UNIT         ?PR?_DRV_IOSOFTLEVEL_SET?DRVGPIO
            CODE    9EEAH     0035H     UNIT         ?PR?CHIP_DCC_TMPINI?MODCC1TYPEC
            CODE    9F1FH     0035H     UNIT         ?PR?_DRV_DPRX_LINKCLKSEL?DRVDPRX
            CODE    9F54H     0034H     UNIT         ?PR?CHIP_UCC_RPONSCAN?DRVTYPECDCC
            CODE    9F88H     0034H     UNIT         ?PR?CHIP_UCC_RDONSCAN?DRVTYPECDCC
            CODE    9FBCH     0033H     UNIT         ?PR?DRV_DPRX_CLKMUX?DRVDPRX
            CODE    9FEFH     0033H     UNIT         ?PR?DRV_DPRX_VIDEOSTREAMFLAG?DRVDPRX
            CODE    A022H     0031H     UNIT         ?PR?_MOD_WRITE_DPCD100?MODAUXMSG
            CODE    A053H     0031H     UNIT         ?PR?_MOD_HDMITX_SETSTATE?MODHDMITX
            CODE    A084H     0031H     UNIT         ?PR?DRV_DPRX_FREQINTG?DRVDPRX
            CODE    A0B5H     0030H     UNIT         ?PR?CHIP_ADAPTERLOST_VARINI?MODCC2MSGTYPEC
            CODE    A0E5H     0030H     UNIT         ?PR?CHIP_DCCUCC_DOTRIG?MODCC2MSGTYPEC
            CODE    A115H     002FH     UNIT         ?PR?_MOD_CHECK_SUM?MODHDMIEDID
            CODE    A144H     002FH     UNIT         ?PR?_DRV_DPRX_CRLOCKTHRESHOLDSET?DRVDPRX
            CODE    A173H     002EH     UNIT         ?PR?MOD_HDMITX_READSINKERRORCNT?MODHDMITX
            CODE    A1A1H     002EH     UNIT         ?PR?_DRV_SYSTEM_INTSET?DRVSYSTEM
            CODE    A1CFH     002EH     UNIT         ?PR?DRV_CCPHY_DIGSET?DRVTYPECDCC
BL51 BANKED LINKER/LOCATER V6.22                                                      06/21/2023  15:37:55  PAGE 44


            CODE    A1FDH     002DH     UNIT         ?CO?MAIN
            CODE    A22AH     002DH     UNIT         ?PR?_DRV_AUDIO_OUTEN?DRVAUDIO
            CODE    A257H     002DH     UNIT         ?PR?DRV_DPRX_VSCPKTCHECK?DRVDPRX
            CODE    A284H     002DH     UNIT         ?PR?_DRV_GETIO_STATE?DRVGPIO
            CODE    A2B1H     002CH     UNIT         ?PR?_LT8711GXE_HDMITXMSGNOTIFY?LT8711GXE
            CODE    A2DDH     002CH     UNIT         ?PR?DRV_DPRX_AUXINIT?DRVDPRX
            CODE    A309H     002CH     UNIT         ?PR?DRV_DPRX_PHYINIT?DRVDPRX
            CODE    A335H     002CH     UNIT         ?PR?_DRV_SYSTEM_INTFLAGGET?DRVSYSTEM
            CODE    A361H     002BH     UNIT         ?PR?_MOD_WRITE_DPCD600?MODAUXMSG
            CODE    A38CH     002BH     UNIT         ?PR?CHIP_MSGAFTERACCEPT?MODCC1MSGTYPEC
            CODE    A3B7H     002BH     UNIT         ?PR?_MOD_FRLTX_SETSTATE?MODFRLTRAIN
            CODE    A3E2H     002BH     UNIT         ?PR?_DRV_SYSTEM_INTSRCGET?DRVSYSTEM
            CODE    A40DH     002AH     UNIT         ?PR?CHIP_HARDRST_SEND_HANDLE?MODCC1TYPEC
            CODE    A437H     0029H     UNIT         ?PR?CHIP_UCCEMARK_HANDLE?MODCC1TYPEC
            CODE    A460H     0029H     UNIT         ?PR?_DRV_HDMITX_DDCSOFTMODE?DRVDDCMAST
            CODE    A489H     0028H     UNIT         ?PR?_CHIP_UCC_MSGTYPECAL?MODCC1TYPEC
            CODE    A4B1H     0028H     UNIT         ?PR?CHIP_DCC_FLIPDET?MODCC1TYPEC
            CODE    A4D9H     0028H     UNIT         ?PR?_MOD_FRLTX_DEEMPHASISINITOUT?MODFRLTRAIN
            CODE    A501H     0028H     UNIT         ?PR?DRV_DPRX_PCRPLLINIT?DRVDPRX
            CODE    A529H     0027H     UNIT         ?PR?PUTCHAR?PUTCHAR
            CODE    A550H     0026H     UNIT         ?PR?_DRV_DPRX_DPCD_VALUEWRITE?DRVDPRX
            CODE    A576H     0026H     UNIT         ?PR?DRV_DPRX_HWRESETSET?DRVDPRX
            CODE    A59CH     0026H     UNIT         ?CO?DRVHDCPTX
            CODE    A5C2H     0025H     UNIT         ?PR?APP_CHIPFW_READ?MAIN
            CODE    A5E7H     0025H     UNIT         ?PR?CHIP_UCC_WAITSEND?MODCC1TYPEC
            CODE    A60CH     0025H     UNIT         ?PR?MOD_HDMITX_GCPINFOSET?MODHDMITX
            CODE    A631H     0025H     UNIT         ?PR?_DRV_AUDIO_HDMINCTSVALUESET?DRVAUDIO
            CODE    A656H     0025H     UNIT         ?PR?_DRV_SYSTEM_VIDCHKSET?DRVSYSTEM
            CODE    A67BH     0024H     UNIT         ?PR?_MOD_AUX_SENDDATA?MODAUXMSG
            CODE    A69FH     0024H     UNIT         ?PR?MOD_FRLTX_VERSIONPROC?MODFRLTRAIN
            CODE    A6C3H     0024H     UNIT         ?PR?DRV_HDMITX_DDCINIT?DRVHDMITX
            CODE    A6E7H     0023H     UNIT         ?PR?LT8711GXE_DPRXVARINIT?LT8711GXE
            CODE    A70AH     0023H     UNIT         ?PR?CHIP_UCCRA_DET?MODCC1TYPEC
            CODE    A72DH     0023H     UNIT         ?PR?CHIP_ENTERINTOSWITCH_HANDLE?MODCC1TYPEC
            CODE    A750H     0023H     UNIT         ?PR?DRV_DPRX_POWERONINIT?DRVDPRX
            CODE    A773H     0022H     UNIT         ?PR?CHIP_DVBUSUCC_DOTRIG?MODCC2MSGTYPEC
            CODE    A795H     0022H     UNIT         ?PR?_CHIP_USB3GEN1_MUX?DRVDPRX
            CODE    A7B7H     0021H     UNIT         ?PR?LT8711GXE_DPRXAUDIOINFOCVT?LT8711GXE
            CODE    A7D8H     0021H     UNIT         ?PR?DRV_HDMITX_TMDSVIDEOON?DRVHDMITX
            CODE    A7F9H     0020H     UNIT         ?PR?CHIP_UCCEMARKREG_RESET?MODCC1TYPEC
            CODE    A819H     001FH     UNIT         ?PR?MOD_DPRX_HPDLOWACTION?MODDPRX
            CODE    A838H     001FH     UNIT         ?PR?MOD_HDMITX_HPDLOWACTION?MODHDMITX
            CODE    A857H     001FH     UNIT         ?PR?_DRV_HDMITX_FRLTXRST?DRVHDMITX
            CODE    A876H     001FH     UNIT         ?PR?_DRV_SYSTEM_INTCLR?DRVSYSTEM
            CODE    A895H     001EH     UNIT         ?PR?MOD_EDID_UPDATE?MODHDMIEDID
            CODE    A8B3H     001EH     UNIT         ?PR?DRV_AUDIO_INIT?DRVAUDIO
            CODE    A8D1H     001EH     UNIT         ?PR?DRV_DPRX_DESKEWCHECK?DRVDPRX
            CODE    A8EFH     001EH     UNIT         ?PR?DRV_HDMITX_DEBOUNCESET?DRVHDMITX
            CODE    A90DH     001EH     UNIT         ?PR?DRV_HDMITX_ENCPATH?DRVHDMITX
            CODE    A92BH     001EH     UNIT         ?PR?MOD_HMDITX_POWERONINIT?DRVHDMITX
            CODE    A949H     001EH     UNIT         ?PR?_OCM_DELAY1MS?OCMTIMER
            CODE    A967H     001DH     UNIT         ?PR?_MOD_AUX_SENDZERODATA?MODAUXMSG
            CODE    A984H     001DH     UNIT         ?PR?CHIP_UCC_OFFSCAN?MODCC1TYPEC
            CODE    A9A1H     001DH     UNIT         ?PR?MOD_FRLTX_PARAMINIT?MODFRLTRAIN
            CODE    A9BEH     001DH     UNIT         ?PR?DRV_HDMITX_TXPLLINIT?DRVHDMITX
            CODE    A9DBH     001DH     UNIT         ?PR?_DRV_HDMITX_TXPLLDIVCAL?DRVHDMITX
            CODE    A9F8H     001DH     UNIT         ?PR?_DRV_CC_LOGICRST?DRVTYPECDCC
BL51 BANKED LINKER/LOCATER V6.22                                                      06/21/2023  15:37:55  PAGE 45


            CODE    AA15H     001CH     UNIT         ?PR?DRV_DPRX_DIGITALINIT?DRVDPRX
            CODE    AA31H     001BH     UNIT         ?PR?_DRV_HDMITX_READI2CBYTE?DRVDDCMAST
            CODE    AA4CH     001AH     UNIT         ?PR?_MOD_WRITE_DPCD107?MODAUXMSG
            CODE    AA66H     0019H     UNIT         ?PR?CHIP_5ACABLE_INIT?MODCC1TYPEC
            CODE    AA7FH     0018H     UNIT         ?PR?DRV_HDMITX_DOBLYHDRENABLE?DRVHDMITX
            CODE    AA97H     0018H     UNIT         ?PR?DRV_HDMITX_STATICHDRENABLE?DRVHDMITX
            CODE    AAAFH     0018H     UNIT         ?PR?DRV_HDMITX_DYMICHDRENABLE?DRVHDMITX
            CODE    AAC7H     0018H     UNIT         ?PR?OCM_TIMER1_UARTBAUDRATESET?OCMTIMER
            CODE    AADFH     0018H     UNIT         ?PR?OCM_TIMER_INIT?OCMTIMER
            CODE    AAF7H     0016H     UNIT         ?PR?MOD_DPRX_POWERONINIT?MODDPRX
            CODE    AB0DH     0016H     UNIT         ?PR?MOD_DPRX_SOURCEDETECTION?MODDPRX
            CODE    AB23H     0016H     UNIT         ?PR?MOD_HDMITX_POWERONINIT?MODHDMITX
            CODE    AB39H     0016H     UNIT         ?PR?DRV_DPRX_ECCERRORCHECK?DRVDPRX
            CODE    AB4FH     0015H     UNIT         ?PR?_STRLEN?STRLEN
            CODE    AB64H     0014H     UNIT         ?PR?MOD_UCC_COMDONEFLAG?MODCC1TYPEC
            CODE    AB78H     0014H     UNIT         ?PR?MOD_FRLTX_TXOUTPROC?MODFRLTRAIN
            CODE    AB8CH     0014H     UNIT         ?PR?DRV_DPRX_PPSINFOCHECK?DRVDPRX
            CODE    ABA0H     0013H     UNIT         ?PR?_DRV_DPRX_CDRSET?DRVDPRX
            CODE    ABB3H     0013H     UNIT         ?PR?DRV_HDMITX_TMDSDIVLINKCLKSET?DRVHDMITX
            CODE    ABC6H     0012H     UNIT         ?PR?MOD_DPRX_HPDIRQ?MODDPRX
            CODE    ABD8H     0012H     UNIT         ?PR?_MOD_HDMIEDID_BLOCK0ANALYSIS?MODHDMIEDID
            CODE    ABEAH     0012H     UNIT         ?PR?_MOD_HDMIEDID_DISPLAYIDBLOCKANALYSIS?MODHDMIEDID
            CODE    ABFCH     0012H     UNIT         ?PR?DRV_DPRX_MSAPKTDETEN?DRVDPRX
            CODE    AC0EH     0012H     UNIT         ?PR?_DRV_HARDRESET_SET?DRVTYPECDCC
            CODE    AC20H     0011H     UNIT         ?PR?_DRV_DPRX_AUXSWAP?DRVDPRX
            CODE    AC31H     0011H     UNIT         ?PR?_DRV_DPRX_EQMODE?DRVDPRX
            CODE    AC42H     0010H     UNIT         ?PR?CHIP_HARDRST_REC_HANDLE?MODCC1TYPEC
            CODE    AC52H     0010H     UNIT         ?PR?DRV_DPRX_AUXDCDET?DRVDPRX
            CODE    AC62H     0010H     UNIT         ?PR?DRV_IO_UARTSET?DRVGPIO
            CODE    AC72H     0010H     UNIT         ?PR?DRV_FRTRIG_SEND?DRVTYPECDCC
            CODE    AC82H     0010H     UNIT         ?PR?OCM_TIMER0_SYSTIMERINIT?OCMTIMER
            CODE    AC92H     000FH     UNIT         ?PR?MOD_AUX_GETTRAINDONESTATUS?MODAUXMSG
            CODE    ACA1H     000FH     UNIT         ?PR?CHIP_CHUNKMESSAGE_HANDLE?MODCC1BASICTYPEC
            CODE    ACB0H     000FH     UNIT         ?PR?MOD_HDMIEDID_INIT?MODHDMIEDID
            CODE    ACBFH     000FH     UNIT         ?PR?_DRV_DPRX_PIENABLE?DRVDPRX
            CODE    ACCEH     000FH     UNIT         ?PR?OCM_TIMER2_INTSET?OCMTIMER
            CODE    ACDDH     000EH     UNIT         ?PR?MOD_DPRX_PCRSTABLECHECK?MODDPRX
            CODE    ACEBH     000DH     UNIT         ?PR?MOD_SEND_NACKREPLY?MODAUXMSG
            CODE    ACF8H     000DH     UNIT         ?PR?MOD_HDMITX_FRLUPDATECHG?MODHDMITX
            CODE    AD05H     000DH     UNIT         ?PR?_DRV_DPRX_DIVSET?DRVDPRX
            CODE    AD12H     000DH     UNIT         ?PR?DRV_HDMITX_HPDDET?DRVHDMITX
            CODE    AD1FH     000DH     UNIT         ?PR?DRV_HDMITX_DATASEL?DRVHDMITX
            CODE    AD2CH     000CH     UNIT         ?PR?_MOD_READ_DPCD200?MODAUXMSG
            CODE    AD38H     000CH     UNIT         ?PR?MOD_AUX_GETRETRAINSTATUS?MODAUXMSG
            CODE    AD44H     000CH     UNIT         ?PR?MOD_FRLTX_LMTXPLLPROC?MODFRLTRAIN
            CODE    AD50H     000CH     UNIT         ?PR?_ABS?ABS
            CODE    AD5CH     000BH     UNIT         ?PR?_MOD_READ_DPCD202?MODAUXMSG
            CODE    AD67H     000BH     UNIT         ?PR?_MOD_READ_DPCD203?MODAUXMSG
            CODE    AD72H     000BH     UNIT         ?PR?_MOD_WRITE_DPCD101?MODAUXMSG
            CODE    AD7DH     000BH     UNIT         ?PR?_CHIP_CCMSGID_CAL?MODCCSHAREDTYPEC
            CODE    AD88H     000BH     UNIT         ?PR?MOD_FRLTX_TXPLLPROC?MODFRLTRAIN
            CODE    AD93H     000BH     UNIT         ?PR?_DRV_DPRX_DPCD_HIGHADDRWRITE?DRVDPRX
            CODE    AD9EH     000BH     UNIT         ?PR?DRV_DPRX_ERRCLR?DRVDPRX
            CODE    ADA9H     000BH     UNIT         ?PR?_OCM_DELAY1US?OCMTIMER
            CODE    ADB4H     000BH     UNIT         ?PR?OCM_TIMER_PARAINIT?OCMTIMER
            CODE    ADBFH     000AH     UNIT         ?PR?MOD_SEND_ACKREPLY?MODAUXMSG
            CODE    ADC9H     000AH     UNIT         ?PR?_DRV_SYS_CHIPRXSRCSEL?DRVSYSTEM
BL51 BANKED LINKER/LOCATER V6.22                                                      06/21/2023  15:37:55  PAGE 46


            CODE    ADD3H     0009H     UNIT         ?PR?LT8711GXE_MAIN_SCAN?LT8711GXE
            CODE    ADDCH     0009H     UNIT         ?PR?_MOD_WRITE_DPCD103?MODAUXMSG
            CODE    ADE5H     0009H     UNIT         ?PR?MOD_DPRX_HANDLER?MODDPRX
            CODE    ADEEH     0009H     UNIT         ?PR?MOD_HDMITX_HANDLER?MODHDMITX
            CODE    ADF7H     0009H     UNIT         ?PR?OCM_EXTERNAL0_INTSET?OCMTIMER
            CODE    AE00H     0009H     UNIT         ?PR?OCM_EXTERNAL2_INTSET?OCMTIMER
            CODE    AE09H     0009H     UNIT         ?PR?OCM_TIMER2FORPSRDY_SET?OCMTIMER
            CODE    AE12H     0008H     UNIT         ?PR?DRV_AUDIO_DPININIT?DRVAUDIO
            CODE    AE1AH     0008H     UNIT         ?PR?_DRV_HDCPRX_ENABLE?DRVHDCPRX
            CODE    AE22H     0008H     UNIT         ?PR?DRV_HDMITX_DCDET?DRVHDMITX
            CODE    AE2AH     0008H     UNIT         ?PR?DRV_HDMITX_FRLVIDSET?DRVHDMITX
            CODE    AE32H     0008H     UNIT         ?PR?OCM_TIMER2_SET?OCMTIMER
            CODE    AE3AH     0007H     UNIT         ?PR?DRV_AUDIO_ACRPLLINIT?DRVAUDIO
            CODE    AE41H     0007H     UNIT         ?PR?DRV_HDMITX_PPSSRAMSET?DRVHDMITX
            CODE    AE48H     0007H     UNIT         ?PR?OCM_EXTERNAL1_INTSET?OCMTIMER
            CODE    AE4FH     0007H     UNIT         ?PR?OCM_TR2_VALUESET?OCMTIMER
            CODE    AE56H     0006H     UNIT         ?PR?MOD_DPRX_JUDGETIMINGHBE?MODDPRX
            CODE    AE5CH     0006H     UNIT         ?PR?MOD_DPRX_COLORSPACE?MODDPRX
            CODE    AE62H     0006H     UNIT         ?PR?MOD_DPRX_COLORDEPTH?MODDPRX
            CODE    AE68H     0006H     UNIT         ?PR?MOD_DPRX_EQSET?MODDPRXEQ
            CODE    AE6EH     0006H     UNIT         ?PR?MOD_FRLTX_HDMI21ENGET?MODFRLTRAIN
            CODE    AE74H     0006H     UNIT         ?PR?MOD_EDID_MODEDET?MODHDMIEDID
            CODE    AE7AH     0006H     UNIT         ?PR?_DRV_SYS_DHTXSRCSEL?DRVSYSTEM
            CODE    AE80H     0003H     UNIT         ?PR?MOD_DPRX_GPIOINIT?MODDPRX
            CODE    AE83H     0003H     UNIT         ?PR?MOD_DPRX_DPORTYPECDET?MODDPRX
            CODE    AE86H     0003H     UNIT         ?PR?MOD_DPRX_VARINIT?MODDPRX
            CODE    AE89H     0003H     UNIT         ?PR?_MOD_DPRX_MSGNOTIFY?MODDPRX
            CODE    AE8CH     0003H     UNIT         ?PR?MOD_HDMITX_VARINIT?MODHDMITX
            CODE    AE8FH     0003H     UNIT         ?PR?_MOD_HDMITX_MSGNOTIFY?MODHDMITX
            CODE    AE92H     0003H     UNIT         ?PR?MOD_HDMITX_NEEDOPENDSCENC?MODHDMITX
            CODE    AE95H     0003H     UNIT         ?PR?DRV_AUDIO_ACRMUTE?DRVAUDIO
            CODE    AE98H     0003H     UNIT         ?PR?DRV_DPRX_DSCDECSTATE?DRVDPRX
            CODE    AE9BH     0003H     UNIT         ?PR?DRV_HDCPRX_VERGET?DRVHDCPRX
            CODE    AE9EH     0001H     UNIT         ?PR?_MOD_READ_DPCD201?MODAUXMSG
            CODE    AE9FH     0001H     UNIT         ?PR?_MOD_WRITE_DPCD104?MODAUXMSG
            CODE    AEA0H     0001H     UNIT         ?PR?_MOD_WRITE_DPCD105?MODAUXMSG
            CODE    AEA1H     0001H     UNIT         ?PR?_MOD_WRITE_DPCD106?MODAUXMSG
            CODE    AEA2H     0001H     UNIT         ?PR?_MOD_WRITE_DPCD201?MODAUXMSG
            CODE    AEA3H     0001H     UNIT         ?PR?MOD_CCTX_LOOP?MODCC2TYPEC
            CODE    AEA4H     0001H     UNIT         ?PR?MOD_DPRX_MSTHANDLER?MODDPRX
            CODE    AEA5H     0001H     UNIT         ?PR?MOD_HDMITX_MAXTMDSCHARRATECHK?MODHDMITX
            CODE    AEA6H     0001H     UNIT         ?PR?MOD_CCRX_LOOP?MODRXTYPEC
            CODE    AEA7H     0001H     UNIT         ?PR?MOD_CCTX_LOOP?MODTXTYPEC
            CODE    AEA8H     0001H     UNIT         ?PR?DRV_AUDIO_I2SININIT?DRVAUDIO
            CODE    AEA9H     0001H     UNIT         ?PR?DRV_AUDIO_HDMIININIT?DRVAUDIO
            CODE    AEAAH     0001H     UNIT         ?PR?DRV_AUDIO_SPDIFININIT?DRVAUDIO
            CODE    AEABH     0001H     UNIT         ?PR?DRV_AUDIO_I2SOUTINIT?DRVAUDIO
            CODE    AEACH     0001H     UNIT         ?PR?DRV_AUDIO_DPOUTINIT?DRVAUDIO
            CODE    AEADH     0001H     UNIT         ?PR?DRV_AUDIO_SPDIFOUTINIT?DRVAUDIO
            CODE    AEAEH     0001H     UNIT         ?PR?DRV_AUDIO_EARCOUTINIT?DRVAUDIO
            CODE    AEAFH     0001H     UNIT         ?PR?DRV_DPRX_TIMINGHBE?DRVDPRX
            CODE    AEB0H     0001H     UNIT         ?PR?DRV_DPRX_TIMINGFIFORESET?DRVDPRX
            CODE    AEB1H     0001H     UNIT         ?PR?_DRV_GPIO_OUTSIGNALSET?DRVGPIO
            CODE    AEB2H     0001H     UNIT         ?PR?DRV_HDCPRX_STATECLEAR?DRVHDCPRX
            CODE    AEB3H     0001H     UNIT         ?PR?DRV_CCRX_PHYDIGSET?DRVRXTYPEC
            CODE    AEB4H     0001H     UNIT         ?PR?_DRV_SYSTEM_PKTHEADSET?DRVSYSTEM
            CODE    AEB5H     0001H     UNIT         ?PR?DRV_CCTX_PHYDIGSET?DRVTXTYPEC
BL51 BANKED LINKER/LOCATER V6.22                                                      06/21/2023  15:37:55  PAGE 47


            CODE    AEB6H     0001H     UNIT         ?CO?OCMPRINT
            CODE    AEB7H     0001H     UNIT         ?PR?OCM_TIMER_UARTPARAINIT?OCMTIMER
            CODE    AEB8H     0001H     UNIT         ?PR?OCM_TIMER_UARTDATAGET?OCMTIMER



OVERLAY MAP OF MODULE:   LT2204 (?C_STARTUP)


SEGMENT                                             BIT_GROUP          DATA_GROUP          IDATA_GROUP         XDATA_GRO
>> UP
  +--> CALLED SEGMENT                            START    LENGTH     START    LENGTH     START    LENGTH     START    LE
>> NGTH
------------------------------------------------------------------------------------------------------------------------
>> ----
?C_C51STARTUP                                    -----    -----      -----    -----      -----    -----      -----    --
>> ---
  +--> ?PR?MAIN?MAIN
  +--> ?C_INITSEG

?PR?MAIN?MAIN                                    -----    -----      -----    -----      -----    -----      -----    --
>> ---
  +--> ?PR?DRV_SYSTEM_XTALSET?DRVSYSTEM
  +--> ?PR?OCM_TIMER_INIT?OCMTIMER
  +--> ?PR?CHIP_CC_VARINIT?MODCC1TYPEC
  +--> ?PR?CHIP_DCC_TMPINI?MODCC1TYPEC
  +--> ?PR?DRV_IO_UARTSET?DRVGPIO
  +--> ?PR?APP_CHIPFW_READ?MAIN
  +--> ?PR?LT8711GXE_POWERONINIT?LT8711GXE
  +--> ?CO?MAIN
  +--> ?PR?_PRINTLT?OCMPRINT
  +--> ?PR?LT8711GXE_MAIN_SCAN?LT8711GXE

?PR?DRV_SYSTEM_XTALSET?DRVSYSTEM                 -----    -----      -----    -----      -----    -----      04B1H    00
>> 01H
  +--> ?PR?_OCM_DELAY1MS?OCMTIMER

?PR?OCM_TIMER_INIT?OCMTIMER                      -----    -----      -----    -----      -----    -----      -----    --
>> ---
  +--> ?PR?OCM_TIMER_PARAINIT?OCMTIMER
  +--> ?PR?OCM_TIMER0_SYSTIMERINIT?OCMTIMER
  +--> ?PR?OCM_TIMER1_UARTBAUDRATESET?OCMTIMER
  +--> ?PR?OCM_EXTERNAL0_INTSET?OCMTIMER
  +--> ?PR?OCM_EXTERNAL1_INTSET?OCMTIMER
  +--> ?PR?OCM_EXTERNAL2_INTSET?OCMTIMER
  +--> ?PR?OCM_TIMER2_INTSET?OCMTIMER
  +--> ?PR?OCM_TIMER_UARTPARAINIT?OCMTIMER

?PR?CHIP_CC_VARINIT?MODCC1TYPEC                  -----    -----      -----    -----      -----    -----      -----    --
>> ---
  +--> ?PR?CHIP_5ACABLE_INIT?MODCC1TYPEC
  +--> ?CO?MODCC1TYPEC
  +--> ?PR?DRV_HDMITX_HPDDET?DRVHDMITX

?PR?DRV_IO_UARTSET?DRVGPIO                       -----    -----      -----    -----      -----    -----      -----    --
>> ---
  +--> ?PR?_DRV_GPIO_MODESET?DRVGPIO
BL51 BANKED LINKER/LOCATER V6.22                                                      06/21/2023  15:37:55  PAGE 48


  +--> ?PR?_DRV_GPIO_OUTSIGNALSET?DRVGPIO

?PR?LT8711GXE_POWERONINIT?LT8711GXE              -----    -----      -----    -----      -----    -----      -----    --
>> ---
  +--> ?PR?MOD_DPRX_POWERONINIT?MODDPRX
  +--> ?PR?MOD_HDMITX_POWERONINIT?MODHDMITX
  +--> ?PR?_DRV_SYS_DECPOWERDOMAIN?DRVSYSTEM
  +--> ?PR?_DRV_SYS_ENCPOWERDOMAIN?DRVSYSTEM
  +--> ?PR?_DRV_SYS_LMTXPOWERDOMAIN?DRVSYSTEM

?PR?_PRINTLT?OCMPRINT                            -----    -----      -----    -----      -----    -----      04D1H    00
>> B0H
  +--> ?CO?OCMPRINT
  +--> ?PR?_VSPRINTF?VSPRINTF
  +--> ?PR?_STRLEN?STRLEN
  +--> ?PR?PUTCHAR?PUTCHAR

?PR?_VSPRINTF?VSPRINTF                           -----    -----      -----    -----      -----    -----      0581H    00
>> 06H
  +--> ?PR?PRINTF?PRINTF

?PR?PRINTF?PRINTF                                0020H.0  0001H.1    0008H    0005H      -----    -----      0587H    00
>> 28H
  +--> ?PR?PUTCHAR?PUTCHAR

?PR?LT8711GXE_MAIN_SCAN?LT8711GXE                -----    -----      -----    -----      -----    -----      -----    --
>> ---
  +--> ?PR?MOD_CCRX_LOOP?MODCC1TYPEC
  +--> ?PR?MOD_DPRX_HANDLER?MODDPRX
  +--> ?PR?MOD_HDMITX_HANDLER?MODHDMITX

?PR?MOD_CCRX_LOOP?MODCC1TYPEC                    -----    -----      -----    -----      -----    -----      -----    --
>> ---
  +--> ?PR?CHIP_UCC_FLIP?MODCC1TYPEC
  +--> ?PR?CHIP_DCC_FRDISCHARGE?MODCC1TYPEC
  +--> ?PR?CHIP_UCC_PSSOURCEOFFDET?MODCC1TYPEC
  +--> ?PR?CHIP_DCC_WITHPDDET?MODCC1TYPEC
  +--> ?PR?CHIP_UCC_TOGGLE?MODCC1TYPEC
  +--> ?PR?CHIP_UCC_SOURCECAPSEND?MODCC1TYPEC
  +--> ?PR?CHIP_UCC_PRSWAPSCAN?MODCC1TYPEC
  +--> ?PR?CHIP_UCC_OFFDET?MODCC1TYPEC
  +--> ?PR?_CHIP_UCC_SWAPSCAN?MODCC1TYPEC
  +--> ?PR?CHIP_UCC_OFFACTION?MODCC1TYPEC
  +--> ?PR?CHIP_TSWAPSOURCESTART?MODCC1TYPEC
  +--> ?PR?CHIP_HARDRST_REC_HANDLE?MODCC1TYPEC
  +--> ?PR?CHIP_HARDRST_SEND_HANDLE?MODCC1TYPEC
  +--> ?PR?CHIP_RP_SOFTRST_HANDLE?MODCC1TYPEC
  +--> ?PR?CHIP_ENTERINTOSWITCH_HANDLE?MODCC...
  +--> ?PR?CHIP_NINTENDOSWITCH_WAKEUP_HANDLE...
  +--> ?PR?CHIP_NINTENDOSWITCH_HDMIHPD_HANDL...
  +--> ?PR?CHIP_HUBRESET_HANDLE?MODCC1TYPEC

?PR?CHIP_DCC_FRDISCHARGE?MODCC1TYPEC             -----    -----      -----    -----      -----    -----      04B1H    00
>> 01H
  +--> ?PR?_CHIP_DCC_ONDET?MODCC1TYPEC
  +--> ?PR?_OCM_DELAY1MS?OCMTIMER

BL51 BANKED LINKER/LOCATER V6.22                                                      06/21/2023  15:37:55  PAGE 49


?PR?_CHIP_DCC_ONDET?MODCC1TYPEC                  -----    -----      -----    -----      -----    -----      05B9H    00
>> 01H
  +--> ?PR?_OCM_DELAY1US?OCMTIMER

?PR?CHIP_UCC_PSSOURCEOFFDET?MODCC1TYPEC          -----    -----      -----    -----      -----    -----      04B1H    00
>> 01H
  +--> ?PR?_OCM_TIMER_UPDLOCALTIME?OCMTIMER
  +--> ?PR?_OCM_TIMER_ISOVERFLOW?OCMTIMER

?PR?_OCM_TIMER_UPDLOCALTIME?OCMTIMER             -----    -----      -----    -----      -----    -----      04B4H    00
>> 07H
  +--> ?PR?_ABS?ABS

?PR?_OCM_TIMER_ISOVERFLOW?OCMTIMER               -----    -----      -----    -----      -----    -----      04B4H    00
>> 0FH

?PR?CHIP_DCC_WITHPDDET?MODCC1TYPEC               -----    -----      -----    -----      -----    -----      04B1H    00
>> 03H
  +--> ?PR?CHIP_DCC_FLIPDET?MODCC1TYPEC
  +--> ?PR?_CHIP_DCC_ONDET?MODCC1TYPEC
  +--> ?CO?MODCC1TYPEC
  +--> ?PR?_PRINTLT?OCMPRINT
  +--> ?PR?_OCM_DELAY1MS?OCMTIMER
  +--> ?PR?_DRV_HARDRESET_SET?DRVTYPECDCC
  +--> ?PR?CHIP_UCC_OFFDET?MODCC1TYPEC

?PR?CHIP_DCC_FLIPDET?MODCC1TYPEC                 -----    -----      -----    -----      -----    -----      -----    --
>> ---
  +--> ?PR?_CHIP_DCC_ONDET?MODCC1TYPEC

?PR?CHIP_UCC_OFFDET?MODCC1TYPEC                  -----    -----      -----    -----      -----    -----      05C1H    00
>> 02H
  +--> ?PR?CHIP_UCC_OFFSCAN?MODCC1TYPEC
  +--> ?PR?_OCM_DELAY1US?OCMTIMER

?PR?CHIP_UCC_TOGGLE?MODCC1TYPEC                  -----    -----      -----    -----      -----    -----      04B1H    00
>> 01H
  +--> ?PR?_OCM_TIMER_UPDLOCALTIME?OCMTIMER
  +--> ?PR?_CHIP_DCC_ONDET?MODCC1TYPEC
  +--> ?PR?CHIP_UCC_RPONSCAN?DRVTYPECDCC
  +--> ?PR?_CHIP_UCCLOCK_VARISET?MODCC1TYPEC
  +--> ?PR?CHIP_UCC_RDONSCAN?DRVTYPECDCC
  +--> ?PR?_OCM_TIMER_ISOVERFLOW?OCMTIMER
  +--> ?PR?_CHIP_UCC_TOGGLEINIT?MODCC1TYPEC

?PR?CHIP_UCC_RPONSCAN?DRVTYPECDCC                -----    -----      -----    -----      -----    -----      05B8H    00
>> 01H
  +--> ?PR?_OCM_DELAY1US?OCMTIMER

?PR?_CHIP_UCCLOCK_VARISET?MODCC1TYPEC            -----    -----      -----    -----      -----    -----      04B2H    00
>> 01H
  +--> ?CO?MODCC1TYPEC
  +--> ?PR?_PRINTLT?OCMPRINT
  +--> ?PR?DRV_HDMITX_HPDDET?DRVHDMITX
  +--> ?PR?_CHIP_UCC_FLIPDET?MODCC1TYPEC

?PR?_CHIP_UCC_FLIPDET?MODCC1TYPEC                -----    -----      -----    -----      -----    -----      05B8H    00
BL51 BANKED LINKER/LOCATER V6.22                                                      06/21/2023  15:37:55  PAGE 50


>> 02H
  +--> ?PR?_OCM_DELAY1US?OCMTIMER
  +--> ?PR?_CHIP_USB3GEN1_MUX?DRVDPRX

?PR?CHIP_UCC_RDONSCAN?DRVTYPECDCC                -----    -----      -----    -----      -----    -----      04B2H    00
>> 01H
  +--> ?PR?_OCM_DELAY1US?OCMTIMER

?PR?_CHIP_UCC_TOGGLEINIT?MODCC1TYPEC             -----    -----      -----    -----      -----    -----      -----    --
>> ---
  +--> ?PR?CHIP_5ACABLE_INIT?MODCC1TYPEC
  +--> ?PR?_DRV_POWERROLE_SET?DRVTYPECDCC

?PR?CHIP_UCC_SOURCECAPSEND?MODCC1TYPEC           -----    -----      -----    -----      -----    -----      04B1H    00
>> 01H
  +--> ?PR?_OCM_TIMER_ISOVERFLOW?OCMTIMER
  +--> ?PR?_OCM_TIMER_UPDLOCALTIME?OCMTIMER
  +--> ?PR?CHIP_UCC_RPONSCAN?DRVTYPECDCC
  +--> ?PR?CHIP_UCCOFFTMP_SET?MODCC1TYPEC
  +--> ?PR?CHIP_UCCEMARK_HANDLE?MODCC1TYPEC
  +--> ?PR?_OCM_DELAY1MS?OCMTIMER
  +--> ?PR?CHIP_UCCEMARKREG_RESET?MODCC1TYPEC
  +--> ?PR?_DRV_RPCUR_SEL?DRVTYPECDCC
  +--> ?PR?CHIP_UCCSEND_SOURCECAP?MODCC1BASI...
  +--> ?PR?_CHIP_UCC_FLIPDET?MODCC1TYPEC
  +--> ?PR?CHIP_UCCMESSAGE_SEND?MODCC1BASICT...
  +--> ?PR?_CHIP_UCC_MSGTYPECAL?MODCC1TYPEC

?PR?CHIP_UCCEMARK_HANDLE?MODCC1TYPEC             -----    -----      -----    -----      -----    -----      -----    --
>> ---
  +--> ?PR?CHIP_UCCRA_DET?MODCC1TYPEC
  +--> ?PR?_OCM_DELAY1MS?OCMTIMER
  +--> ?PR?CHIP_SOP1MSG_SEND?MODCC1TYPEC

?PR?CHIP_UCCRA_DET?MODCC1TYPEC                   -----    -----      -----    -----      -----    -----      -----    --
>> ---
  +--> ?PR?CHIP_UCC_RPONSCAN?DRVTYPECDCC

?PR?CHIP_SOP1MSG_SEND?MODCC1TYPEC                -----    -----      -----    -----      -----    -----      04B2H    00
>> 01H
  +--> ?PR?_OCM_DELAY1MS?OCMTIMER
  +--> ?CO?MODCC1TYPEC
  +--> ?PR?CHIP_UCCMESSAGESOP1_SEND?MODCC1BA...

?PR?CHIP_UCCSEND_SOURCECAP?MODCC1BASI...         -----    -----      -----    -----      -----    -----      -----    --
>> ---
  +--> ?CO?MODCC1TYPEC

?PR?CHIP_UCCMESSAGE_SEND?MODCC1BASICT...         -----    -----      -----    -----      -----    -----      05C3H    00
>> 02H
  +--> ?CO?MODCC1TYPEC
  +--> ?PR?_CHIP_CCMSGID_CAL?MODCCSHAREDTYPEC
  +--> ?PR?_CHIP_CCMESSAGE_RESEND?MODCCSHARE...

?PR?_CHIP_CCMESSAGE_RESEND?MODCCSHARE...         -----    -----      -----    -----      -----    -----      05C5H    00
>> 01H
  +--> ?PR?OCM_TR2_VALUESET?OCMTIMER
BL51 BANKED LINKER/LOCATER V6.22                                                      06/21/2023  15:37:55  PAGE 51



?PR?CHIP_UCC_PRSWAPSCAN?MODCC1TYPEC              -----    -----      -----    -----      -----    -----      -----    --
>> ---
  +--> ?PR?_OCM_TIMER_UPDLOCALTIME?OCMTIMER
  +--> ?PR?_OCM_TIMER_ISOVERFLOW?OCMTIMER
  +--> ?PR?_CHIP_UCC_FLIPDET?MODCC1TYPEC
  +--> ?PR?_OCM_DELAY1MS?OCMTIMER
  +--> ?PR?CHIP_UCC_PRSWAPSEND?MODCC1TYPEC

?PR?CHIP_UCC_PRSWAPSEND?MODCC1TYPEC              -----    -----      -----    -----      -----    -----      -----    --
>> ---
  +--> ?PR?_CHIP_DCC_ONDET?MODCC1TYPEC
  +--> ?PR?_DRV_CC_LOGICRST?DRVTYPECDCC
  +--> ?PR?CHIP_UCC_OFFDET?MODCC1TYPEC
  +--> ?CO?MODCC1TYPEC
  +--> ?PR?_PRINTLT?OCMPRINT
  +--> ?PR?CHIP_UCC_OFFACTION?MODCC1TYPEC
  +--> ?PR?_CHIP_UCC_MSGTYPECAL?MODCC1TYPEC
  +--> ?PR?CHIP_UCCMESSAGE_SEND?MODCC1BASICT...

?PR?CHIP_UCC_OFFACTION?MODCC1TYPEC               -----    -----      -----    -----      -----    -----      04B1H    00
>> 02H
  +--> ?CO?MODCC1TYPEC
  +--> ?PR?_PRINTLT?OCMPRINT
  +--> ?PR?_OCM_DELAY1MS?OCMTIMER
  +--> ?PR?_CHIP_UCC_SWAPSCAN?MODCC1TYPEC
  +--> ?PR?_DRV_CC_LOGICRST?DRVTYPECDCC
  +--> ?PR?_DRV_POWERROLE_SET?DRVTYPECDCC
  +--> ?PR?CHIP_CC_VARINIT?MODCC1TYPEC
  +--> ?PR?CHIP_DCCMESSAGE_SEND?MODCC2BASICT...

?PR?_CHIP_UCC_SWAPSCAN?MODCC1TYPEC               -----    -----      -----    -----      -----    -----      04B3H    00
>> 01H
  +--> ?PR?_OCM_TIMER_ISOVERFLOW?OCMTIMER
  +--> ?PR?CHIP_UCC_DRSWAPSEND?MODCC1TYPEC
  +--> ?PR?CHIP_UCC_WAITSEND?MODCC1TYPEC
  +--> ?PR?_OCM_TIMER_UPDLOCALTIME?OCMTIMER

?PR?CHIP_UCC_DRSWAPSEND?MODCC1TYPEC              -----    -----      -----    -----      -----    -----      -----    --
>> ---
  +--> ?PR?_DRV_RPCUR_SEL?DRVTYPECDCC
  +--> ?PR?_OCM_DELAY1MS?OCMTIMER
  +--> ?CO?MODCC1TYPEC
  +--> ?PR?CHIP_UCCMESSAGE_SEND?MODCC1BASICT...
  +--> ?PR?_CHIP_UCC_MSGTYPECAL?MODCC1TYPEC

?PR?CHIP_UCC_WAITSEND?MODCC1TYPEC                -----    -----      -----    -----      -----    -----      -----    --
>> ---
  +--> ?PR?CHIP_UCCMESSAGE_SEND?MODCC1BASICT...

?PR?CHIP_DCCMESSAGE_SEND?MODCC2BASICT...         -----    -----      -----    -----      -----    -----      05C1H    00
>> 02H
  +--> ?PR?_CHIP_CCMSGID_CAL?MODCCSHAREDTYPEC
  +--> ?PR?_CHIP_CCMESSAGE_RESEND?MODCCSHARE...

?PR?CHIP_TSWAPSOURCESTART?MODCC1TYPEC            -----    -----      -----    -----      -----    -----      -----    --
>> ---
BL51 BANKED LINKER/LOCATER V6.22                                                      06/21/2023  15:37:55  PAGE 52


  +--> ?PR?_DRV_RPCUR_SEL?DRVTYPECDCC
  +--> ?PR?CHIP_UCCEMARK_HANDLE?MODCC1TYPEC
  +--> ?PR?_OCM_DELAY1MS?OCMTIMER
  +--> ?PR?CHIP_UCCEMARKREG_RESET?MODCC1TYPEC
  +--> ?PR?CHIP_UCCSEND_SOURCECAP?MODCC1BASI...
  +--> ?PR?CHIP_UCCMESSAGE_SEND?MODCC1BASICT...

?PR?CHIP_HARDRST_REC_HANDLE?MODCC1TYPEC          -----    -----      -----    -----      -----    -----      -----    --
>> ---
  +--> ?PR?CHIP_UCC_OFFACTION?MODCC1TYPEC

?PR?CHIP_HARDRST_SEND_HANDLE?MODCC1TYPEC         -----    -----      -----    -----      -----    -----      -----    --
>> ---
  +--> ?PR?CHIP_UCC_OFFDET?MODCC1TYPEC
  +--> ?PR?_DRV_HARDRESET_SET?DRVTYPECDCC
  +--> ?PR?CHIP_UCC_OFFACTION?MODCC1TYPEC

?PR?CHIP_RP_SOFTRST_HANDLE?MODCC1TYPEC           -----    -----      -----    -----      -----    -----      -----    --
>> ---
  +--> ?PR?CHIP_UCC_RPONSCAN?DRVTYPECDCC
  +--> ?PR?_OCM_DELAY1MS?OCMTIMER
  +--> ?PR?CHIP_UCCSEND_SOURCECAP?MODCC1BASI...
  +--> ?PR?CHIP_UCCMESSAGE_SEND?MODCC1BASICT...
  +--> ?PR?_CHIP_UCC_MSGTYPECAL?MODCC1TYPEC

?PR?CHIP_ENTERINTOSWITCH_HANDLE?MODCC...         -----    -----      -----    -----      -----    -----      -----    --
>> ---
  +--> ?PR?_DRV_HARDRESET_SET?DRVTYPECDCC
  +--> ?PR?CHIP_UCC_OFFACTION?MODCC1TYPEC
  +--> ?PR?_DRV_RPCUR_SEL?DRVTYPECDCC

?PR?CHIP_NINTENDOSWITCH_WAKEUP_HANDLE...         -----    -----      -----    -----      -----    -----      -----    --
>> ---
  +--> ?PR?DRV_HDMITX_HPDDET?DRVHDMITX
  +--> ?PR?_OCM_DELAY1MS?OCMTIMER
  +--> ?PR?_MOD_UCC_HPDIRQSEND?MODCC1TYPEC
  +--> ?PR?_OCM_TIMER_UPDLOCALTIME?OCMTIMER
  +--> ?PR?_OCM_TIMER_ISOVERFLOW?OCMTIMER

?PR?_MOD_UCC_HPDIRQSEND?MODCC1TYPEC              -----    -----      -----    -----      -----    -----      04B2H    00
>> 01H
  +--> ?CO?MODCC1TYPEC
  +--> ?PR?_PRINTLT?OCMPRINT
  +--> ?PR?CHIP_UCCMESSAGE_SEND?MODCC1BASICT...

?PR?CHIP_NINTENDOSWITCH_HDMIHPD_HANDL...         -----    -----      -----    -----      -----    -----      04B1H    00
>> 01H
  +--> ?PR?DRV_HDMITX_HPDDET?DRVHDMITX
  +--> ?PR?_OCM_TIMER_UPDLOCALTIME?OCMTIMER
  +--> ?PR?_CHIP_DCC_ONDET?MODCC1TYPEC
  +--> ?PR?_OCM_TIMER_ISOVERFLOW?OCMTIMER

?PR?CHIP_HUBRESET_HANDLE?MODCC1TYPEC             -----    -----      -----    -----      -----    -----      -----    --
>> ---
  +--> ?PR?_OCM_TIMER_UPDLOCALTIME?OCMTIMER
  +--> ?PR?_OCM_TIMER_ISOVERFLOW?OCMTIMER
  +--> ?PR?_CHIP_UCC_FLIPDET?MODCC1TYPEC
BL51 BANKED LINKER/LOCATER V6.22                                                      06/21/2023  15:37:55  PAGE 53



?PR?MOD_DPRX_HANDLER?MODDPRX                     -----    -----      -----    -----      -----    -----      -----    --
>> ---
  +--> ?PR?MOD_DPRX_SOURCEDETPROC?MODDPRX
  +--> ?PR?MOD_DPRX_STATEJUDGE?MODDPRX
  +--> ?PR?MOD_DPRX_STATEHANDLER?MODDPRX

?PR?MOD_DPRX_SOURCEDETPROC?MODDPRX               -----    -----      -----    -----      -----    -----      -----    --
>> ---
  +--> ?PR?MOD_DPRX_SOURCEDETECTION?MODDPRX
  +--> ?CO?MODDPRX
  +--> ?PR?_PRINTLT?OCMPRINT
  +--> ?PR?_MOD_DPRX_SETSTATE?MODDPRX
  +--> ?PR?MOD_DPRX_HPDLOWACTION?MODDPRX
  +--> ?PR?_MOD_DPRX_MSGNOTIFY?MODDPRX

?PR?MOD_DPRX_SOURCEDETECTION?MODDPRX             -----    -----      -----    -----      -----    -----      -----    --
>> ---
  +--> ?PR?DRV_DPRX_AUXDCDET?DRVDPRX
  +--> ?PR?MOD_UCC_COMDONEFLAG?MODCC1TYPEC

?PR?_MOD_DPRX_SETSTATE?MODDPRX                   -----    -----      -----    -----      -----    -----      04B2H    00
>> 01H
  +--> ?CO?MODDPRX
  +--> ?PR?_PRINTLT?OCMPRINT
  +--> ?PR?_MOD_DPRX_MSGNOTIFY?MODDPRX

?PR?_MOD_DPRX_MSGNOTIFY?MODDPRX                  -----    -----      -----    -----      -----    -----      -----    --
>> ---
  +--> ?PR?_LT8711GXE_DPRXMSGNOTIFY?LT8711GXE

?PR?_LT8711GXE_DPRXMSGNOTIFY?LT8711GXE           -----    -----      -----    -----      -----    -----      -----    --
>> ---
  +--> ?PR?MOD_DPRX_PEAKCLKCAL?MODDPRX
  +--> ?PR?LT8711GXE_DPRXCSCORENCSEL?LT8711GXE
  +--> ?PR?LT8711GXE_DPRXCOLORINFOCVT?LT8711GXE
  +--> ?PR?_DRV_SYS_DECPOWERDOMAIN?DRVSYSTEM
  +--> ?PR?_DRV_SYS_ENCPOWERDOMAIN?DRVSYSTEM
  +--> ?PR?DRV_HDCPRX_VERGET?DRVHDCPRX
  +--> ?PR?LT8711GXE_DPRXAUDIOINFOCVT?LT8711GXE

?PR?MOD_DPRX_PEAKCLKCAL?MODDPRX                  -----    -----      -----    -----      -----    -----      -----    --
>> ---
  +--> ?PR?_DRV_SYSTEM_FMSET?DRVSYSTEM
  +--> ?PR?_OCM_DELAY1MS?OCMTIMER
  +--> ?PR?_DRV_SYSTEM_FMGET?DRVSYSTEM
  +--> ?CO?MODDPRX
  +--> ?PR?_PRINTLT?OCMPRINT

?PR?_DRV_SYSTEM_FMSET?DRVSYSTEM                  -----    -----      -----    -----      -----    -----      04B3H    00
>> 01H
  +--> ?CO?DRVSYSTEM
  +--> ?PR?_PRINTLT?OCMPRINT

?PR?_DRV_SYSTEM_FMGET?DRVSYSTEM                  -----    -----      -----    -----      -----    -----      04B3H    00
>> 05H
  +--> ?CO?DRVSYSTEM
BL51 BANKED LINKER/LOCATER V6.22                                                      06/21/2023  15:37:55  PAGE 54


  +--> ?PR?_PRINTLT?OCMPRINT

?PR?LT8711GXE_DPRXCSCORENCSEL?LT8711GXE          -----    -----      -----    -----      -----    -----      -----    --
>> ---
  +--> ?CO?LT8711GXE
  +--> ?PR?_PRINTLT?OCMPRINT

?PR?LT8711GXE_DPRXCOLORINFOCVT?LT8711GXE         -----    -----      -----    -----      -----    -----      04B3H    00
>> 1EH
  +--> ?PR?_DRV_DPRX_VIDCOLORINFOGET?DRVDPRX
  +--> ?CO?LT8711GXE
  +--> ?PR?_PRINTLT?OCMPRINT
  +--> ?PR?_MOD_HDMITX_COLORSPACECAL?MODSYSTEM
  +--> ?PR?_MOD_HDMITX_COLORRANGECAL?MODSYSTEM
  +--> ?PR?_MOD_HDMITX_COLORIMETRYCAL?MODSYSTEM
  +--> ?PR?_MOD_HDMITX_ASPECTRATIOCAL?MODSYSTEM
  +--> ?PR?_MOD_HDMITX_VICCAL?MODSYSTEM
  +--> ?PR?_MOD_HDMITX_COLORDEPTHCAL?MODSYSTEM

?PR?_DRV_DPRX_VIDCOLORINFOGET?DRVDPRX            -----    -----      -----    -----      -----    -----      -----    --
>> ---
  +--> ?PR?DRV_DPRX_VSCPKTCHECK?DRVDPRX

?PR?_MOD_HDMITX_COLORSPACECAL?MODSYSTEM          -----    -----      -----    -----      -----    -----      04D1H    00
>> 06H

?PR?_MOD_HDMITX_COLORRANGECAL?MODSYSTEM          -----    -----      -----    -----      -----    -----      04D1H    00
>> 06H

?PR?_MOD_HDMITX_COLORIMETRYCAL?MODSYSTEM         -----    -----      -----    -----      -----    -----      04D1H    00
>> 06H

?PR?_MOD_HDMITX_ASPECTRATIOCAL?MODSYSTEM         -----    -----      -----    -----      -----    -----      04D1H    00
>> 06H

?PR?_MOD_HDMITX_VICCAL?MODSYSTEM                 -----    -----      -----    -----      -----    -----      04D1H    00
>> 06H

?PR?_MOD_HDMITX_COLORDEPTHCAL?MODSYSTEM          -----    -----      -----    -----      -----    -----      04D1H    00
>> 06H

?PR?LT8711GXE_DPRXAUDIOINFOCVT?LT8711GXE         -----    -----      -----    -----      -----    -----      04B3H    00
>> 08H
  +--> ?PR?_DRV_DPRX_AUDIOINFOGET?DRVDPRX
  +--> ?PR?_MOD_AUDIO_HDMITXINFOCVT?MODSYSTEM

?PR?_MOD_AUDIO_HDMITXINFOCVT?MODSYSTEM           -----    -----      -----    -----      -----    -----      04BBH    00
>> 06H

?PR?MOD_DPRX_HPDLOWACTION?MODDPRX                -----    -----      -----    -----      -----    -----      -----    --
>> ---
  +--> ?PR?_DRV_DPRX_HPDSET?DRVDPRX
  +--> ?PR?_MOD_UCC_HPDIRQSEND?MODCC1TYPEC
  +--> ?PR?_MOD_DPRX_MSGNOTIFY?MODDPRX

?PR?_DRV_DPRX_HPDSET?DRVDPRX                     -----    -----      -----    -----      -----    -----      -----    --
>> ---
BL51 BANKED LINKER/LOCATER V6.22                                                      06/21/2023  15:37:55  PAGE 55


  +--> ?CO?DRVDPRX
  +--> ?PR?_PRINTLT?OCMPRINT

?PR?MOD_DPRX_STATEJUDGE?MODDPRX                  -----    -----      -----    -----      -----    -----      04B1H    00
>> 01H
  +--> ?PR?MOD_DPRX_HPDLOWACTION?MODDPRX
  +--> ?PR?MOD_AUX_GETRETRAINSTATUS?MODAUXMSG
  +--> ?CO?MODDPRX
  +--> ?PR?_PRINTLT?OCMPRINT
  +--> ?PR?MOD_DPRX_PCRCOLORSPACEUPDATA?MODDPRX
  +--> ?PR?MOD_DPRX_PCRMSAUPDATE?MODDPRX
  +--> ?PR?MOD_DPRX_PCRSTABLECHECK?MODDPRX
  +--> ?PR?DRV_AUDIO_ACRMUTE?DRVAUDIO
  +--> ?PR?MOD_DPRX_AUDIOCHANNELUPDATA?MODDPRX
  +--> ?PR?_MOD_DPRX_MSGNOTIFY?MODDPRX
  +--> ?PR?_MOD_DPRX_SETSTATE?MODDPRX

?PR?MOD_DPRX_PCRCOLORSPACEUPDATA?MODDPRX         -----    -----      -----    -----      -----    -----      04B2H    00
>> 0BH
  +--> ?PR?_DRV_DPRX_VIDCOLORINFOGET?DRVDPRX

?PR?MOD_DPRX_PCRMSAUPDATE?MODDPRX                -----    -----      -----    -----      -----    -----      04B2H    00
>> 02H

?PR?MOD_DPRX_AUDIOCHANNELUPDATA?MODDPRX          -----    -----      -----    -----      -----    -----      04B2H    00
>> 08H
  +--> ?PR?_DRV_DPRX_AUDIOINFOGET?DRVDPRX
  +--> ?PR?_ABS?ABS

?PR?MOD_DPRX_STATEHANDLER?MODDPRX                -----    -----      -----    -----      -----    -----      -----    --
>> ---
  +--> ?PR?MOD_DPRX_GPIOINIT?MODDPRX
  +--> ?PR?DRV_CCPHY_DIGSET?DRVTYPECDCC
  +--> ?PR?DRV_DPRX_POWERONINIT?DRVDPRX
  +--> ?PR?_OCM_TIMER_UPDLOCALTIME?OCMTIMER
  +--> ?PR?_OCM_TIMER_ISOVERFLOW?OCMTIMER
  +--> ?PR?MOD_DPRX_DPORTYPECDET?MODDPRX
  +--> ?PR?_DRV_SYS_CHIPRXSRCSEL?DRVSYSTEM
  +--> ?PR?MOD_DPRX_VARINIT?MODDPRX
  +--> ?PR?DRV_DPRX_SETTINGINIT?DRVDPRX
  +--> ?PR?MOD_DPRX_SOURCECHANNELSET?MODDPRX
  +--> ?PR?MOD_AUX_GETTRAINDONESTATUS?MODAUXMSG
  +--> ?PR?DRV_DPRX_VIDEOSTREAMFLAG?DRVDPRX
  +--> ?CO?MODDPRX
  +--> ?PR?_PRINTLT?OCMPRINT
  +--> ?PR?MOD_DPRX_EQSET?MODDPRXEQ
  +--> ?PR?DRV_DPRX_ERRCLR?DRVDPRX
  +--> ?PR?DRV_DPRX_DESKEWCHECK?DRVDPRX
  +--> ?PR?_DRV_DPRX_RESET?DRVDPRX
  +--> ?PR?DRV_DPRX_ECCERRORCHECK?DRVDPRX
  +--> ?PR?_DRV_SYS_DECPOWERDOMAIN?DRVSYSTEM
  +--> ?PR?DRV_DPRX_MSAPKTDETEN?DRVDPRX
  +--> ?PR?MOD_DPRX_PCRCOLORSPACEUPDATA?MODDPRX
  +--> ?PR?MOD_DPRX_PCRMSAUPDATE?MODDPRX
  +--> ?PR?DRV_DPRX_DSCDECSTATE?DRVDPRX
  +--> ?PR?_MOD_DPRX_SETSTATE?MODDPRX
  +--> ?PR?DRV_DPRX_PPSINFOCHECK?DRVDPRX
BL51 BANKED LINKER/LOCATER V6.22                                                      06/21/2023  15:37:55  PAGE 56


  +--> ?PR?MOD_DPRX_PCRSTABLECHECK?MODDPRX

?PR?MOD_DPRX_GPIOINIT?MODDPRX                    -----    -----      -----    -----      -----    -----      -----    --
>> ---
  +--> ?PR?LT8711GXE_CCGPIOINIT?LT8711GXE

?PR?LT8711GXE_CCGPIOINIT?LT8711GXE               -----    -----      -----    -----      -----    -----      -----    --
>> ---
  +--> ?PR?_DRV_GPIO_MODESET?DRVGPIO

?PR?DRV_CCPHY_DIGSET?DRVTYPECDCC                 -----    -----      -----    -----      -----    -----      -----    --
>> ---
  +--> ?PR?_DRV_CCRTERM_CALI?DRVTYPECDCC
  +--> ?PR?_DRV_CCRXRATE_SET?DRVTYPECDCC
  +--> ?PR?_DRV_CCTXRATE_SET?DRVTYPECDCC
  +--> ?PR?_DRV_CCINT_INIT?DRVTYPECDCC
  +--> ?PR?_DRV_CCDEBOUNCE_SET?DRVTYPECDCC
  +--> ?PR?_DRV_CCRXPHY_SET?DRVTYPECDCC

?PR?_DRV_CCRTERM_CALI?DRVTYPECDCC                -----    -----      -----    -----      -----    -----      04B1H    00
>> 02H
  +--> ?PR?_DRV_CC_LOGICRST?DRVTYPECDCC
  +--> ?PR?_OCM_DELAY1MS?OCMTIMER

?PR?DRV_DPRX_POWERONINIT?DRVDPRX                 -----    -----      -----    -----      -----    -----      -----    --
>> ---
  +--> ?PR?DRV_DPRX_AUXINIT?DRVDPRX
  +--> ?PR?DRV_DPRX_PHYINIT?DRVDPRX
  +--> ?PR?DRV_DPRX_RTERMCAL?DRVDPRX
  +--> ?PR?_DRV_DPRX_PIENABLE?DRVDPRX
  +--> ?PR?DRV_DPRX_RXPLLCALI?DRVDPRX
  +--> ?PR?DRV_DPRX_PCRPLLINIT?DRVDPRX
  +--> ?PR?DRV_DPRX_FREQINTG?DRVDPRX
  +--> ?PR?DRV_DPRX_DIGITALINIT?DRVDPRX
  +--> ?PR?DRV_DPRX_MAINLINK?DRVDPRX
  +--> ?PR?DRV_DPRX_PCRINIT?DRVDPRX
  +--> ?PR?DRV_DPRX_HWRESETSET?DRVDPRX

?PR?DRV_DPRX_RTERMCAL?DRVDPRX                    -----    -----      -----    -----      -----    -----      04B1H    00
>> 02H
  +--> ?PR?_OCM_DELAY1MS?OCMTIMER
  +--> ?CO?DRVDPRX
  +--> ?PR?_PRINTLT?OCMPRINT

?PR?DRV_DPRX_RXPLLCALI?DRVDPRX                   -----    -----      -----    -----      -----    -----      04B1H    00
>> 02H
  +--> ?PR?_OCM_DELAY1MS?OCMTIMER
  +--> ?CO?DRVDPRX
  +--> ?PR?_PRINTLT?OCMPRINT

?PR?MOD_DPRX_DPORTYPECDET?MODDPRX                -----    -----      -----    -----      -----    -----      -----    --
>> ---
  +--> ?PR?LT8711GXE_DPRXDPORTYPECDET?LT8711GXE

?PR?LT8711GXE_DPRXDPORTYPECDET?LT8711GXE         -----    -----      -----    -----      -----    -----      -----    --
>> ---
  +--> ?CO?LT8711GXE
BL51 BANKED LINKER/LOCATER V6.22                                                      06/21/2023  15:37:55  PAGE 57


  +--> ?PR?_PRINTLT?OCMPRINT

?PR?MOD_DPRX_VARINIT?MODDPRX                     -----    -----      -----    -----      -----    -----      -----    --
>> ---
  +--> ?PR?LT8711GXE_DPRXVARINIT?LT8711GXE

?PR?DRV_DPRX_SETTINGINIT?DRVDPRX                 -----    -----      -----    -----      -----    -----      -----    --
>> ---
  +--> ?PR?DRV_DPRX_DPCDINIT?DRVDPRX
  +--> ?PR?DRV_DPRX_CLKMUX?DRVDPRX
  +--> ?PR?_DRV_DPRX_PCRMODESET?DRVDPRX
  +--> ?PR?_DRV_DPRX_RESET?DRVDPRX
  +--> ?PR?_DRV_DPRX_CP2520KEYCODESET?DRVDPRX
  +--> ?PR?_DRV_HDCPRX_ENABLE?DRVHDCPRX
  +--> ?PR?_DRV_SYSTEM_FMSET?DRVSYSTEM
  +--> ?PR?_DRV_SYSTEM_INTSET?DRVSYSTEM
  +--> ?PR?_DRV_SYSTEM_INTCLR?DRVSYSTEM

?PR?DRV_DPRX_DPCDINIT?DRVDPRX                    -----    -----      -----    -----      -----    -----      04B1H    00
>> 24H
  +--> ?PR?_DRV_DPRX_DPCD_HIGHADDRWRITE?DRVDPRX
  +--> ?PR?_DRV_DPRX_DPCD_VALUEWRITE?DRVDPRX

?PR?_DRV_DPRX_PCRMODESET?DRVDPRX                 -----    -----      -----    -----      -----    -----      04B1H    00
>> 01H
  +--> ?CO?DRVDPRX
  +--> ?PR?_PRINTLT?OCMPRINT

?PR?MOD_DPRX_SOURCECHANNELSET?MODDPRX            -----    -----      -----    -----      -----    -----      -----    --
>> ---
  +--> ?PR?_DRV_DPRX_AUXSWAP?DRVDPRX
  +--> ?PR?_DRV_DPRX_CHANNELSWAP?DRVDPRX
  +--> ?PR?_DRV_DPRX_LINKCLKSEL?DRVDPRX
  +--> ?PR?_DRV_DPRX_HPDSET?DRVDPRX
  +--> ?PR?_MOD_UCC_HPDIRQSEND?MODCC1TYPEC

?PR?MOD_DPRX_EQSET?MODDPRXEQ                     -----    -----      -----    -----      -----    -----      -----    --
>> ---
  +--> ?PR?MOD_DPRX_TRAININGEQPRINT?MODDPRXEQ
  +--> ?PR?MOD_DPRX_SOFTEQSET?MODDPRXEQ

?PR?MOD_DPRX_TRAININGEQPRINT?MODDPRXEQ           -----    -----      -----    -----      -----    -----      -----    --
>> ---
  +--> ?CO?MODDPRXEQ
  +--> ?PR?_PRINTLT?OCMPRINT

?PR?MOD_DPRX_SOFTEQSET?MODDPRXEQ                 -----    -----      -----    -----      -----    -----      04B1H    00
>> 19H
  +--> ?CO?MODDPRXEQ
  +--> ?PR?_PRINTLT?OCMPRINT
  +--> ?PR?_DRV_DPRX_EQMODE?DRVDPRX
  +--> ?PR?_OCM_DELAY1MS?OCMTIMER
  +--> ?PR?DRV_DPRX_ERRCLR?DRVDPRX

?PR?DRV_DPRX_DESKEWCHECK?DRVDPRX                 -----    -----      -----    -----      -----    -----      -----    --
>> ---
  +--> ?PR?_OCM_DELAY1MS?OCMTIMER
BL51 BANKED LINKER/LOCATER V6.22                                                      06/21/2023  15:37:55  PAGE 58



?PR?MOD_HDMITX_HANDLER?MODHDMITX                 -----    -----      -----    -----      -----    -----      -----    --
>> ---
  +--> ?PR?MOD_HDMITX_HPDDETPROC?MODHDMITX
  +--> ?PR?MOD_HDMITX_STATEJUDGE?MODHDMITX
  +--> ?PR?MOD_HDMITX_STATEHANDLER?MODHDMITX

?PR?MOD_HDMITX_HPDDETPROC?MODHDMITX              -----    -----      -----    -----      -----    -----      -----    --
>> ---
  +--> ?PR?DRV_HDMITX_HPDDET?DRVHDMITX
  +--> ?PR?_OCM_TIMER_UPDLOCALTIME?OCMTIMER
  +--> ?PR?_OCM_TIMER_ISOVERFLOW?OCMTIMER
  +--> ?PR?_MOD_HDMITX_SETSTATE?MODHDMITX
  +--> ?PR?_MOD_HDMITX_MSGNOTIFY?MODHDMITX
  +--> ?PR?MOD_HDMITX_HPDLOWACTION?MODHDMITX
  +--> ?PR?_DRV_HDMITX_WRITEI2CBYTE?DRVDDCMAST

?PR?_MOD_HDMITX_SETSTATE?MODHDMITX               -----    -----      -----    -----      -----    -----      04B2H    00
>> 01H
  +--> ?CO?MODHDMITX
  +--> ?PR?_PRINTLT?OCMPRINT
  +--> ?PR?DRV_HDMITX_PHYDIS?DRVHDMITX

?PR?DRV_HDMITX_PHYDIS?DRVHDMITX                  -----    -----      -----    -----      -----    -----      -----    --
>> ---
  +--> ?PR?_DRV_HDMITX_WRITEI2CBYTE?DRVDDCMAST

?PR?_DRV_HDMITX_WRITEI2CBYTE?DRVDDCMAST          -----    -----      -----    -----      -----    -----      04C1H    00
>> 04H
  +--> ?PR?_DRV_HDMITX_DDCSOFTMODE?DRVDDCMAST
  +--> ?PR?_OCM_DELAY1US?OCMTIMER

?PR?_DRV_HDMITX_DDCSOFTMODE?DRVDDCMAST           -----    -----      -----    -----      -----    -----      -----    --
>> ---
  +--> ?PR?_OCM_DELAY1US?OCMTIMER

?PR?_MOD_HDMITX_MSGNOTIFY?MODHDMITX              -----    -----      -----    -----      -----    -----      -----    --
>> ---
  +--> ?PR?_LT8711GXE_HDMITXMSGNOTIFY?LT8711GXE

?PR?_LT8711GXE_HDMITXMSGNOTIFY?LT8711GXE         -----    -----      -----    -----      -----    -----      -----    --
>> ---
  +--> ?PR?MOD_EDID_UPDATE?MODHDMIEDID
  +--> ?PR?MOD_EDID_MODEDET?MODHDMIEDID

?PR?MOD_EDID_UPDATE?MODHDMIEDID                  -----    -----      -----    -----      -----    -----      -----    --
>> ---
  +--> ?PR?MOD_HDMIEDID_INIT?MODHDMIEDID
  +--> ?PR?_MOD_HDMIEDID_ANALYSIS?MODHDMIEDID
  +--> ?PR?_MOD_HDMIEDID_UPDATE?MODHDMIEDID
  +--> ?PR?_MOD_EDID_DPMODEPRINT?MODHDMIEDID

?PR?_MOD_HDMIEDID_ANALYSIS?MODHDMIEDID           -----    -----      -----    -----      -----    -----      04B2H    00
>> 08H
  +--> ?PR?_MOD_HDMIEDID_BLOCK0ANALYSIS?MODH...
  +--> ?PR?_MOD_HDMIEDID_CTABLOCKANALYSIS?MO...
  +--> ?PR?_MOD_HDMIEDID_DISPLAYIDBLOCKANALY...
BL51 BANKED LINKER/LOCATER V6.22                                                      06/21/2023  15:37:55  PAGE 59



?PR?_MOD_HDMIEDID_BLOCK0ANALYSIS?MODH...         -----    -----      -----    -----      -----    -----      04BAH    00
>> 03H

?PR?_MOD_HDMIEDID_CTABLOCKANALYSIS?MO...         -----    -----      -----    -----      -----    -----      04BAH    00
>> 06H

?PR?_MOD_HDMIEDID_DISPLAYIDBLOCKANALY...         -----    -----      -----    -----      -----    -----      04BAH    00
>> 03H

?PR?_MOD_HDMIEDID_UPDATE?MODHDMIEDID             -----    -----      -----    -----      -----    -----      04B2H    00
>> 06H
  +--> ?PR?_MOD_BLOCK0_UPDATE?MODHDMIEDID
  +--> ?PR?_MOD_CTABLOCK_UPDATE?MODHDMIEDID
  +--> ?PR?_MOD_DISPLAYIDBLOCK_UPDATE?MODHDM...
  +--> ?PR?_MOD_CHECK_DISIDSUM?MODHDMIEDID
  +--> ?PR?_MOD_CHECK_SUM?MODHDMIEDID

?PR?_MOD_BLOCK0_UPDATE?MODHDMIEDID               -----    -----      -----    -----      -----    -----      04B8H    00
>> 03H
  +--> ?CO?MODHDMIEDID

?PR?_MOD_CTABLOCK_UPDATE?MODHDMIEDID             -----    -----      -----    -----      -----    -----      04B8H    00
>> 05H

?PR?_MOD_DISPLAYIDBLOCK_UPDATE?MODHDM...         -----    -----      -----    -----      -----    -----      04B8H    00
>> 05H

?PR?_MOD_CHECK_DISIDSUM?MODHDMIEDID              -----    -----      -----    -----      -----    -----      04B8H    00
>> 03H

?PR?_MOD_CHECK_SUM?MODHDMIEDID                   -----    -----      -----    -----      -----    -----      04B8H    00
>> 03H

?PR?_MOD_EDID_DPMODEPRINT?MODHDMIEDID            -----    -----      -----    -----      -----    -----      04B2H    00
>> 05H
  +--> ?CO?MODHDMIEDID
  +--> ?PR?_PRINTLT?OCMPRINT

?PR?MOD_HDMITX_HPDLOWACTION?MODHDMITX            -----    -----      -----    -----      -----    -----      -----    --
>> ---
  +--> ?PR?MOD_FRLTX_TRAINFAIL?MODFRLTRAIN
  +--> ?PR?DRV_HDMITX_PHYDIS?DRVHDMITX
  +--> ?PR?_DRV_HDCPTX_ENABLE?DRVHDCPTX
  +--> ?PR?_DRV_AUDIO_OUTEN?DRVAUDIO
  +--> ?CO?MODHDMITX
  +--> ?PR?_PRINTLT?OCMPRINT

?PR?MOD_FRLTX_TRAINFAIL?MODFRLTRAIN              -----    -----      -----    -----      -----    -----      -----    --
>> ---
  +--> ?PR?_DRV_HDMITX_WRITEI2CBYTE?DRVDDCMAST
  +--> ?PR?MOD_FRLTX_PARAMINIT?MODFRLTRAIN

?PR?_DRV_HDCPTX_ENABLE?DRVHDCPTX                 -----    -----      -----    -----      -----    -----      04B2H    00
>> 01H
  +--> ?CO?DRVHDCPTX
  +--> ?PR?_PRINTLT?OCMPRINT
BL51 BANKED LINKER/LOCATER V6.22                                                      06/21/2023  15:37:55  PAGE 60



?PR?MOD_HDMITX_STATEJUDGE?MODHDMITX              -----    -----      -----    -----      -----    -----      04B1H    00
>> 01H
  +--> ?PR?MOD_HDMITX_HPDLOWACTION?MODHDMITX
  +--> ?PR?MOD_HDMITX_FRLUPDATECHG?MODHDMITX
  +--> ?CO?MODHDMITX
  +--> ?PR?_PRINTLT?OCMPRINT
  +--> ?PR?DRV_HDMITX_DOBLYHDRENABLE?DRVHDMITX
  +--> ?PR?DRV_HDMITX_STATICHDRENABLE?DRVHDMITX
  +--> ?PR?_DRV_HDCPTX_ENABLE?DRVHDCPTX
  +--> ?PR?MOD_HDMITX_AUDIOINFOSET?MODHDMITX
  +--> ?PR?_DRV_AUDIO_OUTEN?DRVAUDIO
  +--> ?PR?_MOD_HDMITX_SETSTATE?MODHDMITX

?PR?MOD_HDMITX_AUDIOINFOSET?MODHDMITX            -----    -----      -----    -----      -----    -----      04B2H    00
>> 01H
  +--> ?CO?MODHDMITX
  +--> ?PR?_PRINTLT?OCMPRINT

?PR?MOD_HDMITX_STATEHANDLER?MODHDMITX            -----    -----      -----    -----      -----    -----      04B1H    00
>> 01H
  +--> ?PR?MOD_HMDITX_POWERONINIT?DRVHDMITX
  +--> ?PR?_MOD_HMDITX_EDIDREAD?MODHDMITX
  +--> ?PR?_MOD_HDMITX_MSGNOTIFY?MODHDMITX
  +--> ?CO?MODHDMITX
  +--> ?PR?_PRINTLT?OCMPRINT
  +--> ?PR?MOD_HDMITX_VARINIT?MODHDMITX
  +--> ?PR?MOD_HDMITX_HDMIVERSIONCAL?MODHDMITX
  +--> ?PR?_DRV_SYS_DHTXSRCSEL?DRVSYSTEM
  +--> ?PR?_MOD_HDMITX_SETSTATE?MODHDMITX
  +--> ?PR?MOD_FRLTX_PARAMINIT?MODFRLTRAIN
  +--> ?PR?MOD_FRLTX_TRAININGHDL?MODFRLTRAIN
  +--> ?PR?MOD_HDMITX_AVIINFOSET?MODHDMITX
  +--> ?PR?MOD_HDMITX_GCPINFOSET?MODHDMITX
  +--> ?PR?DRV_HDMITX_TMDSVIDEOON?DRVHDMITX
  +--> ?PR?_OCM_TIMER_UPDLOCALTIME?OCMTIMER
  +--> ?PR?_OCM_TIMER_ISOVERFLOW?OCMTIMER
  +--> ?PR?MOD_FRLTX_HDMI21ENGET?MODFRLTRAIN
  +--> ?PR?_DRV_AUDIO_HDMINCTSVALUESET?DRVAUDIO

?PR?MOD_HMDITX_POWERONINIT?DRVHDMITX             -----    -----      -----    -----      -----    -----      -----    --
>> ---
  +--> ?PR?DRV_HDMITX_DDCINIT?DRVHDMITX
  +--> ?PR?DRV_HDMITX_DEBOUNCESET?DRVHDMITX
  +--> ?PR?DRV_HDMITX_RTERMCALI?DRVHDMITX
  +--> ?PR?DRV_HDMITX_DATASEL?DRVHDMITX
  +--> ?PR?DRV_HDMITX_TXPLLINIT?DRVHDMITX
  +--> ?PR?DRV_HDMITX_ENCPATH?DRVHDMITX
  +--> ?PR?DRV_HDMITX_FRLVIDSET?DRVHDMITX
  +--> ?PR?DRV_HDMITX_PPSSRAMSET?DRVHDMITX
  +--> ?PR?DRV_HDCPTX_HDCPINIT?DRVHDCPTX
  +--> ?PR?DRV_AUDIO_INIT?DRVAUDIO

?PR?DRV_HDMITX_RTERMCALI?DRVHDMITX               -----    -----      -----    -----      -----    -----      04B2H    00
>> 02H
  +--> ?PR?_OCM_DELAY1MS?OCMTIMER
  +--> ?CO?DRVHDMITX
BL51 BANKED LINKER/LOCATER V6.22                                                      06/21/2023  15:37:55  PAGE 61


  +--> ?PR?_PRINTLT?OCMPRINT

?PR?DRV_AUDIO_INIT?DRVAUDIO                      -----    -----      -----    -----      -----    -----      -----    --
>> ---
  +--> ?PR?DRV_AUDIO_DPININIT?DRVAUDIO
  +--> ?PR?DRV_AUDIO_I2SININIT?DRVAUDIO
  +--> ?PR?DRV_AUDIO_HDMIININIT?DRVAUDIO
  +--> ?PR?DRV_AUDIO_SPDIFININIT?DRVAUDIO
  +--> ?PR?DRV_AUDIO_ACRPLLINIT?DRVAUDIO
  +--> ?PR?DRV_AUDIO_DPOUTINIT?DRVAUDIO
  +--> ?PR?DRV_AUDIO_I2SOUTINIT?DRVAUDIO
  +--> ?PR?DRV_AUDIO_HDMIOUTINIT?DRVAUDIO
  +--> ?PR?DRV_AUDIO_EARCOUTINIT?DRVAUDIO
  +--> ?PR?DRV_AUDIO_SPDIFOUTINIT?DRVAUDIO

?PR?_MOD_HMDITX_EDIDREAD?MODHDMITX               -----    -----      -----    -----      -----    -----      04B2H    00
>> 08H
  +--> ?CO?MODHDMIEDID
  +--> ?PR?_OCM_DELAY1MS?OCMTIMER

?PR?MOD_HDMITX_VARINIT?MODHDMITX                 -----    -----      -----    -----      -----    -----      -----    --
>> ---
  +--> ?PR?LT8711GXE_HDMITXVARINIT?LT8711GXE

?PR?MOD_HDMITX_HDMIVERSIONCAL?MODHDMITX          -----    -----      -----    -----      -----    -----      -----    --
>> ---
  +--> ?CO?MODHDMITX
  +--> ?PR?_PRINTLT?OCMPRINT

?PR?MOD_FRLTX_TRAININGHDL?MODFRLTRAIN            -----    -----      -----    -----      -----    -----      04B2H    00
>> 01H
  +--> ?PR?MOD_FRLTX_TRAINPROCESS?MODFRLTRAIN
  +--> ?CO?MODFRLTRAIN
  +--> ?PR?_PRINTLT?OCMPRINT
  +--> ?PR?MOD_FRLTX_TRAINFAIL?MODFRLTRAIN

?PR?MOD_FRLTX_TRAINPROCESS?MODFRLTRAIN           -----    -----      -----    -----      -----    -----      04B3H    00
>> 01H
  +--> ?PR?MOD_FRLTX_TRAININIT?MODFRLTRAIN
  +--> ?PR?MOD_FRLTX_VERSIONPROC?MODFRLTRAIN
  +--> ?PR?MOD_FRLTX_FLTREADYPROC?MODFRLTRAIN
  +--> ?PR?MOD_FRLTX_TXPLLPROC?MODFRLTRAIN
  +--> ?PR?MOD_FRLTX_TXOUTPROC?MODFRLTRAIN
  +--> ?PR?MOD_FRLTX_LMTXPLLPROC?MODFRLTRAIN
  +--> ?PR?MOD_FRLTX_PATTERNPROC?MODFRLTRAIN
  +--> ?PR?MOD_FRLTX_STARTPROC?MODFRLTRAIN
  +--> ?PR?MOD_FRLTX_FECERRORCHECK?MODFRLTRAIN
  +--> ?PR?_MOD_FRLTX_SETSTATE?MODFRLTRAIN

?PR?MOD_FRLTX_TRAININIT?MODFRLTRAIN              -----    -----      -----    -----      -----    -----      -----    --
>> ---
  +--> ?PR?_DRV_HDMITX_FRLTXRST?DRVHDMITX
  +--> ?CO?MODFRLTRAIN
  +--> ?PR?_PRINTLT?OCMPRINT

?PR?MOD_FRLTX_VERSIONPROC?MODFRLTRAIN            -----    -----      -----    -----      -----    -----      -----    --
>> ---
BL51 BANKED LINKER/LOCATER V6.22                                                      06/21/2023  15:37:55  PAGE 62


  +--> ?PR?_DRV_HDMITX_READI2CBYTE?DRVDDCMAST
  +--> ?PR?_DRV_HDMITX_WRITEI2CBYTE?DRVDDCMAST
  +--> ?CO?MODFRLTRAIN
  +--> ?PR?_PRINTLT?OCMPRINT

?PR?_DRV_HDMITX_READI2CBYTE?DRVDDCMAST           -----    -----      -----    -----      -----    -----      04C1H    00
>> 01H
  +--> ?PR?_DRV_HDMITX_READI2CBYTEN?DRVDDCMAST

?PR?_DRV_HDMITX_READI2CBYTEN?DRVDDCMAST          -----    -----      -----    -----      -----    -----      04C2H    00
>> 0AH
  +--> ?PR?_DRV_HDMITX_DDCSOFTMODE?DRVDDCMAST
  +--> ?PR?_OCM_DELAY1US?OCMTIMER

?PR?MOD_FRLTX_FLTREADYPROC?MODFRLTRAIN           -----    -----      -----    -----      -----    -----      -----    --
>> ---
  +--> ?PR?_DRV_HDMITX_READI2CBYTE?DRVDDCMAST
  +--> ?PR?_DRV_HDMITX_WRITEI2CBYTE?DRVDDCMAST
  +--> ?CO?MODFRLTRAIN
  +--> ?PR?_PRINTLT?OCMPRINT

?PR?MOD_FRLTX_TXPLLPROC?MODFRLTRAIN              -----    -----      -----    -----      -----    -----      -----    --
>> ---
  +--> ?PR?_DRV_HDMITX_FRLTXPLLCAL?DRVHDMITX

?PR?_DRV_HDMITX_FRLTXPLLCAL?DRVHDMITX            -----    -----      -----    -----      -----    -----      04B4H    00
>> 03H
  +--> ?PR?_OCM_DELAY1MS?OCMTIMER
  +--> ?CO?DRVHDMITX
  +--> ?PR?_PRINTLT?OCMPRINT

?PR?MOD_FRLTX_TXOUTPROC?MODFRLTRAIN              -----    -----      -----    -----      -----    -----      -----    --
>> ---
  +--> ?PR?_DRV_HDMITX_FRLDIGSET?DRVHDMITX
  +--> ?PR?_DRV_HDMITX_FRLTXPHYSET?DRVHDMITX

?PR?MOD_FRLTX_LMTXPLLPROC?MODFRLTRAIN            -----    -----      -----    -----      -----    -----      -----    --
>> ---
  +--> ?PR?_DRV_HDMITX_FRLFECLINCLKCAL?DRVHD...

?PR?_DRV_HDMITX_FRLFECLINCLKCAL?DRVHD...         -----    -----      -----    -----      -----    -----      04B4H    00
>> 07H
  +--> ?CO?DRVHDMITX
  +--> ?PR?_PRINTLT?OCMPRINT
  +--> ?PR?_OCM_DELAY1MS?OCMTIMER

?PR?MOD_FRLTX_PATTERNPROC?MODFRLTRAIN            -----    -----      -----    -----      -----    -----      04B4H    00
>> 04H
  +--> ?PR?_OCM_DELAY1MS?OCMTIMER
  +--> ?PR?_DRV_HDMITX_READI2CBYTE?DRVDDCMAST
  +--> ?PR?_MOD_FRLTX_DEEMPHASISINITOUT?MODF...
  +--> ?CO?MODFRLTRAIN
  +--> ?PR?_PRINTLT?OCMPRINT
  +--> ?PR?_OCM_DELAY1US?OCMTIMER
  +--> ?PR?_DRV_HDMITX_WRITEI2CBYTE?DRVDDCMAST
  +--> ?PR?_MOD_FRLTX_LANE0FFEADJUST?MODFRLT...
  +--> ?PR?_MOD_FRLTX_LANE1FFEADJUST?MODFRLT...
BL51 BANKED LINKER/LOCATER V6.22                                                      06/21/2023  15:37:55  PAGE 63


  +--> ?PR?_MOD_FRLTX_LANE2FFEADJUST?MODFRLT...
  +--> ?PR?_MOD_FRLTX_LANE3FFEADJUST?MODFRLT...
  +--> ?PR?_MOD_FRLTX_DEEMPHASISUPDATEOUT?MO...

?PR?_MOD_FRLTX_DEEMPHASISINITOUT?MODF...         -----    -----      -----    -----      -----    -----      -----    --
>> ---
  +--> ?PR?MOD_FRLTX_NOFFE?MODFRLTRAIN
  +--> ?PR?_MOD_FRLTX_DEEMPHASIS?MODFRLTRAIN
  +--> ?PR?_MOD_FRLTX_PRESHOOT?MODFRLTRAIN
  +--> ?PR?_MOD_FRLTX_NORMAL?MODFRLTRAIN

?PR?MOD_FRLTX_NOFFE?MODFRLTRAIN                  -----    -----      -----    -----      -----    -----      -----    --
>> ---
  +--> ?CO?MODFRLTRAIN

?PR?_MOD_FRLTX_DEEMPHASIS?MODFRLTRAIN            -----    -----      -----    -----      -----    -----      04B9H    00
>> 01H
  +--> ?CO?MODFRLTRAIN

?PR?_MOD_FRLTX_PRESHOOT?MODFRLTRAIN              -----    -----      -----    -----      -----    -----      04B9H    00
>> 01H
  +--> ?CO?MODFRLTRAIN

?PR?_MOD_FRLTX_NORMAL?MODFRLTRAIN                -----    -----      -----    -----      -----    -----      04B9H    00
>> 01H
  +--> ?CO?MODFRLTRAIN

?PR?_MOD_FRLTX_LANE0FFEADJUST?MODFRLT...         -----    -----      -----    -----      -----    -----      -----    --
>> ---
  +--> ?PR?MOD_FRLTX_NOFFE?MODFRLTRAIN
  +--> ?PR?_MOD_FRLTX_DEEMPHASIS?MODFRLTRAIN
  +--> ?PR?_MOD_FRLTX_PRESHOOT?MODFRLTRAIN
  +--> ?PR?_MOD_FRLTX_NORMAL?MODFRLTRAIN

?PR?_MOD_FRLTX_LANE1FFEADJUST?MODFRLT...         -----    -----      -----    -----      -----    -----      -----    --
>> ---
  +--> ?PR?MOD_FRLTX_NOFFE?MODFRLTRAIN
  +--> ?PR?_MOD_FRLTX_DEEMPHASIS?MODFRLTRAIN
  +--> ?PR?_MOD_FRLTX_PRESHOOT?MODFRLTRAIN
  +--> ?PR?_MOD_FRLTX_NORMAL?MODFRLTRAIN

?PR?_MOD_FRLTX_LANE2FFEADJUST?MODFRLT...         -----    -----      -----    -----      -----    -----      -----    --
>> ---
  +--> ?PR?MOD_FRLTX_NOFFE?MODFRLTRAIN
  +--> ?PR?_MOD_FRLTX_DEEMPHASIS?MODFRLTRAIN
  +--> ?PR?_MOD_FRLTX_PRESHOOT?MODFRLTRAIN
  +--> ?PR?_MOD_FRLTX_NORMAL?MODFRLTRAIN

?PR?_MOD_FRLTX_LANE3FFEADJUST?MODFRLT...         -----    -----      -----    -----      -----    -----      -----    --
>> ---
  +--> ?PR?MOD_FRLTX_NOFFE?MODFRLTRAIN
  +--> ?PR?_MOD_FRLTX_DEEMPHASIS?MODFRLTRAIN
  +--> ?PR?_MOD_FRLTX_PRESHOOT?MODFRLTRAIN
  +--> ?PR?_MOD_FRLTX_NORMAL?MODFRLTRAIN

?PR?_MOD_FRLTX_DEEMPHASISUPDATEOUT?MO...         -----    -----      -----    -----      -----    -----      04B8H    00
>> 01H
BL51 BANKED LINKER/LOCATER V6.22                                                      06/21/2023  15:37:55  PAGE 64


  +--> ?PR?MOD_FRLTX_NOFFE?MODFRLTRAIN
  +--> ?PR?_MOD_FRLTX_DEEMPHASIS?MODFRLTRAIN
  +--> ?PR?_MOD_FRLTX_PRESHOOT?MODFRLTRAIN
  +--> ?PR?_MOD_FRLTX_NORMAL?MODFRLTRAIN

?PR?MOD_FRLTX_STARTPROC?MODFRLTRAIN              -----    -----      -----    -----      -----    -----      04B4H    00
>> 01H
  +--> ?PR?_OCM_DELAY1US?OCMTIMER
  +--> ?PR?_DRV_HDMITX_READI2CBYTE?DRVDDCMAST
  +--> ?PR?_DRV_HDMITX_FRLTXRST?DRVHDMITX
  +--> ?PR?_DRV_HDMITX_WRITEI2CBYTE?DRVDDCMAST
  +--> ?CO?MODFRLTRAIN
  +--> ?PR?_PRINTLT?OCMPRINT

?PR?MOD_FRLTX_FECERRORCHECK?MODFRLTRAIN          -----    -----      -----    -----      -----    -----      04B4H    00
>> 0DH
  +--> ?PR?_DRV_HDMITX_READI2CBYTE?DRVDDCMAST
  +--> ?PR?_DRV_HDMITX_READI2CBYTEN?DRVDDCMAST
  +--> ?PR?_OCM_DELAY1MS?OCMTIMER
  +--> ?PR?_DRV_HDMITX_WRITEI2CBYTE?DRVDDCMAST

?PR?DRV_HDMITX_TMDSVIDEOON?DRVHDMITX             -----    -----      -----    -----      -----    -----      -----    --
>> ---
  +--> ?PR?DRV_HDMITX_TMDSDIVLINKCLKSET?DRVH...
  +--> ?PR?_DRV_HDMITX_TMDSTXPLLCAL?DRVHDMITX
  +--> ?PR?_DRV_HDMITX_TMDSSET?DRVHDMITX
  +--> ?PR?_DRV_HDMITX_PHYSET?DRVHDMITX

?PR?_DRV_HDMITX_TMDSTXPLLCAL?DRVHDMITX           -----    -----      -----    -----      -----    -----      04B2H    00
>> 0CH
  +--> ?CO?DRVHDMITX
  +--> ?PR?_PRINTLT?OCMPRINT
  +--> ?PR?_DRV_HDMITX_TXPLLDIVCAL?DRVHDMITX
  +--> ?PR?_OCM_DELAY1MS?OCMTIMER

?PR?_DRV_HDMITX_TMDSSET?DRVHDMITX                -----    -----      -----    -----      -----    -----      04B2H    00
>> 01H

?PR?_DRV_HDMITX_PHYSET?DRVHDMITX                 -----    -----      -----    -----      -----    -----      04B2H    00
>> 01H
  +--> ?PR?_DRV_HDMITX_WRITEI2CBYTE?DRVDDCMAST
  +--> ?CO?DRVHDMITX
  +--> ?PR?_OCM_DELAY1MS?OCMTIMER
  +--> ?PR?_DRV_HDMITX_READI2CBYTE?DRVDDCMAST
  +--> ?PR?_PRINTLT?OCMPRINT

*** NEW ROOT ***************************************************

?PR?MOD_IT0_INTERRUPTSERVICE?INTERRUPT           -----    -----      -----    -----      -----    -----      -----    --
>> ---
  +--> ?PR?MOD_DPRX_AUXTASK?MODAUXMSG

?PR?MOD_DPRX_AUXTASK?MODAUXMSG                   -----    -----      -----    -----      000DH    0004H      -----    --
>> ---
  +--> ?PR?_MOD_WRITE_DPCD?MODAUXMSG
  +--> ?PR?_MOD_READ_DPCD?MODAUXMSG
  +--> ?PR?_MOD_AUX_SENDDATA?MODAUXMSG
BL51 BANKED LINKER/LOCATER V6.22                                                      06/21/2023  15:37:55  PAGE 65


  +--> ?PR?_MOD_AUX_EDIDREAD?MODAUXMSG
  +--> ?PR?MOD_SEND_NACKREPLY?MODAUXMSG
  +--> ?PR?MOD_SEND_ACKREPLY?MODAUXMSG
  +--> ?PR?_MOD_AUX_SENDZERODATA?MODAUXMSG

?PR?_MOD_WRITE_DPCD?MODAUXMSG                    -----    -----      -----    -----      0011H    0002H      05AFH    00
>> 01H
  +--> ?PR?_MOD_WRITE_DPCD100?MODAUXMSG
  +--> ?PR?_MOD_WRITE_DPCD101?MODAUXMSG
  +--> ?PR?_MOD_WRITE_DPCD102?MODAUXMSG
  +--> ?PR?_MOD_WRITE_DPCD103?MODAUXMSG
  +--> ?PR?_MOD_WRITE_DPCD104?MODAUXMSG
  +--> ?PR?_MOD_WRITE_DPCD105?MODAUXMSG
  +--> ?PR?_MOD_WRITE_DPCD106?MODAUXMSG
  +--> ?PR?_MOD_WRITE_DPCD107?MODAUXMSG
  +--> ?PR?_MOD_WRITE_DPCD201?MODAUXMSG
  +--> ?PR?_MOD_WRITE_DPCD600?MODAUXMSG

?PR?_MOD_WRITE_DPCD100?MODAUXMSG                 -----    -----      -----    -----      -----    -----      -----    --
>> ---
  +--> ?PR?_DRV_DPRX_PISET?DRVDPRX
  +--> ?PR?_DRV_DPRX_RXPLLBAND?DRVDPRX
  +--> ?PR?_DRV_DPRX_DIVSET?DRVDPRX
  +--> ?PR?_DRV_DPRX_CTLESET?DRVDPRX
  +--> ?PR?_DRV_DPRX_CDRSET?DRVDPRX

?PR?_DRV_DPRX_CTLESET?DRVDPRX                    -----    -----      -----    -----      -----    -----      -----    --
>> ---
  +--> ?CO?DRVDPRX

?PR?_MOD_WRITE_DPCD102?MODAUXMSG                 -----    -----      -----    -----      -----    -----      -----    --
>> ---
  +--> ?PR?_DRV_DPRX_EQMODE?DRVDPRX
  +--> ?PR?_DRV_DPRX_CRLOCKTHRESHOLDSET?DRVDPRX
  +--> ?PR?_DRV_DPRX_ANACDRRST?DRVDPRX

?PR?_DRV_DPRX_ANACDRRST?DRVDPRX                  -----    -----      -----    -----      -----    -----      05B0H    00
>> 01H
  +--> ?PR?_OCM_DELAY1US?OCMTIMER

?PR?_MOD_WRITE_DPCD107?MODAUXMSG                 -----    -----      -----    -----      -----    -----      -----    --
>> ---
  +--> ?PR?_DRV_DPRX_CDRSET?DRVDPRX

?PR?_MOD_WRITE_DPCD600?MODAUXMSG                 -----    -----      -----    -----      -----    -----      -----    --
>> ---
  +--> ?PR?_DRV_DPRX_RESET?DRVDPRX

?PR?_MOD_READ_DPCD?MODAUXMSG                     -----    -----      -----    -----      0011H    0002H      05AFH    00
>> 01H
  +--> ?PR?_MOD_READ_DPCD200?MODAUXMSG
  +--> ?PR?_MOD_READ_DPCD201?MODAUXMSG
  +--> ?PR?_MOD_READ_DPCD202?MODAUXMSG
  +--> ?PR?_MOD_READ_DPCD203?MODAUXMSG
  +--> ?PR?_MOD_READ_DPCD204?MODAUXMSG
  +--> ?PR?_MOD_READ_DPCD206?MODAUXMSG

BL51 BANKED LINKER/LOCATER V6.22                                                      06/21/2023  15:37:55  PAGE 66


?PR?_MOD_READ_DPCD202?MODAUXMSG                  -----    -----      -----    -----      -----    -----      -----    --
>> ---
  +--> ?PR?MOD_AUX_TRAININGDONE?MODAUXMSG

?PR?MOD_AUX_TRAININGDONE?MODAUXMSG               -----    -----      -----    -----      -----    -----      -----    --
>> ---
  +--> ?PR?_DRV_DPRX_SSCJUDGEBYRXFM?DRVDPRX
  +--> ?PR?_DRV_DPRX_CDRSET?DRVDPRX

?PR?_MOD_READ_DPCD203?MODAUXMSG                  -----    -----      -----    -----      -----    -----      -----    --
>> ---
  +--> ?PR?MOD_AUX_TRAININGDONE?MODAUXMSG

?PR?_MOD_READ_DPCD204?MODAUXMSG                  -----    -----      -----    -----      -----    -----      -----    --
>> ---
  +--> ?PR?MOD_AUX_DONEGET?MODAUXMSG

?PR?_MOD_READ_DPCD206?MODAUXMSG                  -----    -----      -----    -----      -----    -----      -----    --
>> ---
  +--> ?PR?_DRV_DPRX_ANACDRRST?DRVDPRX
  +--> ?PR?_DRV_DPRX_CRLOCKTHRESHOLDSET?DRVDPRX

?PR?_MOD_AUX_SENDDATA?MODAUXMSG                  -----    -----      -----    -----      0011H    0001H      -----    --
>> ---

?PR?_MOD_AUX_EDIDREAD?MODAUXMSG                  -----    -----      -----    -----      0011H    0001H      -----    --
>> ---

?PR?_MOD_AUX_SENDZERODATA?MODAUXMSG              -----    -----      -----    -----      0011H    0001H      -----    --
>> ---

*** NEW ROOT ***************************************************

?PR?MOD_IT1_INTERRUPTSERVICE?INTERRUPT           -----    -----      -----    -----      -----    -----      -----    --
>> ---
  +--> ?PR?MOD_UCC_INTERRUPT?MODCC1MSGTYPEC
  +--> ?PR?MOD_DCC_INTERRUPT?MODCC2MSGTYPEC

?PR?MOD_UCC_INTERRUPT?MODCC1MSGTYPEC             -----    -----      -----    -----      -----    -----      05B1H    00
>> 06H
  +--> ?PR?_CHIP_UCC_MSGTYPECAL?MODCC1TYPEC
  +--> ?PR?CHIP_LASTMSG_ACCEPT?MODCC1MSGTYPEC
  +--> ?PR?CHIP_LASTMSG_PSRDY?MODCC1MSGTYPEC
  +--> ?PR?OCM_TIMER2FORPSRDY_SET?OCMTIMER
  +--> ?PR?OCM_TR2_VALUESET?OCMTIMER
  +--> ?PR?_CHIP_UFP_MESSAGE?MODCC1BASICTYPEC

?PR?CHIP_LASTMSG_ACCEPT?MODCC1MSGTYPEC           -----    -----      -----    -----      -----    -----      -----    --
>> ---
  +--> ?PR?OCM_TIMER2_SET?OCMTIMER
  +--> ?PR?_OCM_DELAY1MS?OCMTIMER
  +--> ?PR?CHIP_MSGAFTERACCEPT?MODCC1MSGTYPEC

?PR?CHIP_MSGAFTERACCEPT?MODCC1MSGTYPEC           -----    -----      -----    -----      -----    -----      -----    --
>> ---
  +--> ?PR?CHIP_DCCMESSAGE_SEND?MODCC2BASICT...
  +--> ?PR?OCM_TIMER2FORPSRDY_SET?OCMTIMER
BL51 BANKED LINKER/LOCATER V6.22                                                      06/21/2023  15:37:55  PAGE 67



?PR?_CHIP_UFP_MESSAGE?MODCC1BASICTYPEC           -----    -----      -----    -----      -----    -----      05B7H    00
>> 01H
  +--> ?PR?_CHIP_UCC_MSGTYPECAL?MODCC1TYPEC
  +--> ?CO?MODCC1TYPEC
  +--> ?PR?CHIP_UCCMESSAGE_SEND?MODCC1BASICT...
  +--> ?PR?DRV_HDMITX_HPDDET?DRVHDMITX
  +--> ?PR?_DRV_RPCUR_SEL?DRVTYPECDCC
  +--> ?PR?_OCM_DELAY1MS?OCMTIMER
  +--> ?PR?_DRV_POWERROLE_SET?DRVTYPECDCC
  +--> ?PR?OCM_TIMER2FORPSRDY_SET?OCMTIMER
  +--> ?PR?_CHIP_DCC_ONDET?MODCC1TYPEC
  +--> ?PR?CHIP_UCCSEND_SOURCECAP?MODCC1BASI...
  +--> ?PR?CHIP_UCC_RPONSCAN?DRVTYPECDCC
  +--> ?PR?CHIP_UCC_OFFDET?MODCC1TYPEC
  +--> ?PR?_CHIP_UCC_FLIPDET?MODCC1TYPEC
  +--> ?PR?_CHIP_REQUESTMSG_CAL?MODCCSHAREDT...
  +--> ?PR?CHIP_UCCREQUEST_CAL?MODCC1BASICTYPEC
  +--> ?PR?_CHIP_UFP_VDMMSG?MODCC1BASICTYPEC
  +--> ?PR?CHIP_CHUNKMESSAGE_HANDLE?MODCC1BA...

?PR?_CHIP_REQUESTMSG_CAL?MODCCSHAREDT...         -----    -----      -----    -----      -----    -----      05B9H    00
>> 08H

?PR?CHIP_UCCREQUEST_CAL?MODCC1BASICTYPEC         -----    -----      -----    -----      -----    -----      05B8H    00
>> 01H

?PR?_CHIP_UFP_VDMMSG?MODCC1BASICTYPEC            -----    -----      -----    -----      -----    -----      -----    --
>> ---
  +--> ?PR?DRV_HDMITX_HPDDET?DRVHDMITX
  +--> ?PR?_CHIP_DISCOVERID_HANDLE?MODCC1BAS...
  +--> ?PR?CHIP_UCCMESSAGE_SEND?MODCC1BASICT...
  +--> ?CO?MODCC1TYPEC
  +--> ?PR?_CHIP_ALTMODE_HANDLE?MODCC1BASICT...
  +--> ?PR?_CHIP_DCC_ONDET?MODCC1TYPEC
  +--> ?PR?_CHIP_UCC_MSGTYPECAL?MODCC1TYPEC
  +--> ?PR?_OCM_DELAY1MS?OCMTIMER

?PR?_CHIP_DISCOVERID_HANDLE?MODCC1BAS...         -----    -----      -----    -----      -----    -----      05B9H    00
>> 05H

?PR?CHIP_CHUNKMESSAGE_HANDLE?MODCC1BA...         -----    -----      -----    -----      -----    -----      -----    --
>> ---
  +--> ?CO?MODCC1TYPEC
  +--> ?PR?CHIP_UCCMESSAGE_SEND?MODCC1BASICT...

?PR?MOD_DCC_INTERRUPT?MODCC2MSGTYPEC             -----    -----      -----    -----      -----    -----      05B1H    00
>> 06H
  +--> ?PR?CHIP_DCCUCC_DOTRIG?MODCC2MSGTYPEC
  +--> ?PR?OCM_TR2_VALUESET?OCMTIMER
  +--> ?PR?_CHIP_DFP_MESSAGE?MODCC2BASICTYPEC

?PR?CHIP_DCCUCC_DOTRIG?MODCC2MSGTYPEC            -----    -----      -----    -----      -----    -----      -----    --
>> ---
  +--> ?PR?DRV_FRTRIG_SEND?DRVTYPECDCC
  +--> ?PR?CHIP_ADAPTERLOST_VARINI?MODCC2MSG...

BL51 BANKED LINKER/LOCATER V6.22                                                      06/21/2023  15:37:55  PAGE 68


?PR?_CHIP_DFP_MESSAGE?MODCC2BASICTYPEC           -----    -----      -----    -----      -----    -----      05B7H    00
>> 02H
  +--> ?PR?_CHIP_DCC_ONDET?MODCC1TYPEC
  +--> ?PR?CHIP_UCC_OFFDET?MODCC1TYPEC
  +--> ?PR?OCM_TIMER2FORPSRDY_SET?OCMTIMER
  +--> ?CO?MODCC1TYPEC
  +--> ?PR?CHIP_DCCMESSAGE_SEND?MODCC2BASICT...
  +--> ?PR?_CHIP_DCCSOURCECAP_CAL?MODCC2BASI...
  +--> ?PR?_CHIP_REQUESTMSG_CAL?MODCCSHAREDT...
  +--> ?PR?_CHIP_UCC_MSGTYPECAL?MODCC1TYPEC
  +--> ?PR?CHIP_DFP_VDMMSG?MODCC2BASICTYPEC

?PR?_CHIP_DCCSOURCECAP_CAL?MODCC2BASI...         -----    -----      -----    -----      -----    -----      05B9H    00
>> 05H
  +--> ?CO?MODCC1TYPEC

?PR?CHIP_DFP_VDMMSG?MODCC2BASICTYPEC             -----    -----      -----    -----      -----    -----      -----    --
>> ---
  +--> ?PR?_CHIP_DISCOVERID_HANDLE?MODCC1BAS...
  +--> ?CO?MODCC1TYPEC
  +--> ?PR?CHIP_DCCMESSAGE_SEND?MODCC2BASICT...

*** NEW ROOT ***************************************************

?PR?MOD_TIME2_INTERRUPTSERVICE?INTERRUPT         -----    -----      -----    -----      -----    -----      -----    --
>> ---
  +--> ?PR?CHIP_PSRDY_SEND?MODCC2MSGTYPEC
  +--> ?PR?CHIP_UCC_RETRY?MODCC1MSGTYPEC
  +--> ?PR?CHIP_DCC_RETRY?MODCC2MSGTYPEC

?PR?CHIP_PSRDY_SEND?MODCC2MSGTYPEC               -----    -----      -----    -----      -----    -----      05C1H    00
>> 02H
  +--> ?PR?_OCM_DELAY1US?OCMTIMER
  +--> ?PR?_OCM_DELAY1MS?OCMTIMER
  +--> ?PR?_DRV_POWERROLE_SET?DRVTYPECDCC
  +--> ?PR?CHIP_DVBUS_LVL_SET?MODCC2MSGTYPEC
  +--> ?CO?MODCC1TYPEC
  +--> ?PR?_CHIP_UCC_MSGTYPECAL?MODCC1TYPEC
  +--> ?PR?CHIP_UCCMESSAGE_SEND?MODCC1BASICT...

?PR?CHIP_DVBUS_LVL_SET?MODCC2MSGTYPEC            -----    -----      -----    -----      -----    -----      05C3H    00
>> 01H
  +--> ?PR?_OCM_DELAY1US?OCMTIMER

?PR?CHIP_UCC_RETRY?MODCC1MSGTYPEC                -----    -----      -----    -----      -----    -----      -----    --
>> ---
  +--> ?CO?MODCC1TYPEC
  +--> ?PR?CHIP_UCCMESSAGE_SEND?MODCC1BASICT...
  +--> ?PR?OCM_TR2_VALUESET?OCMTIMER
  +--> ?PR?_OCM_DELAY1US?OCMTIMER
  +--> ?PR?CHIP_UCC_OFFDET?MODCC1TYPEC
  +--> ?PR?CHIP_CC_VARINIT?MODCC1TYPEC

?PR?CHIP_DCC_RETRY?MODCC2MSGTYPEC                -----    -----      -----    -----      -----    -----      -----    --
>> ---
  +--> ?PR?CHIP_DCCMESSAGE_SEND?MODCC2BASICT...
  +--> ?PR?OCM_TR2_VALUESET?OCMTIMER
BL51 BANKED LINKER/LOCATER V6.22                                                      06/21/2023  15:37:55  PAGE 69


  +--> ?PR?_DRV_RPCUR_SEL?DRVTYPECDCC
  +--> ?PR?_DRV_POWERROLE_SET?DRVTYPECDCC
  +--> ?PR?_OCM_DELAY1MS?OCMTIMER

*** NEW ROOT ***************************************************

?PR?TIMER0INTERRUPT?OCMTIMER                     -----    -----      -----    -----      -----    -----      -----    --
>> ---
  +--> ?PR?OCM_TIMER_UARTDATAGET?OCMTIMER
  +--> ?PR?DRV_FRTRIG_SEND?DRVTYPECDCC
  +--> ?PR?CHIP_ADAPTERLOST_VARINI?MODCC2MSG...



IGNORED SYMBOLS:
   MOD_CCRX_LOOP
   MOD_CCTX_LOOP



SYMBOL TABLE OF MODULE:  LT2204 (?C_STARTUP)

  VALUE           TYPE          NAME
  ----------------------------------

  -------         MODULE        ?C_STARTUP
  C:79D0H         SEGMENT       ?C_C51STARTUP
  I:0065H         SEGMENT       ?STACK
  C:0000H         PUBLIC        ?C_STARTUP
  D:00E0H         SYMBOL        ACC
  D:00F0H         SYMBOL        B
  D:0083H         SYMBOL        DPH
  D:0082H         SYMBOL        DPL
  N:0000H         SYMBOL        IBPSTACK
  N:0100H         SYMBOL        IBPSTACKTOP
  N:0080H         SYMBOL        IDATALEN
  C:79D3H         SYMBOL        IDATALOOP
  N:0000H         SYMBOL        PBPSTACK
  N:0100H         SYMBOL        PBPSTACKTOP
  N:0000H         SYMBOL        PDATALEN
  N:0000H         SYMBOL        PDATASTART
  N:0000H         SYMBOL        PPAGE
  N:0000H         SYMBOL        PPAGEENABLE
  D:00A0H         SYMBOL        PPAGE_SFR
  D:0081H         SYMBOL        SP
  C:79D0H         SYMBOL        STARTUP1
  N:0000H         SYMBOL        XBPSTACK
  N:0000H         SYMBOL        XBPSTACKTOP
  N:0000H         SYMBOL        XDATALEN
  N:0000H         SYMBOL        XDATASTART
  C:0000H         LINE#         126
  C:79D0H         LINE#         133
  C:79D2H         LINE#         134
  C:79D3H         LINE#         135
  C:79D4H         LINE#         136
  C:79D6H         LINE#         185
  C:79D9H         LINE#         196
BL51 BANKED LINKER/LOCATER V6.22                                                      06/21/2023  15:37:55  PAGE 70


  -------         ENDMOD        ?C_STARTUP

  -------         MODULE        MAIN
  C:0000H         SYMBOL        _ICE_DUMMY_
  C:A5C2H         PUBLIC        App_ChipFw_Read
  C:978FH         PUBLIC        main
  D:00C8H         PUBLIC        T2CON
  -------         PROC          APP_CHIPFW_READ
  C:A5C2H         LINE#         16
  C:A5C2H         LINE#         17
  C:A5C2H         LINE#         18
  C:A5CBH         LINE#         19
  C:A5D4H         LINE#         20
  C:A5DDH         LINE#         21
  C:A5E6H         LINE#         22
  -------         ENDPROC       APP_CHIPFW_READ
  -------         PROC          MAIN
  C:978FH         LINE#         23
  C:978FH         LINE#         24
  C:978FH         LINE#         25
  C:9792H         LINE#         26
  C:9795H         LINE#         28
  C:9798H         LINE#         29
  C:979BH         LINE#         31
  C:979EH         LINE#         32
  C:97A1H         LINE#         39
  C:97A4H         LINE#         40
  C:97AFH         LINE#         58
  C:97D2H         LINE#         64
  C:97D2H         LINE#         65
  C:97D2H         LINE#         79
  C:97D5H         LINE#         93
  -------         ENDPROC       MAIN
  -------         ENDMOD        MAIN

  -------         MODULE        LT6711GXE
  C:0000H         SYMBOL        _ICE_DUMMY_
  D:00C8H         PUBLIC        T2CON
  -------         ENDMOD        LT6711GXE

  -------         MODULE        LT6911GXE
  C:0000H         SYMBOL        _ICE_DUMMY_
  D:00C8H         PUBLIC        T2CON
  -------         ENDMOD        LT6911GXE

  -------         MODULE        LT7911GXE
  C:0000H         SYMBOL        _ICE_DUMMY_
  D:00C8H         PUBLIC        T2CON
  -------         ENDMOD        LT7911GXE

  -------         MODULE        LT8711GXE
  C:0000H         SYMBOL        _ICE_DUMMY_
  C:0016H         PUBLIC        LT8711GXE_PowerOnInit
  C:ADD3H         PUBLIC        LT8711GXE_Main_Scan
  C:A2B1H         PUBLIC        _LT8711GXE_HdmiTxMsgNotify
  C:0012H         PUBLIC        LT8711GXE_HdmiTxVarInit
  C:97D7H         PUBLIC        LT8711GXE_DpRxCscOrEncSel
BL51 BANKED LINKER/LOCATER V6.22                                                      06/21/2023  15:37:55  PAGE 71


  C:9B4FH         PUBLIC        LT8711GXE_DpRxDpOrTypecDet
  C:8AF3H         PUBLIC        _LT8711GXE_DpRxMsgNotify
  D:00C8H         PUBLIC        T2CON
  C:6DE4H         PUBLIC        LT8711GXE_CCGpioInit
  C:A7B7H         PUBLIC        LT8711GXE_DpRxAudioInfoCvt
  C:73ADH         PUBLIC        LT8711GXE_DpRxColorInfoCvt
  C:A6E7H         PUBLIC        LT8711GXE_DpRxVarInit
  -------         PROC          LT8711GXE_POWERONINIT
  C:0016H         LINE#         17
  C:0016H         LINE#         18
  C:0016H         LINE#         19
  C:0019H         LINE#         20
  C:001CH         LINE#         21
  C:0021H         LINE#         22
  C:0026H         LINE#         23
  -------         ENDPROC       LT8711GXE_POWERONINIT
  -------         PROC          LT8711GXE_DPRXVARINIT
  C:A6E7H         LINE#         27
  C:A6E7H         LINE#         28
  C:A6E7H         LINE#         29
  C:A6EDH         LINE#         30
  C:A6F1H         LINE#         31
  C:A6F7H         LINE#         32
  C:A6F9H         LINE#         33
  C:A6FBH         LINE#         34
  -------         ENDPROC       LT8711GXE_DPRXVARINIT
  -------         PROC          LT8711GXE_HDMITXVARINIT
  C:0012H         LINE#         44
  C:0012H         LINE#         45
  C:0012H         LINE#         49
  -------         ENDPROC       LT8711GXE_HDMITXVARINIT
  -------         PROC          LT8711GXE_CCGPIOINIT
  C:6DE4H         LINE#         51
  C:6DE4H         LINE#         52
  C:6DE4H         LINE#         54
  C:6DEDH         LINE#         55
  C:6DF4H         LINE#         56
  C:6DFDH         LINE#         57
  C:6E04H         LINE#         58
  C:6E0DH         LINE#         59
  C:6E14H         LINE#         60
  C:6E1DH         LINE#         61
  C:6E25H         LINE#         63
  C:6E2BH         LINE#         64
  C:6E31H         LINE#         66
  C:6E39H         LINE#         67
  C:6E40H         LINE#         68
  C:6E44H         LINE#         70
  C:6E4BH         LINE#         71
  C:6E52H         LINE#         72
  C:6E56H         LINE#         74
  C:6E5DH         LINE#         75
  C:6E64H         LINE#         76
  C:6E67H         LINE#         78
  C:6E6EH         LINE#         79
  C:6E75H         LINE#         80
  C:6E79H         LINE#         82
BL51 BANKED LINKER/LOCATER V6.22                                                      06/21/2023  15:37:55  PAGE 72


  C:6E81H         LINE#         83
  C:6E88H         LINE#         84
  C:6E8BH         LINE#         86
  C:6E92H         LINE#         87
  C:6E99H         LINE#         88
  C:6E9CH         LINE#         90
  C:6EA2H         LINE#         91
  -------         ENDPROC       LT8711GXE_CCGPIOINIT
  -------         PROC          LT8711GXE_DPRXDPORTYPECDET
  C:9B4FH         LINE#         93
  C:9B4FH         LINE#         94
  C:9B4FH         LINE#         96
  C:9B6DH         LINE#         97
  C:9B6DH         LINE#         98
  C:9B72H         LINE#         99
  C:9B78H         LINE#         100
  C:9B7AH         LINE#         103
  C:9B7AH         LINE#         104
  C:9B80H         LINE#         105
  C:9B8BH         LINE#         106
  C:9B8BH         LINE#         107
  -------         ENDPROC       LT8711GXE_DPRXDPORTYPECDET
  -------         PROC          LT8711GXE_DPRXAUDIOINFOCVT
  -------         DO            
  X:04B3H         SYMBOL        stInfo
  -------         ENDDO         
  C:A7B7H         LINE#         109
  C:A7B7H         LINE#         110
  C:A7B7H         LINE#         112
  C:A7C0H         LINE#         114
  C:A7C6H         LINE#         115
  -------         ENDPROC       LT8711GXE_DPRXAUDIOINFOCVT
  -------         PROC          LT8711GXE_DPRXCOLORINFOCVT
  -------         DO            
  X:04B3H         SYMBOL        stInfo
  X:04BDH         SYMBOL        stRxTimingInfo
  -------         ENDDO         
  C:73ADH         LINE#         118
  C:73ADH         LINE#         119
  C:73ADH         LINE#         123
  C:73B6H         LINE#         130
  C:73C1H         LINE#         131
  C:73D4H         LINE#         132
  C:73E7H         LINE#         134
  C:73FAH         LINE#         135
  C:740DH         LINE#         136
  C:7420H         LINE#         137
  C:7433H         LINE#         138
  C:7446H         LINE#         139
  -------         ENDPROC       LT8711GXE_DPRXCOLORINFOCVT
  -------         PROC          LT8711GXE_DPRXCSCORENCSEL
  C:97D7H         LINE#         144
  C:97D7H         LINE#         145
  C:97D7H         LINE#         146
  C:97DCH         LINE#         147
  C:97F3H         LINE#         149
  C:97FFH         LINE#         150
BL51 BANKED LINKER/LOCATER V6.22                                                      06/21/2023  15:37:55  PAGE 73


  C:980BH         LINE#         151
  C:9812H         LINE#         152
  C:9812H         LINE#         153
  C:981EH         LINE#         154
  C:981EH         LINE#         159
  -------         ENDPROC       LT8711GXE_DPRXCSCORENCSEL
  -------         PROC          _LT8711GXE_DPRXMSGNOTIFY
  D:0007H         SYMBOL        ucEvent
  C:8AF3H         LINE#         169
  C:8AF3H         LINE#         170
  C:8AF3H         LINE#         171
  C:8B10H         LINE#         172
  C:8B10H         LINE#         173
  C:8B10H         LINE#         174
  C:8B13H         LINE#         175
  C:8B15H         LINE#         177
  C:8B15H         LINE#         178
  C:8B1AH         LINE#         179
  C:8B1BH         LINE#         181
  C:8B1BH         LINE#         182
  C:8B1EH         LINE#         183
  C:8B21H         LINE#         184
  C:8B24H         LINE#         188
  C:8B27H         LINE#         189
  C:8B29H         LINE#         191
  C:8B29H         LINE#         192
  C:8B2EH         LINE#         193
  C:8B33H         LINE#         194
  C:8B38H         LINE#         195
  C:8B39H         LINE#         197
  C:8B39H         LINE#         198
  C:8B3FH         LINE#         199
  C:8B47H         LINE#         200
  C:8B48H         LINE#         202
  C:8B48H         LINE#         203
  C:8B4EH         LINE#         204
  C:8B4FH         LINE#         206
  C:8B4FH         LINE#         207
  C:8B4FH         LINE#         208
  C:8B4FH         LINE#         209
  C:8B4FH         LINE#         210
  C:8B4FH         LINE#         211
  C:8B4FH         LINE#         212
  C:8B4FH         LINE#         213
  C:8B4FH         LINE#         214
  C:8B4FH         LINE#         215
  C:8B4FH         LINE#         216
  C:8B4FH         LINE#         217
  C:8B4FH         LINE#         218
  C:8B4FH         LINE#         219
  C:8B52H         LINE#         220
  C:8B52H         LINE#         222
  C:8B52H         LINE#         223
  C:8B52H         LINE#         224
  C:8B52H         LINE#         225
  C:8B52H         LINE#         226
  C:8B52H         LINE#         227
BL51 BANKED LINKER/LOCATER V6.22                                                      06/21/2023  15:37:55  PAGE 74


  -------         ENDPROC       _LT8711GXE_DPRXMSGNOTIFY
  -------         PROC          _LT8711GXE_HDMITXMSGNOTIFY
  D:0007H         SYMBOL        ucEvent
  C:A2B1H         LINE#         229
  C:A2B1H         LINE#         230
  C:A2B1H         LINE#         231
  C:A2BDH         LINE#         232
  C:A2BDH         LINE#         233
  C:A2BDH         LINE#         234
  C:A2BDH         LINE#         236
  C:A2BDH         LINE#         237
  C:A2BEH         LINE#         238
  C:A2C0H         LINE#         240
  C:A2C0H         LINE#         241
  C:A2C3H         LINE#         242
  C:A2CBH         LINE#         243
  C:A2D1H         LINE#         244
  C:A2D2H         LINE#         246
  C:A2D2H         LINE#         247
  C:A2D8H         LINE#         248
  C:A2DCH         LINE#         249
  C:A2DCH         LINE#         250
  C:A2DCH         LINE#         251
  -------         ENDPROC       _LT8711GXE_HDMITXMSGNOTIFY
  -------         PROC          LT8711GXE_MAIN_SCAN
  C:ADD3H         LINE#         260
  C:ADD3H         LINE#         261
  C:ADD3H         LINE#         263
  C:ADD6H         LINE#         266
  C:ADD9H         LINE#         269
  -------         ENDPROC       LT8711GXE_MAIN_SCAN
  -------         ENDMOD        LT8711GXE

  -------         MODULE        LT86121GXE
  C:0000H         SYMBOL        _ICE_DUMMY_
  D:00C8H         PUBLIC        T2CON
  -------         ENDMOD        LT86121GXE

  -------         MODULE        INTERRUPT
  C:0000H         SYMBOL        _ICE_DUMMY_
  D:0091H         PUBLIC        EXIF
  B:00C8H.7       PUBLIC        TF2
  C:9372H         PUBLIC        Mod_Time2_InterruptService
  B:00C8H.2       PUBLIC        TR2
  C:945BH         PUBLIC        Mod_IT0_InterruptService
  C:8B53H         PUBLIC        Mod_IT1_InterruptService
  C:000EH         PUBLIC        Mod_IT2_InterruptService
  D:00C8H         PUBLIC        T2CON
  -------         PROC          MOD_IT0_INTERRUPTSERVICE
  C:945BH         LINE#         9
  C:9478H         LINE#         12
  C:947FH         LINE#         13
  C:947FH         LINE#         14
  C:9486H         LINE#         15
  C:9489H         LINE#         16
  C:948CH         LINE#         17
  C:948CH         LINE#         30
BL51 BANKED LINKER/LOCATER V6.22                                                      06/21/2023  15:37:55  PAGE 75


  -------         ENDPROC       MOD_IT0_INTERRUPTSERVICE
  -------         PROC          MOD_IT1_INTERRUPTSERVICE
  C:8B53H         LINE#         32
  C:8B70H         LINE#         36
  C:8B77H         LINE#         37
  C:8B77H         LINE#         38
  C:8B7EH         LINE#         39
  C:8B81H         LINE#         40
  C:8B84H         LINE#         43
  C:8B84H         LINE#         44
  C:8B8BH         LINE#         45
  C:8B8BH         LINE#         46
  C:8B92H         LINE#         47
  C:8B95H         LINE#         48
  C:8B98H         LINE#         49
  C:8B98H         LINE#         61
  -------         ENDPROC       MOD_IT1_INTERRUPTSERVICE
  -------         PROC          MOD_IT2_INTERRUPTSERVICE
  C:000EH         LINE#         63
  C:000EH         LINE#         65
  C:0011H         LINE#         66
  -------         ENDPROC       MOD_IT2_INTERRUPTSERVICE
  -------         PROC          MOD_TIME2_INTERRUPTSERVICE
  C:9372H         LINE#         68
  C:938FH         LINE#         70
  C:9391H         LINE#         71
  C:9393H         LINE#         84
  C:939AH         LINE#         85
  C:939AH         LINE#         86
  C:939DH         LINE#         87
  C:939FH         LINE#         89
  C:939FH         LINE#         90
  C:93A2H         LINE#         91
  C:93A5H         LINE#         92
  C:93A5H         LINE#         95
  -------         ENDPROC       MOD_TIME2_INTERRUPTSERVICE
  -------         ENDMOD        INTERRUPT

  -------         MODULE        MODAUXMSG
  C:0000H         SYMBOL        _ICE_DUMMY_
  C:A022H         PUBLIC        _Mod_Write_Dpcd100
  C:AD72H         PUBLIC        _Mod_Write_Dpcd101
  C:AEA2H         PUBLIC        _Mod_Write_Dpcd201
  C:981FH         PUBLIC        _Mod_Write_Dpcd102
  C:ADDCH         PUBLIC        _Mod_Write_Dpcd103
  C:AE9FH         PUBLIC        _Mod_Write_Dpcd104
  C:A361H         PUBLIC        _Mod_Write_Dpcd600
  C:AEA0H         PUBLIC        _Mod_Write_Dpcd105
  C:AEA1H         PUBLIC        _Mod_Write_Dpcd106
  C:AA4CH         PUBLIC        _Mod_Write_Dpcd107
  C:9C43H         PUBLIC        _Mod_Aux_EdidRead
  C:ADBFH         PUBLIC        Mod_Send_AckReply
  C:AD38H         PUBLIC        Mod_Aux_GetRetrainStatus
  C:A67BH         PUBLIC        _Mod_Aux_SendData
  C:4B64H         PUBLIC        Mod_DpRx_AuxTask
  C:9D32H         PUBLIC        Mod_Aux_DoneGet
  C:A967H         PUBLIC        _Mod_Aux_SendZeroData
BL51 BANKED LINKER/LOCATER V6.22                                                      06/21/2023  15:37:55  PAGE 76


  C:AC92H         PUBLIC        Mod_Aux_GetTrainDoneStatus
  C:7459H         PUBLIC        Mod_Aux_TrainingDone
  C:3697H         PUBLIC        _Mod_Read_Dpcd
  D:00C8H         PUBLIC        T2CON
  I:0022H         PUBLIC        g_stAuxStatus
  C:0006H         PUBLIC        Mod_Aux_LinkCntGet
  C:41DDH         PUBLIC        _Mod_Write_Dpcd
  C:AD2CH         PUBLIC        _Mod_Read_Dpcd200
  C:AE9EH         PUBLIC        _Mod_Read_Dpcd201
  C:AD5CH         PUBLIC        _Mod_Read_Dpcd202
  C:AD67H         PUBLIC        _Mod_Read_Dpcd203
  C:809EH         PUBLIC        _Mod_Read_Dpcd204
  C:9DDAH         PUBLIC        _Mod_Read_Dpcd206
  C:ACEBH         PUBLIC        Mod_Send_NackReply
  -------         PROC          MOD_SEND_NACKREPLY
  C:ACEBH         LINE#         22
  C:ACEBH         LINE#         23
  C:ACEBH         LINE#         24
  C:ACF1H         LINE#         25
  C:ACF3H         LINE#         26
  C:ACF7H         LINE#         27
  -------         ENDPROC       MOD_SEND_NACKREPLY
  -------         PROC          MOD_SEND_ACKREPLY
  C:ADBFH         LINE#         36
  C:ADBFH         LINE#         37
  C:ADBFH         LINE#         38
  C:ADC4H         LINE#         39
  C:ADC8H         LINE#         40
  -------         ENDPROC       MOD_SEND_ACKREPLY
  -------         PROC          _MOD_AUX_SENDDATA
  D:0007H         SYMBOL        ucLenth
  -------         DO            
  I:0011H         SYMBOL        ucLoopAux
  -------         ENDDO         
  C:A67BH         LINE#         49
  C:A67BH         LINE#         50
  C:A67BH         LINE#         52
  C:A680H         LINE#         53
  C:A68BH         LINE#         54
  C:A68BH         LINE#         55
  C:A694H         LINE#         56
  C:A699H         LINE#         57
  C:A69EH         LINE#         59
  -------         ENDPROC       _MOD_AUX_SENDDATA
  -------         PROC          _MOD_AUX_EDIDREAD
  D:0007H         SYMBOL        ucLenth
  -------         DO            
  I:0011H         SYMBOL        ucLoopAux
  -------         ENDDO         
  C:9C43H         LINE#         68
  C:9C43H         LINE#         69
  C:9C43H         LINE#         72
  C:9C48H         LINE#         73
  C:9C53H         LINE#         74
  C:9C53H         LINE#         75
  C:9C6BH         LINE#         76
  C:9C70H         LINE#         77
BL51 BANKED LINKER/LOCATER V6.22                                                      06/21/2023  15:37:55  PAGE 77


  C:9C79H         LINE#         78
  C:9C7EH         LINE#         79
  -------         ENDPROC       _MOD_AUX_EDIDREAD
  -------         PROC          _MOD_AUX_SENDZERODATA
  D:0007H         SYMBOL        ucLenth
  -------         DO            
  I:0011H         SYMBOL        ucLoopAux
  -------         ENDDO         
  C:A967H         LINE#         88
  C:A967H         LINE#         89
  C:A967H         LINE#         92
  C:A96CH         LINE#         93
  C:A976H         LINE#         94
  C:A976H         LINE#         95
  C:A97BH         LINE#         96
  C:A97EH         LINE#         97
  C:A983H         LINE#         98
  -------         ENDPROC       _MOD_AUX_SENDZERODATA
  -------         PROC          MOD_AUX_DONEGET
  -------         DO            
  D:0007H         SYMBOL        b1Status
  -------         ENDDO         
  C:9D32H         LINE#         170
  C:9D32H         LINE#         171
  C:9D32H         LINE#         172
  C:9D34H         LINE#         173
  C:9D43H         LINE#         174
  C:9D43H         LINE#         175
  C:9D43H         LINE#         176
  C:9D4DH         LINE#         177
  C:9D4DH         LINE#         178
  C:9D4FH         LINE#         179
  C:9D4FH         LINE#         180
  C:9D51H         LINE#         181
  C:9D51H         LINE#         182
  C:9D5BH         LINE#         183
  C:9D5BH         LINE#         184
  C:9D5DH         LINE#         185
  C:9D5DH         LINE#         186
  C:9D5FH         LINE#         187
  C:9D5FH         LINE#         188
  C:9D67H         LINE#         189
  C:9D67H         LINE#         190
  C:9D69H         LINE#         191
  C:9D69H         LINE#         192
  C:9D69H         LINE#         193
  C:9D69H         LINE#         194
  C:9D69H         LINE#         195
  C:9D69H         LINE#         196
  C:9D69H         LINE#         197
  -------         ENDPROC       MOD_AUX_DONEGET
  -------         PROC          MOD_AUX_TRAININGDONE
  C:7459H         LINE#         208
  C:7459H         LINE#         209
  C:7459H         LINE#         210
  C:7468H         LINE#         211
  C:7468H         LINE#         212
BL51 BANKED LINKER/LOCATER V6.22                                                      06/21/2023  15:37:55  PAGE 78


  C:7468H         LINE#         213
  C:7474H         LINE#         214
  C:7474H         LINE#         215
  C:7478H         LINE#         216
  C:7478H         LINE#         217
  C:7489H         LINE#         218
  C:7489H         LINE#         219
  C:7489H         LINE#         220
  C:7489H         LINE#         221
  C:748BH         LINE#         223
  C:748BH         LINE#         224
  C:749AH         LINE#         225
  C:749AH         LINE#         226
  C:749EH         LINE#         227
  C:749EH         LINE#         228
  C:74ADH         LINE#         229
  C:74ADH         LINE#         230
  C:74ADH         LINE#         231
  C:74ADH         LINE#         232
  C:74AFH         LINE#         234
  C:74AFH         LINE#         235
  C:74C6H         LINE#         236
  C:74C6H         LINE#         237
  C:74CAH         LINE#         238
  C:74CAH         LINE#         239
  C:74DDH         LINE#         240
  C:74DDH         LINE#         241
  C:74E1H         LINE#         242
  C:74E1H         LINE#         243
  C:74E1H         LINE#         245
  C:74E1H         LINE#         246
  C:74E1H         LINE#         247
  C:74E1H         LINE#         248
  C:74ECH         LINE#         249
  C:74ECH         LINE#         250
  C:74F7H         LINE#         251
  C:7501H         LINE#         252
  C:7501H         LINE#         253
  -------         ENDPROC       MOD_AUX_TRAININGDONE
  -------         PROC          _MOD_READ_DPCD200
  D:0007H         SYMBOL        ucI
  C:AD2CH         LINE#         262
  C:AD2CH         LINE#         263
  C:AD2CH         LINE#         264
  C:AD34H         LINE#         268
  C:AD37H         LINE#         271
  -------         ENDPROC       _MOD_READ_DPCD200
  -------         PROC          _MOD_READ_DPCD201
  D:0007H         SYMBOL        ucI
  C:AE9EH         LINE#         280
  C:AE9EH         LINE#         281
  C:AE9EH         LINE#         290
  C:AE9EH         LINE#         293
  -------         ENDPROC       _MOD_READ_DPCD201
  -------         PROC          _MOD_READ_DPCD202
  D:0007H         SYMBOL        ucI
  C:AD5CH         LINE#         301
BL51 BANKED LINKER/LOCATER V6.22                                                      06/21/2023  15:37:55  PAGE 79


  C:AD5CH         LINE#         302
  C:AD5CH         LINE#         303
  C:AD64H         LINE#         304
  -------         ENDPROC       _MOD_READ_DPCD202
  -------         PROC          _MOD_READ_DPCD203
  D:0007H         SYMBOL        ucI
  C:AD67H         LINE#         314
  C:AD67H         LINE#         315
  C:AD67H         LINE#         316
  C:AD6FH         LINE#         317
  -------         ENDPROC       _MOD_READ_DPCD203
  -------         PROC          _MOD_READ_DPCD204
  D:0005H         SYMBOL        ucI
  -------         DO            
  X:066DH         SYMBOL        ucRead204_Cnt
  -------         ENDDO         
  C:809EH         LINE#         327
  C:80A0H         LINE#         328
  C:80A0H         LINE#         331
  C:80A7H         LINE#         332
  C:80A7H         LINE#         333
  C:80ACH         LINE#         334
  C:80AEH         LINE#         335
  C:80B4H         LINE#         336
  C:80B4H         LINE#         337
  C:80C3H         LINE#         338
  C:80C3H         LINE#         339
  C:80C9H         LINE#         340
  C:80CDH         LINE#         341
  C:80D1H         LINE#         342
  C:80D1H         LINE#         343
  C:80D9H         LINE#         344
  C:80DBH         LINE#         346
  C:80DBH         LINE#         347
  C:80E1H         LINE#         348
  C:80E1H         LINE#         350
  C:80E3H         LINE#         352
  C:80E3H         LINE#         353
  C:80EBH         LINE#         354
  C:80EBH         LINE#         355
  C:80EDH         LINE#         356
  C:80F2H         LINE#         357
  C:80F2H         LINE#         358
  C:80F9H         LINE#         359
  C:80F9H         LINE#         360
  C:810BH         LINE#         361
  C:810BH         LINE#         362
  C:810BH         LINE#         364
  C:8113H         LINE#         366
  -------         ENDPROC       _MOD_READ_DPCD204
  -------         PROC          _MOD_READ_DPCD206
  D:0007H         SYMBOL        ucI
  C:9DDAH         LINE#         375
  C:9DDAH         LINE#         376
  C:9DDAH         LINE#         377
  C:9DE2H         LINE#         378
  C:9DE9H         LINE#         379
BL51 BANKED LINKER/LOCATER V6.22                                                      06/21/2023  15:37:55  PAGE 80


  C:9DE9H         LINE#         380
  C:9DF3H         LINE#         381
  C:9DF3H         LINE#         383
  C:9DFAH         LINE#         387
  C:9DFAH         LINE#         388
  C:9E08H         LINE#         389
  C:9E08H         LINE#         390
  C:9E0CH         LINE#         391
  C:9E10H         LINE#         392
  C:9E10H         LINE#         393
  C:9E10H         LINE#         394
  -------         ENDPROC       _MOD_READ_DPCD206
  -------         PROC          _MOD_WRITE_DPCD100
  D:0007H         SYMBOL        ucI
  C:A022H         LINE#         405
  C:A022H         LINE#         406
  C:A022H         LINE#         407
  C:A02BH         LINE#         408
  C:A02EH         LINE#         409
  C:A035H         LINE#         410
  C:A03CH         LINE#         411
  C:A043H         LINE#         412
  C:A04EH         LINE#         413
  C:A052H         LINE#         414
  -------         ENDPROC       _MOD_WRITE_DPCD100
  -------         PROC          _MOD_WRITE_DPCD101
  D:0007H         SYMBOL        ucI
  C:AD72H         LINE#         422
  C:AD72H         LINE#         423
  C:AD72H         LINE#         424
  C:AD7CH         LINE#         425
  -------         ENDPROC       _MOD_WRITE_DPCD101
  -------         PROC          _MOD_WRITE_DPCD102
  D:0007H         SYMBOL        ucI
  C:981FH         LINE#         433
  C:981FH         LINE#         434
  C:981FH         LINE#         435
  C:9829H         LINE#         436
  C:982DH         LINE#         437
  C:982DH         LINE#         438
  C:9830H         LINE#         439
  C:9832H         LINE#         440
  C:9835H         LINE#         441
  C:9837H         LINE#         442
  C:983AH         LINE#         443
  C:983CH         LINE#         444
  C:983EH         LINE#         445
  C:9840H         LINE#         446
  C:9843H         LINE#         447
  C:9845H         LINE#         448
  C:984AH         LINE#         454
  C:984FH         LINE#         455
  C:9853H         LINE#         460
  C:985AH         LINE#         464
  C:985AH         LINE#         465
  C:9863H         LINE#         466
  C:9863H         LINE#         467
BL51 BANKED LINKER/LOCATER V6.22                                                      06/21/2023  15:37:55  PAGE 81


  C:9866H         LINE#         471
  C:9866H         LINE#         472
  -------         ENDPROC       _MOD_WRITE_DPCD102
  -------         PROC          _MOD_WRITE_DPCD103
  D:0007H         SYMBOL        ucI
  C:ADDCH         LINE#         480
  C:ADDCH         LINE#         481
  C:ADDCH         LINE#         482
  C:ADE4H         LINE#         483
  -------         ENDPROC       _MOD_WRITE_DPCD103
  -------         PROC          _MOD_WRITE_DPCD104
  D:0007H         SYMBOL        ucI
  C:AE9FH         LINE#         492
  C:AE9FH         LINE#         493
  C:AE9FH         LINE#         494
  C:AE9FH         LINE#         495
  -------         ENDPROC       _MOD_WRITE_DPCD104
  -------         PROC          _MOD_WRITE_DPCD105
  D:0007H         SYMBOL        ucI
  C:AEA0H         LINE#         503
  C:AEA0H         LINE#         504
  C:AEA0H         LINE#         505
  C:AEA0H         LINE#         506
  -------         ENDPROC       _MOD_WRITE_DPCD105
  -------         PROC          _MOD_WRITE_DPCD106
  D:0007H         SYMBOL        ucI
  C:AEA1H         LINE#         514
  C:AEA1H         LINE#         515
  C:AEA1H         LINE#         516
  C:AEA1H         LINE#         517
  -------         ENDPROC       _MOD_WRITE_DPCD106
  -------         PROC          _MOD_WRITE_DPCD107
  D:0007H         SYMBOL        ucI
  C:AA4CH         LINE#         525
  C:AA4CH         LINE#         526
  C:AA4CH         LINE#         527
  C:AA59H         LINE#         528
  C:AA5CH         LINE#         529
  -------         ENDPROC       _MOD_WRITE_DPCD107
  -------         PROC          _MOD_WRITE_DPCD201
  D:0007H         SYMBOL        ucI
  C:AEA2H         LINE#         539
  C:AEA2H         LINE#         540
  C:AEA2H         LINE#         548
  C:AEA2H         LINE#         550
  -------         ENDPROC       _MOD_WRITE_DPCD201
  -------         PROC          _MOD_WRITE_DPCD600
  D:0007H         SYMBOL        ucI
  C:A361H         LINE#         559
  C:A361H         LINE#         560
  C:A361H         LINE#         561
  C:A366H         LINE#         562
  C:A366H         LINE#         563
  C:A369H         LINE#         564
  C:A36CH         LINE#         565
  C:A36EH         LINE#         566
  C:A371H         LINE#         567
BL51 BANKED LINKER/LOCATER V6.22                                                      06/21/2023  15:37:55  PAGE 82


  C:A373H         LINE#         568
  C:A375H         LINE#         569
  C:A377H         LINE#         570
  C:A37AH         LINE#         571
  C:A37CH         LINE#         572
  C:A37FH         LINE#         573
  C:A381H         LINE#         575
  C:A386H         LINE#         577
  C:A38BH         LINE#         578
  C:A38BH         LINE#         579
  -------         ENDPROC       _MOD_WRITE_DPCD600
  -------         PROC          _MOD_READ_DPCD
  X:05AFH         SYMBOL        ucLenth
  -------         DO            
  I:0011H         SYMBOL        ucIncrease
  I:0012H         SYMBOL        ucLoopAux
  -------         ENDDO         
  C:3697H         LINE#         588
  C:369CH         LINE#         589
  C:369CH         LINE#         592
  C:36A2H         LINE#         593
  C:36A2H         LINE#         594
  C:36B1H         LINE#         596
  C:36B1H         LINE#         664
  C:36B8H         LINE#         665
  C:36BEH         LINE#         666
  C:36C4H         LINE#         667
  C:36D5H         LINE#         668
  C:36D5H         LINE#         669
  C:36D8H         LINE#         670
  C:36D8H         LINE#         671
  C:36DFH         LINE#         672
  C:36DFH         LINE#         673
  C:36E5H         LINE#         674
  C:36E5H         LINE#         675
  C:36EBH         LINE#         676
  C:36EBH         LINE#         677
  C:36F6H         LINE#         678
  C:36FBH         LINE#         679
  C:370CH         LINE#         680
  C:370CH         LINE#         681
  C:370FH         LINE#         682
  C:372EH         LINE#         683
  C:372EH         LINE#         684
  C:372EH         LINE#         685
  C:3735H         LINE#         686
  C:3744H         LINE#         687
  C:3744H         LINE#         688
  C:3744H         LINE#         689
  C:3744H         LINE#         690
  C:3744H         LINE#         691
  C:374BH         LINE#         692
  C:3758H         LINE#         693
  C:3758H         LINE#         694
  C:3758H         LINE#         695
  C:3758H         LINE#         696
  C:3758H         LINE#         697
BL51 BANKED LINKER/LOCATER V6.22                                                      06/21/2023  15:37:55  PAGE 83


  C:375FH         LINE#         698
  C:376EH         LINE#         699
  C:376EH         LINE#         700
  C:376EH         LINE#         701
  C:376EH         LINE#         702
  C:376EH         LINE#         703
  C:3775H         LINE#         704
  C:3784H         LINE#         705
  C:3784H         LINE#         706
  C:3784H         LINE#         707
  C:3784H         LINE#         708
  C:3784H         LINE#         709
  C:378BH         LINE#         710
  C:379AH         LINE#         711
  C:379AH         LINE#         712
  C:379AH         LINE#         713
  C:379AH         LINE#         714
  C:379AH         LINE#         715
  C:37A9H         LINE#         716
  C:37A9H         LINE#         717
  C:37A9H         LINE#         718
  C:37A9H         LINE#         719
  C:37A9H         LINE#         720
  C:37B0H         LINE#         721
  C:37BAH         LINE#         722
  C:37BAH         LINE#         723
  C:37BBH         LINE#         724
  C:37BBH         LINE#         770
  C:37CCH         LINE#         771
  C:37CCH         LINE#         772
  C:37CFH         LINE#         773
  C:37F1H         LINE#         774
  C:37F1H         LINE#         775
  C:37F1H         LINE#         776
  C:37FDH         LINE#         777
  C:37FDH         LINE#         778
  C:37FDH         LINE#         779
  C:37FDH         LINE#         780
  C:37FDH         LINE#         781
  C:3809H         LINE#         782
  C:3809H         LINE#         783
  C:3809H         LINE#         784
  C:3809H         LINE#         785
  C:3809H         LINE#         786
  C:3810H         LINE#         787
  C:381CH         LINE#         788
  C:381CH         LINE#         789
  C:381CH         LINE#         790
  C:381CH         LINE#         791
  C:381CH         LINE#         792
  C:3823H         LINE#         793
  C:382DH         LINE#         794
  C:382DH         LINE#         795
  C:382DH         LINE#         796
  C:382DH         LINE#         797
  C:382DH         LINE#         798
  C:3837H         LINE#         799
BL51 BANKED LINKER/LOCATER V6.22                                                      06/21/2023  15:37:55  PAGE 84


  C:3837H         LINE#         800
  C:3838H         LINE#         801
  C:3838H         LINE#         804
  C:3838H         LINE#         805
  C:383FH         LINE#         806
  C:384BH         LINE#         807
  C:384BH         LINE#         808
  C:384BH         LINE#         809
  C:384BH         LINE#         810
  C:384BH         LINE#         811
  C:3852H         LINE#         812
  C:385EH         LINE#         813
  C:385EH         LINE#         814
  C:385EH         LINE#         815
  C:385EH         LINE#         816
  C:385EH         LINE#         817
  C:3865H         LINE#         818
  C:3868H         LINE#         819
  C:3868H         LINE#         820
  C:3868H         LINE#         821
  C:3868H         LINE#         822
  C:3868H         LINE#         823
  C:3868H         LINE#         824
  C:3868H         LINE#         825
  C:3868H         LINE#         826
  C:3868H         LINE#         827
  C:3868H         LINE#         828
  C:3868H         LINE#         829
  -------         ENDPROC       _MOD_READ_DPCD
  -------         PROC          _MOD_WRITE_DPCD
  X:05AFH         SYMBOL        ucLenth
  -------         DO            
  I:0011H         SYMBOL        ucIncrease
  I:0012H         SYMBOL        ucLoopAux
  -------         ENDDO         
  C:41DDH         LINE#         837
  C:41E2H         LINE#         838
  C:41E2H         LINE#         842
  C:41EDH         LINE#         843
  C:41EDH         LINE#         845
  C:41EDH         LINE#         846
  C:41F2H         LINE#         847
  C:41F9H         LINE#         848
  C:41FFH         LINE#         850
  C:4210H         LINE#         851
  C:4210H         LINE#         852
  C:4213H         LINE#         853
  C:4213H         LINE#         854
  C:421AH         LINE#         855
  C:421AH         LINE#         856
  C:4220H         LINE#         857
  C:4220H         LINE#         858
  C:4226H         LINE#         859
  C:4226H         LINE#         860
  C:422FH         LINE#         861
  C:4234H         LINE#         863
  C:4245H         LINE#         864
BL51 BANKED LINKER/LOCATER V6.22                                                      06/21/2023  15:37:55  PAGE 85


  C:4245H         LINE#         865
  C:4248H         LINE#         866
  C:426AH         LINE#         867
  C:426AH         LINE#         868
  C:426AH         LINE#         869
  C:4271H         LINE#         870
  C:4280H         LINE#         871
  C:4280H         LINE#         872
  C:4280H         LINE#         873
  C:4280H         LINE#         874
  C:4280H         LINE#         875
  C:4287H         LINE#         876
  C:4296H         LINE#         877
  C:4296H         LINE#         878
  C:4296H         LINE#         879
  C:4296H         LINE#         880
  C:4296H         LINE#         881
  C:429DH         LINE#         882
  C:42ACH         LINE#         883
  C:42ACH         LINE#         884
  C:42ACH         LINE#         885
  C:42ACH         LINE#         886
  C:42ACH         LINE#         887
  C:42B3H         LINE#         888
  C:42C2H         LINE#         889
  C:42C2H         LINE#         890
  C:42C2H         LINE#         891
  C:42C2H         LINE#         892
  C:42C2H         LINE#         893
  C:42C9H         LINE#         894
  C:42D6H         LINE#         895
  C:42D6H         LINE#         896
  C:42D6H         LINE#         897
  C:42D6H         LINE#         898
  C:42D6H         LINE#         899
  C:42DDH         LINE#         900
  C:42E7H         LINE#         901
  C:42E7H         LINE#         902
  C:42E7H         LINE#         903
  C:42E7H         LINE#         904
  C:42E7H         LINE#         905
  C:42EEH         LINE#         906
  C:42F8H         LINE#         907
  C:42F8H         LINE#         908
  C:42F8H         LINE#         909
  C:42F8H         LINE#         910
  C:42F8H         LINE#         911
  C:42FFH         LINE#         912
  C:42FFH         LINE#         956
  C:42FFH         LINE#         957
  C:42FFH         LINE#         958
  C:42FFH         LINE#         959
  C:42FFH         LINE#         961
  C:4309H         LINE#         962
  C:4309H         LINE#         963
  C:430DH         LINE#         964
  C:4313H         LINE#         965
BL51 BANKED LINKER/LOCATER V6.22                                                      06/21/2023  15:37:55  PAGE 86


  C:4313H         LINE#         966
  C:4313H         LINE#         967
  C:4313H         LINE#         968
  C:4315H         LINE#         987
  C:4315H         LINE#         988
  C:4315H         LINE#         989
  C:4315H         LINE#         990
  C:4315H         LINE#         991
  C:4321H         LINE#         992
  C:4321H         LINE#         993
  C:4324H         LINE#         994
  C:432EH         LINE#         995
  C:432EH         LINE#         996
  C:432EH         LINE#         997
  C:4338H         LINE#         998
  C:4338H         LINE#         999
  C:4339H         LINE#         1000
  C:4339H         LINE#         1002
  C:4339H         LINE#         1003
  C:4340H         LINE#         1004
  C:4340H         LINE#         1005
  C:4340H         LINE#         1006
  C:4340H         LINE#         1007
  C:4340H         LINE#         1008
  C:4340H         LINE#         1009
  C:434DH         LINE#         1010
  C:434DH         LINE#         1011
  C:4353H         LINE#         1012
  C:4353H         LINE#         1013
  C:4353H         LINE#         1014
  C:4353H         LINE#         1016
  C:4353H         LINE#         1061
  -------         ENDPROC       _MOD_WRITE_DPCD
  -------         PROC          MOD_DPRX_AUXTASK
  -------         DO            
  I:000DH         SYMBOL        ucRxLength
  I:000EH         SYMBOL        ucLoopAux
  I:000FH         SYMBOL        ucRxCmd
  I:0010H         SYMBOL        ucRxCounter
  -------         ENDDO         
  C:4B64H         LINE#         1070
  C:4B64H         LINE#         1071
  C:4B64H         LINE#         1077
  C:4B6DH         LINE#         1078
  C:4B73H         LINE#         1079
  C:4B7CH         LINE#         1080
  C:4B7FH         LINE#         1081
  C:4B82H         LINE#         1083
  C:4B8AH         LINE#         1084
  C:4B8AH         LINE#         1085
  C:4B8FH         LINE#         1087
  C:4B95H         LINE#         1088
  C:4B96H         LINE#         1090
  C:4B96H         LINE#         1093
  C:4B96H         LINE#         1094
  C:4B9AH         LINE#         1095
  C:4B9AH         LINE#         1097
BL51 BANKED LINKER/LOCATER V6.22                                                      06/21/2023  15:37:55  PAGE 87


  C:4BA2H         LINE#         1098
  C:4BA2H         LINE#         1099
  C:4BAFH         LINE#         1100
  C:4BAFH         LINE#         1101
  C:4BBAH         LINE#         1102
  C:4BBFH         LINE#         1103
  C:4BBFH         LINE#         1105
  C:4BDCH         LINE#         1106
  C:4BDCH         LINE#         1107
  C:4BDCH         LINE#         1108
  C:4BE3H         LINE#         1109
  C:4BE9H         LINE#         1110
  C:4BE9H         LINE#         1111
  C:4BE9H         LINE#         1112
  C:4BEBH         LINE#         1114
  C:4BEBH         LINE#         1115
  C:4BEBH         LINE#         1116
  C:4BEBH         LINE#         1117
  C:4BEEH         LINE#         1119
  C:4BEEH         LINE#         1120
  C:4BF5H         LINE#         1121
  C:4BFCH         LINE#         1122
  C:4BFCH         LINE#         1123
  C:4BFCH         LINE#         1124
  C:4C04H         LINE#         1125
  C:4C04H         LINE#         1126
  C:4C12H         LINE#         1127
  C:4C12H         LINE#         1128
  C:4C1DH         LINE#         1129
  C:4C24H         LINE#         1130
  C:4C24H         LINE#         1131
  C:4C2DH         LINE#         1132
  C:4C31H         LINE#         1133
  C:4C31H         LINE#         1134
  C:4C31H         LINE#         1135
  C:4C33H         LINE#         1136
  C:4C37H         LINE#         1137
  C:4C37H         LINE#         1138
  C:4C43H         LINE#         1139
  C:4C43H         LINE#         1140
  C:4C47H         LINE#         1141
  C:4C47H         LINE#         1142
  C:4C47H         LINE#         1143
  C:4C47H         LINE#         1144
  C:4C49H         LINE#         1146
  C:4C49H         LINE#         1147
  C:4C56H         LINE#         1148
  C:4C56H         LINE#         1149
  C:4C5DH         LINE#         1150
  C:4C5DH         LINE#         1151
  C:4C67H         LINE#         1152
  C:4C67H         LINE#         1153
  C:4C6AH         LINE#         1154
  C:4C6AH         LINE#         1156
  C:4C6AH         LINE#         1157
  C:4C6AH         LINE#         1158
  C:4C6AH         LINE#         1160
BL51 BANKED LINKER/LOCATER V6.22                                                      06/21/2023  15:37:55  PAGE 88


  C:4C6CH         LINE#         1162
  C:4C6CH         LINE#         1163
  C:4C79H         LINE#         1164
  C:4C79H         LINE#         1165
  C:4C80H         LINE#         1166
  C:4C80H         LINE#         1167
  C:4C82H         LINE#         1168
  C:4C8CH         LINE#         1169
  C:4C8CH         LINE#         1170
  C:4C8FH         LINE#         1171
  C:4C95H         LINE#         1172
  C:4C96H         LINE#         1174
  C:4C96H         LINE#         1175
  C:4C9DH         LINE#         1176
  C:4C9DH         LINE#         1177
  C:4C9DH         LINE#         1179
  C:4C9DH         LINE#         1180
  C:4C9DH         LINE#         1181
  C:4C9DH         LINE#         1182
  C:4CA0H         LINE#         1183
  C:4CA0H         LINE#         1184
  C:4CA0H         LINE#         1185
  -------         ENDPROC       MOD_DPRX_AUXTASK
  -------         PROC          MOD_AUX_GETTRAINDONESTATUS
  C:AC92H         LINE#         1195
  C:AC92H         LINE#         1196
  C:AC92H         LINE#         1197
  C:AC98H         LINE#         1198
  C:AC98H         LINE#         1199
  C:AC9BH         LINE#         1200
  C:AC9EH         LINE#         1201
  C:AC9EH         LINE#         1202
  C:ACA0H         LINE#         1203
  -------         ENDPROC       MOD_AUX_GETTRAINDONESTATUS
  -------         PROC          MOD_AUX_GETRETRAINSTATUS
  C:AD38H         LINE#         1213
  C:AD38H         LINE#         1214
  C:AD38H         LINE#         1215
  C:AD3EH         LINE#         1216
  C:AD3EH         LINE#         1217
  C:AD41H         LINE#         1218
  C:AD41H         LINE#         1219
  C:AD43H         LINE#         1220
  -------         ENDPROC       MOD_AUX_GETRETRAINSTATUS
  -------         PROC          MOD_AUX_LINKCNTGET
  C:0006H         LINE#         1222
  C:0006H         LINE#         1223
  C:0006H         LINE#         1224
  C:000AH         LINE#         1225
  -------         ENDPROC       MOD_AUX_LINKCNTGET
  -------         ENDMOD        MODAUXMSG

  -------         MODULE        MODCC1BASICTYPEC
  C:0000H         SYMBOL        _ICE_DUMMY_
  C:209FH         PUBLIC        _Chip_UFP_VdmMsg
  C:8D2DH         PUBLIC        CHIP_UccSend_SourceCap
  C:0046H         PUBLIC        _CHIP_UFP_Message
BL51 BANKED LINKER/LOCATER V6.22                                                      06/21/2023  15:37:55  PAGE 89


  C:44C9H         PUBLIC        Chip_UccMessage_Send
  C:95D5H         PUBLIC        _Chip_AltMode_Handle
  C:ACA1H         PUBLIC        Chip_ChunkMessage_Handle
  C:87D6H         PUBLIC        Chip_UccMessageSOP1_Send
  C:678DH         PUBLIC        Chip_UccRequest_Cal
  D:00C8H         PUBLIC        T2CON
  C:7AE8H         PUBLIC        _Chip_DiscoverID_Handle
  C:44BDH         SYMBOL        L?0304
  C:44C1H         SYMBOL        L?0305
  C:44C3H         SYMBOL        L?0306
  -------         PROC          L?0303
  -------         ENDPROC       L?0303
  C:44BDH         SYMBOL        L?0304
  C:44C1H         SYMBOL        L?0305
  C:44C3H         SYMBOL        L?0306
  -------         PROC          CHIP_UCCMESSAGE_SEND
  -------         DO            
  X:05C3H         SYMBOL        ucSendData
  X:05C4H         SYMBOL        ucSendMegSndDataOffset
  X:065DH         SYMBOL        ucUccTotalData
  X:065EH         SYMBOL        ucMessage_ID_Send
  -------         ENDDO         
  C:44C9H         LINE#         66
  C:44C9H         LINE#         67
  C:44C9H         LINE#         72
  C:44D5H         LINE#         73
  C:44EDH         LINE#         74
  C:4503H         LINE#         75
  C:4503H         LINE#         76
  C:4510H         LINE#         77
  C:451AH         LINE#         78
  C:4523H         LINE#         79
  C:4523H         LINE#         80
  C:4528H         LINE#         81
  C:4528H         LINE#         82
  C:452FH         LINE#         83
  C:4536H         LINE#         84
  C:4536H         LINE#         85
  C:453FH         LINE#         86
  C:4547H         LINE#         87
  C:4547H         LINE#         89
  C:4547H         LINE#         91
  C:4547H         LINE#         92
  C:4557H         LINE#         93
  C:456BH         LINE#         94
  C:456DH         LINE#         95
  C:4574H         LINE#         96
  C:4574H         LINE#         97
  C:457BH         LINE#         98
  C:4588H         LINE#         99
  C:4588H         LINE#         100
  C:458BH         LINE#         101
  C:458DH         LINE#         103
  C:458DH         LINE#         104
  C:4590H         LINE#         105
  C:4590H         LINE#         106
  C:459DH         LINE#         107
BL51 BANKED LINKER/LOCATER V6.22                                                      06/21/2023  15:37:55  PAGE 90


  C:459FH         LINE#         108
  C:45A9H         LINE#         109
  C:45A9H         LINE#         110
  C:45B0H         LINE#         111
  C:45B5H         LINE#         112
  C:45B7H         LINE#         113
  C:45C5H         LINE#         114
  C:45C5H         LINE#         115
  C:45DAH         LINE#         116
  C:45DAH         LINE#         117
  C:45DCH         LINE#         118
  C:45E3H         LINE#         119
  C:45E3H         LINE#         120
  C:45E9H         LINE#         121
  C:45E9H         LINE#         122
  C:45F1H         LINE#         123
  C:45FAH         LINE#         124
  C:4603H         LINE#         125
  C:4603H         LINE#         127
  C:4603H         LINE#         129
  C:4603H         LINE#         130
  C:4609H         LINE#         131
  C:4609H         LINE#         133
  C:460FH         LINE#         134
  C:4616H         LINE#         135
  C:4619H         LINE#         137
  -------         ENDPROC       CHIP_UCCMESSAGE_SEND
  -------         PROC          CHIP_UCCMESSAGESOP1_SEND
  -------         DO            
  D:0005H         SYMBOL        ucSendData
  D:0006H         SYMBOL        ucSendMegSndDataOffset
  D:0007H         SYMBOL        ucUccTotalData
  -------         ENDDO         
  C:87D6H         LINE#         147
  C:87D6H         LINE#         148
  C:87D6H         LINE#         152
  C:87D8H         LINE#         153
  C:87DFH         LINE#         154
  C:87DFH         LINE#         155
  C:87E9H         LINE#         156
  C:87F3H         LINE#         157
  C:87F7H         LINE#         158
  C:87F7H         LINE#         159
  C:87FAH         LINE#         160
  C:87FDH         LINE#         161
  C:87FFH         LINE#         162
  C:8802H         LINE#         163
  C:8802H         LINE#         164
  C:8806H         LINE#         165
  C:8810H         LINE#         166
  C:8810H         LINE#         167
  C:8813H         LINE#         168
  C:8815H         LINE#         170
  C:8815H         LINE#         171
  C:8818H         LINE#         172
  C:8818H         LINE#         173
  C:881CH         LINE#         174
BL51 BANKED LINKER/LOCATER V6.22                                                      06/21/2023  15:37:55  PAGE 91


  C:881CH         LINE#         175
  C:8821H         LINE#         176
  C:8824H         LINE#         177
  C:882AH         LINE#         178
  C:8830H         LINE#         179
  C:8837H         LINE#         180
  C:883AH         LINE#         181
  -------         ENDPROC       CHIP_UCCMESSAGESOP1_SEND
  -------         PROC          _CHIP_ALTMODE_HANDLE
  D:0007H         SYMBOL        ucCom_Type
  D:0005H         SYMBOL        ucCommand
  C:95D5H         LINE#         191
  C:95D5H         LINE#         192
  C:95D5H         LINE#         193
  C:95DAH         LINE#         194
  C:95DCH         LINE#         195
  C:95E1H         LINE#         196
  C:95E7H         LINE#         197
  C:95E7H         LINE#         198
  C:95F3H         LINE#         199
  C:95F3H         LINE#         200
  C:95FAH         LINE#         201
  C:95FCH         LINE#         203
  C:95FCH         LINE#         204
  C:960EH         LINE#         205
  C:960EH         LINE#         206
  C:960EH         LINE#         207
  C:9616H         LINE#         208
  C:961EH         LINE#         209
  -------         ENDPROC       _CHIP_ALTMODE_HANDLE
  -------         PROC          _CHIP_DISCOVERID_HANDLE
  D:0007H         SYMBOL        ucPD_Ver
  D:0001H         SYMBOL        pucData
  X:05BDH         SYMBOL        ucReply
  C:7AE8H         LINE#         221
  C:7AE8H         LINE#         222
  C:7AE8H         LINE#         225
  C:7AEEH         LINE#         226
  C:7AEEH         LINE#         228
  C:7AF4H         LINE#         229
  C:7AF6H         LINE#         231
  C:7AF6H         LINE#         232
  C:7AFBH         LINE#         233
  C:7AFBH         LINE#         234
  C:7B03H         LINE#         235
  C:7B0DH         LINE#         236
  C:7B17H         LINE#         237
  C:7B21H         LINE#         238
  C:7B2CH         LINE#         239
  C:7B2CH         LINE#         240
  C:7B2FH         LINE#         241
  C:7B31H         LINE#         243
  C:7B31H         LINE#         244
  C:7B34H         LINE#         245
  C:7B34H         LINE#         246
  C:7B3AH         LINE#         247
  C:7B3AH         LINE#         249
BL51 BANKED LINKER/LOCATER V6.22                                                      06/21/2023  15:37:55  PAGE 92


  C:7B40H         LINE#         250
  C:7B42H         LINE#         252
  C:7B42H         LINE#         253
  C:7B47H         LINE#         254
  C:7B47H         LINE#         255
  C:7B4EH         LINE#         256
  C:7B50H         LINE#         257
  C:7B5AH         LINE#         258
  C:7B64H         LINE#         259
  C:7B6BH         LINE#         260
  C:7B6BH         LINE#         261
  C:7B6EH         LINE#         262
  C:7B6FH         LINE#         264
  C:7B6FH         LINE#         265
  C:7B72H         LINE#         266
  C:7B72H         LINE#         313
  -------         ENDPROC       _CHIP_DISCOVERID_HANDLE
  -------         PROC          CHIP_CHUNKMESSAGE_HANDLE
  C:ACA1H         LINE#         320
  C:ACA1H         LINE#         321
  C:ACA1H         LINE#         366
  C:ACA1H         LINE#         367
  C:ACADH         LINE#         368
  -------         ENDPROC       CHIP_CHUNKMESSAGE_HANDLE
  -------         PROC          CHIP_UCCSEND_SOURCECAP
  C:8D2DH         LINE#         377
  C:8D2DH         LINE#         378
  C:8D2DH         LINE#         379
  C:8D33H         LINE#         380
  C:8D33H         LINE#         392
  C:8D3AH         LINE#         393
  C:8D3AH         LINE#         394
  C:8D40H         LINE#         395
  C:8D42H         LINE#         397
  C:8D42H         LINE#         398
  C:8D4BH         LINE#         399
  C:8D4BH         LINE#         400
  C:8D4FH         LINE#         401
  C:8D51H         LINE#         403
  C:8D51H         LINE#         404
  C:8D55H         LINE#         405
  C:8D55H         LINE#         406
  C:8D55H         LINE#         440
  C:8D57H         LINE#         442
  C:8D57H         LINE#         444
  C:8D65H         LINE#         445
  C:8D65H         LINE#         446
  C:8D6DH         LINE#         447
  C:8D6FH         LINE#         450
  C:8D6FH         LINE#         451
  C:8D7AH         LINE#         452
  C:8D7AH         LINE#         453
  C:8D86H         LINE#         454
  C:8D86H         LINE#         455
  -------         ENDPROC       CHIP_UCCSEND_SOURCECAP
  -------         PROC          CHIP_UCCREQUEST_CAL
  -------         DO            
BL51 BANKED LINKER/LOCATER V6.22                                                      06/21/2023  15:37:55  PAGE 93


  X:05B8H         SYMBOL        ucPPS_Request
  X:065FH         SYMBOL        ucPPSPosition
  X:0660H         SYMBOL        usRequest_Cur
  -------         ENDDO         
  C:678DH         LINE#         571
  C:678DH         LINE#         572
  C:678DH         LINE#         573
  C:6792H         LINE#         577
  C:67A8H         LINE#         578
  C:67A8H         LINE#         579
  C:67AEH         LINE#         580
  C:67B0H         LINE#         583
  C:67B0H         LINE#         584
  C:67BDH         LINE#         585
  C:67BDH         LINE#         600
  C:67BDH         LINE#         604
  C:67DCH         LINE#         605
  C:67F5H         LINE#         606
  C:67FBH         LINE#         607
  C:67FFH         LINE#         610
  C:6815H         LINE#         611
  C:6815H         LINE#         612
  C:681BH         LINE#         613
  C:681DH         LINE#         615
  C:681DH         LINE#         616
  C:6825H         LINE#         617
  C:6825H         LINE#         621
  C:682EH         LINE#         622
  C:6846H         LINE#         623
  C:685BH         LINE#         624
  C:6860H         LINE#         625
  C:6864H         LINE#         626
  C:6864H         LINE#         627
  C:6869H         LINE#         628
  -------         ENDPROC       CHIP_UCCREQUEST_CAL
  -------         PROC          _CHIP_UFP_VDMMSG
  D:0007H         SYMBOL        ucMsg_Type
  C:209FH         LINE#         713
  C:209FH         LINE#         714
  C:209FH         LINE#         715
  C:20A7H         LINE#         716
  C:20A7H         LINE#         717
  C:20B1H         LINE#         718
  C:20B1H         LINE#         719
  C:20C3H         LINE#         720
  C:20C3H         LINE#         721
  C:20E5H         LINE#         722
  C:20E5H         LINE#         723
  C:20E5H         LINE#         726
  C:20EDH         LINE#         727
  C:2101H         LINE#         728
  C:2108H         LINE#         729
  C:2108H         LINE#         730
  C:210CH         LINE#         731
  C:210EH         LINE#         733
  C:210EH         LINE#         734
  C:211AH         LINE#         735
BL51 BANKED LINKER/LOCATER V6.22                                                      06/21/2023  15:37:55  PAGE 94


  C:211AH         LINE#         751
  C:211AH         LINE#         752
  C:211DH         LINE#         753
  C:2124H         LINE#         754
  C:2128H         LINE#         755
  C:2128H         LINE#         756
  C:212BH         LINE#         757
  C:212BH         LINE#         758
  C:2132H         LINE#         760
  C:213BH         LINE#         761
  C:213BH         LINE#         762
  C:213FH         LINE#         763
  C:2141H         LINE#         765
  C:2141H         LINE#         766
  C:214BH         LINE#         767
  C:214BH         LINE#         771
  C:214EH         LINE#         772
  C:2152H         LINE#         773
  C:2155H         LINE#         774
  C:2155H         LINE#         775
  C:215CH         LINE#         777
  C:2163H         LINE#         778
  C:2163H         LINE#         779
  C:2169H         LINE#         780
  C:216BH         LINE#         782
  C:216BH         LINE#         783
  C:217AH         LINE#         784
  C:217AH         LINE#         785
  C:217EH         LINE#         786
  C:2180H         LINE#         788
  C:2180H         LINE#         789
  C:218BH         LINE#         790
  C:218BH         LINE#         801
  C:2197H         LINE#         802
  C:2197H         LINE#         824
  C:219AH         LINE#         825
  C:219EH         LINE#         826
  C:21A1H         LINE#         827
  C:21A1H         LINE#         829
  C:21A7H         LINE#         831
  C:21AEH         LINE#         859
  C:21C1H         LINE#         860
  C:21C8H         LINE#         861
  C:21CEH         LINE#         862
  C:21D1H         LINE#         864
  C:21D5H         LINE#         865
  C:21D8H         LINE#         866
  C:21D8H         LINE#         867
  C:21EBH         LINE#         885
  C:21F2H         LINE#         887
  C:21F8H         LINE#         888
  C:21FBH         LINE#         889
  C:2202H         LINE#         893
  C:2206H         LINE#         894
  C:2209H         LINE#         895
  C:2209H         LINE#         896
  C:2209H         LINE#         897
BL51 BANKED LINKER/LOCATER V6.22                                                      06/21/2023  15:37:55  PAGE 95


  C:2209H         LINE#         898
  C:2210H         LINE#         899
  C:2222H         LINE#         900
  C:222BH         LINE#         901
  C:222BH         LINE#         902
  C:222FH         LINE#         903
  C:2231H         LINE#         905
  C:2231H         LINE#         906
  C:223BH         LINE#         907
  C:223BH         LINE#         908
  C:223EH         LINE#         909
  C:2242H         LINE#         910
  C:2244H         LINE#         911
  C:2244H         LINE#         912
  C:224BH         LINE#         915
  C:225BH         LINE#         916
  C:225BH         LINE#         917
  C:2262H         LINE#         918
  C:2262H         LINE#         919
  C:2264H         LINE#         920
  C:2266H         LINE#         921
  C:226AH         LINE#         922
  C:226AH         LINE#         923
  C:2270H         LINE#         924
  C:2270H         LINE#         925
  C:2272H         LINE#         926
  C:2272H         LINE#         927
  C:2274H         LINE#         929
  C:2274H         LINE#         931
  C:2274H         LINE#         932
  C:2274H         LINE#         935
  C:2274H         LINE#         936
  C:227AH         LINE#         937
  C:227AH         LINE#         938
  C:227CH         LINE#         939
  C:227CH         LINE#         940
  C:227CH         LINE#         944
  C:2280H         LINE#         945
  C:2283H         LINE#         946
  C:2291H         LINE#         947
  C:2292H         LINE#         948
  C:2292H         LINE#         949
  C:2292H         LINE#         950
  C:2292H         LINE#         951
  C:2292H         LINE#         953
  C:22A6H         LINE#         954
  C:22A6H         LINE#         955
  C:22B3H         LINE#         956
  C:22B3H         LINE#         957
  C:22B3H         LINE#         960
  C:22CCH         LINE#         962
  C:22CCH         LINE#         964
  C:22D2H         LINE#         965
  C:22D4H         LINE#         967
  C:22D4H         LINE#         968
  C:22DAH         LINE#         969
  C:22DDH         LINE#         970
BL51 BANKED LINKER/LOCATER V6.22                                                      06/21/2023  15:37:55  PAGE 96


  C:22EBH         LINE#         971
  C:22EBH         LINE#         972
  C:22F1H         LINE#         973
  C:22F5H         LINE#         1009
  C:22F6H         LINE#         1010
  C:22F6H         LINE#         1011
  C:22F6H         LINE#         1012
  C:22F6H         LINE#         1013
  C:22F6H         LINE#         1059
  C:22F6H         LINE#         1062
  C:2300H         LINE#         1063
  C:2300H         LINE#         1064
  C:2312H         LINE#         1065
  C:2312H         LINE#         1066
  C:2318H         LINE#         1136
  C:2323H         LINE#         1137
  C:2323H         LINE#         1138
  C:2328H         LINE#         1139
  C:2328H         LINE#         1140
  C:232EH         LINE#         1141
  C:232EH         LINE#         1142
  C:2330H         LINE#         1143
  C:2337H         LINE#         1144
  C:2337H         LINE#         1145
  C:233DH         LINE#         1146
  C:233DH         LINE#         1147
  C:233FH         LINE#         1148
  C:2346H         LINE#         1149
  C:2346H         LINE#         1150
  C:234CH         LINE#         1151
  C:234CH         LINE#         1152
  C:234EH         LINE#         1153
  C:2356H         LINE#         1154
  C:2356H         LINE#         1155
  C:2362H         LINE#         1156
  C:2362H         LINE#         1157
  C:2368H         LINE#         1158
  C:2368H         LINE#         1160
  C:236AH         LINE#         1161
  C:237AH         LINE#         1162
  C:237AH         LINE#         1163
  C:2380H         LINE#         1164
  C:2380H         LINE#         1165
  C:2380H         LINE#         1166
  C:2382H         LINE#         1167
  C:2389H         LINE#         1168
  C:2389H         LINE#         1169
  C:238FH         LINE#         1170
  C:238FH         LINE#         1171
  C:2391H         LINE#         1172
  C:2398H         LINE#         1173
  C:2398H         LINE#         1174
  C:239EH         LINE#         1175
  C:239EH         LINE#         1176
  C:23A0H         LINE#         1177
  C:23A7H         LINE#         1178
  C:23A7H         LINE#         1179
BL51 BANKED LINKER/LOCATER V6.22                                                      06/21/2023  15:37:55  PAGE 97


  C:23B3H         LINE#         1180
  C:23B6H         LINE#         1181
  C:23B6H         LINE#         1182
  C:23BEH         LINE#         1183
  C:23BEH         LINE#         1184
  C:23C5H         LINE#         1185
  C:23C5H         LINE#         1186
  C:23CBH         LINE#         1187
  C:23CEH         LINE#         1188
  C:23D1H         LINE#         1189
  C:23D3H         LINE#         1190
  C:23D9H         LINE#         1191
  C:23D9H         LINE#         1193
  C:23DFH         LINE#         1194
  C:23E2H         LINE#         1195
  C:23E8H         LINE#         1196
  C:23E8H         LINE#         1197
  C:23E8H         LINE#         1198
  C:23E8H         LINE#         1199
  C:23E8H         LINE#         1200
  C:23E9H         LINE#         1203
  C:23E9H         LINE#         1204
  C:23F2H         LINE#         1205
  C:23F2H         LINE#         1206
  C:23F2H         LINE#         1207
  C:23F5H         LINE#         1208
  C:23FBH         LINE#         1209
  C:23FBH         LINE#         1210
  C:23FBH         LINE#         1211
  C:23FBH         LINE#         1212
  -------         ENDPROC       _CHIP_UFP_VDMMSG
  -------         PROC          _CHIP_UFP_MESSAGE
  X:05B7H         SYMBOL        ucMsg_Type
  D:0005H         SYMBOL        ucLength
  D:0003H         SYMBOL        ucExt
  C:0046H         LINE#         1220
  C:004BH         LINE#         1221
  C:004BH         LINE#         1222
  C:0051H         LINE#         1223
  C:0051H         LINE#         1224
  C:0057H         LINE#         1225
  C:0057H         LINE#         1226
  C:0098H         LINE#         1227
  C:0098H         LINE#         1228
  C:0098H         LINE#         1229
  C:0098H         LINE#         1230
  C:0098H         LINE#         1231
  C:0098H         LINE#         1232
  C:009FH         LINE#         1233
  C:009FH         LINE#         1234
  C:00A2H         LINE#         1235
  C:00A2H         LINE#         1236
  C:00B2H         LINE#         1237
  C:00B2H         LINE#         1238
  C:00B9H         LINE#         1239
  C:00B9H         LINE#         1240
  C:00BFH         LINE#         1241
BL51 BANKED LINKER/LOCATER V6.22                                                      06/21/2023  15:37:55  PAGE 98


  C:00C2H         LINE#         1242
  C:00C2H         LINE#         1243
  C:00C2H         LINE#         1245
  C:00D2H         LINE#         1246
  C:00D2H         LINE#         1247
  C:00D9H         LINE#         1248
  C:00DCH         LINE#         1249
  C:00E1H         LINE#         1250
  C:00E2H         LINE#         1251
  C:00F2H         LINE#         1252
  C:00F2H         LINE#         1253
  C:00FDH         LINE#         1254
  C:00FDH         LINE#         1255
  C:00FDH         LINE#         1256
  C:00FDH         LINE#         1257
  C:0100H         LINE#         1258
  C:0113H         LINE#         1259
  C:0113H         LINE#         1260
  C:011AH         LINE#         1261
  C:011AH         LINE#         1262
  C:011DH         LINE#         1263
  C:011DH         LINE#         1264
  C:0124H         LINE#         1265
  C:0124H         LINE#         1266
  C:0127H         LINE#         1267
  C:0127H         LINE#         1268
  C:012DH         LINE#         1269
  C:012DH         LINE#         1271
  C:012EH         LINE#         1272
  C:012EH         LINE#         1274
  C:013EH         LINE#         1275
  C:013EH         LINE#         1277
  C:0146H         LINE#         1280
  C:0159H         LINE#         1281
  C:0159H         LINE#         1282
  C:015FH         LINE#         1283
  C:015FH         LINE#         1298
  C:015FH         LINE#         1300
  C:015FH         LINE#         1301
  C:016FH         LINE#         1302
  C:016FH         LINE#         1303
  C:0176H         LINE#         1304
  C:017CH         LINE#         1305
  C:0181H         LINE#         1306
  C:0185H         LINE#         1307
  C:018EH         LINE#         1308
  C:018EH         LINE#         1309
  C:0190H         LINE#         1310
  C:0190H         LINE#         1311
  C:0191H         LINE#         1312
  C:01A1H         LINE#         1313
  C:01A1H         LINE#         1314
  C:01ACH         LINE#         1315
  C:01ACH         LINE#         1316
  C:01ACH         LINE#         1317
  C:01ACH         LINE#         1318
  C:01AFH         LINE#         1319
BL51 BANKED LINKER/LOCATER V6.22                                                      06/21/2023  15:37:55  PAGE 99


  C:01C2H         LINE#         1320
  C:01C2H         LINE#         1321
  C:01C9H         LINE#         1322
  C:01C9H         LINE#         1323
  C:01C9H         LINE#         1324
  C:01CCH         LINE#         1325
  C:01CCH         LINE#         1326
  C:01CCH         LINE#         1327
  C:01CCH         LINE#         1328
  C:01D2H         LINE#         1329
  C:01D7H         LINE#         1331
  C:01E8H         LINE#         1332
  C:01E8H         LINE#         1334
  C:01EEH         LINE#         1335
  C:01F7H         LINE#         1336
  C:01F7H         LINE#         1337
  C:01F9H         LINE#         1338
  C:01FBH         LINE#         1340
  C:01FBH         LINE#         1341
  C:0202H         LINE#         1342
  C:0202H         LINE#         1343
  C:0209H         LINE#         1344
  C:0210H         LINE#         1345
  C:0213H         LINE#         1346
  C:021AH         LINE#         1347
  C:0220H         LINE#         1348
  C:0224H         LINE#         1349
  C:0228H         LINE#         1350
  C:022CH         LINE#         1351
  C:0233H         LINE#         1352
  C:0236H         LINE#         1353
  C:0236H         LINE#         1354
  C:023DH         LINE#         1355
  C:023DH         LINE#         1356
  C:0243H         LINE#         1357
  C:0248H         LINE#         1358
  C:024CH         LINE#         1359
  C:0252H         LINE#         1360
  C:0258H         LINE#         1361
  C:0258H         LINE#         1362
  C:025AH         LINE#         1363
  C:025AH         LINE#         1364
  C:025AH         LINE#         1367
  C:026AH         LINE#         1368
  C:026AH         LINE#         1369
  C:026FH         LINE#         1370
  C:0277H         LINE#         1371
  C:0277H         LINE#         1372
  C:027CH         LINE#         1373
  C:027CH         LINE#         1374
  C:027CH         LINE#         1375
  C:02A4H         LINE#         1376
  C:02A4H         LINE#         1377
  C:02A9H         LINE#         1378
  C:02A9H         LINE#         1380
  C:02AAH         LINE#         1381
  C:02AAH         LINE#         1382
BL51 BANKED LINKER/LOCATER V6.22                                                      06/21/2023  15:37:55  PAGE 100


  C:02B2H         LINE#         1383
  C:02B2H         LINE#         1384
  C:02B5H         LINE#         1385
  C:02BBH         LINE#         1386
  C:02BBH         LINE#         1387
  C:02C1H         LINE#         1388
  C:02C3H         LINE#         1390
  C:02C3H         LINE#         1392
  C:02C3H         LINE#         1393
  C:02C3H         LINE#         1395
  C:02C3H         LINE#         1398
  C:02CFH         LINE#         1404
  C:02CFH         LINE#         1405
  C:02CFH         LINE#         1406
  C:02D1H         LINE#         1407
  C:02D1H         LINE#         1408
  C:02DDH         LINE#         1409
  C:02DDH         LINE#         1410
  C:02E3H         LINE#         1411
  C:02E3H         LINE#         1412
  C:02E9H         LINE#         1413
  C:02E9H         LINE#         1414
  C:02EEH         LINE#         1415
  C:02FAH         LINE#         1416
  C:02FAH         LINE#         1417
  C:02FDH         LINE#         1418
  C:0304H         LINE#         1419
  C:0304H         LINE#         1420
  C:030DH         LINE#         1421
  C:030DH         LINE#         1422
  C:030DH         LINE#         1423
  C:030DH         LINE#         1424
  C:0310H         LINE#         1426
  C:0310H         LINE#         1427
  C:0316H         LINE#         1428
  C:0321H         LINE#         1429
  C:0321H         LINE#         1430
  C:0325H         LINE#         1431
  C:0327H         LINE#         1433
  C:0327H         LINE#         1434
  C:0331H         LINE#         1435
  C:0331H         LINE#         1436
  C:0331H         LINE#         1437
  C:0331H         LINE#         1438
  C:0334H         LINE#         1439
  C:0334H         LINE#         1441
  C:033CH         LINE#         1442
  C:033CH         LINE#         1443
  C:0345H         LINE#         1444
  C:0345H         LINE#         1445
  C:0345H         LINE#         1448
  C:0345H         LINE#         1449
  C:0348H         LINE#         1451
  C:0348H         LINE#         1452
  C:034DH         LINE#         1453
  C:0353H         LINE#         1454
  C:0359H         LINE#         1455
BL51 BANKED LINKER/LOCATER V6.22                                                      06/21/2023  15:37:55  PAGE 101


  C:0359H         LINE#         1456
  C:035FH         LINE#         1457
  C:0362H         LINE#         1458
  C:0364H         LINE#         1460
  C:0364H         LINE#         1462
  C:036AH         LINE#         1464
  C:0370H         LINE#         1465
  C:0373H         LINE#         1466
  C:0381H         LINE#         1467
  C:0381H         LINE#         1468
  C:0388H         LINE#         1469
  C:038BH         LINE#         1470
  C:038BH         LINE#         1472
  C:038CH         LINE#         1473
  C:038CH         LINE#         1503
  C:0392H         LINE#         1504
  C:0395H         LINE#         1505
  C:0395H         LINE#         1507
  C:0398H         LINE#         1508
  C:0398H         LINE#         1510
  C:039DH         LINE#         1515
  C:03A4H         LINE#         1532
  C:03B3H         LINE#         1533
  C:03B3H         LINE#         1534
  C:03BFH         LINE#         1535
  C:03C4H         LINE#         1536
  C:03D1H         LINE#         1537
  C:03D3H         LINE#         1539
  C:03D3H         LINE#         1540
  C:03DFH         LINE#         1541
  C:03DFH         LINE#         1542
  C:03E2H         LINE#         1544
  C:03F6H         LINE#         1545
  C:03F6H         LINE#         1546
  C:03FBH         LINE#         1547
  C:03FBH         LINE#         1549
  C:03FCH         LINE#         1550
  C:03FCH         LINE#         1551
  C:0402H         LINE#         1552
  C:040EH         LINE#         1553
  C:040EH         LINE#         1554
  C:040EH         LINE#         1555
  C:0413H         LINE#         1556
  C:0419H         LINE#         1557
  C:0419H         LINE#         1558
  C:041FH         LINE#         1559
  C:041FH         LINE#         1560
  C:0425H         LINE#         1561
  C:0428H         LINE#         1562
  C:0428H         LINE#         1563
  C:042AH         LINE#         1564
  C:042AH         LINE#         1565
  C:0432H         LINE#         1566
  C:0432H         LINE#         1567
  C:043AH         LINE#         1568
  C:0440H         LINE#         1569
  C:0442H         LINE#         1571
BL51 BANKED LINKER/LOCATER V6.22                                                      06/21/2023  15:37:55  PAGE 102


  C:0442H         LINE#         1572
  C:044EH         LINE#         1573
  C:044EH         LINE#         1574
  C:0451H         LINE#         1575
  C:0457H         LINE#         1576
  C:0458H         LINE#         1577
  C:0458H         LINE#         1579
  C:045EH         LINE#         1580
  C:045EH         LINE#         1581
  C:0466H         LINE#         1582
  C:0466H         LINE#         1583
  C:046AH         LINE#         1584
  C:046DH         LINE#         1585
  C:0472H         LINE#         1586
  C:0476H         LINE#         1587
  C:0479H         LINE#         1589
  C:0479H         LINE#         1590
  C:047DH         LINE#         1591
  C:0480H         LINE#         1592
  C:0485H         LINE#         1593
  C:0485H         LINE#         1594
  C:0488H         LINE#         1596
  C:0488H         LINE#         1597
  C:048FH         LINE#         1598
  C:0498H         LINE#         1599
  C:0498H         LINE#         1600
  C:049EH         LINE#         1603
  C:049EH         LINE#         1604
  C:049EH         LINE#         1610
  C:049FH         LINE#         1611
  C:049FH         LINE#         1612
  C:049FH         LINE#         1613
  C:049FH         LINE#         1614
  C:049FH         LINE#         1615
  C:04A2H         LINE#         1616
  C:04A7H         LINE#         1617
  C:04AAH         LINE#         1618
  C:04AAH         LINE#         1619
  C:04B5H         LINE#         1620
  C:04B5H         LINE#         1621
  C:04BFH         LINE#         1622
  C:04C3H         LINE#         1623
  C:04C5H         LINE#         1625
  C:04C5H         LINE#         1626
  C:04CFH         LINE#         1627
  C:04DDH         LINE#         1628
  C:04DDH         LINE#         1629
  C:04E0H         LINE#         1630
  C:04E0H         LINE#         1631
  C:04E0H         LINE#         1632
  C:04E0H         LINE#         1634
  C:04E0H         LINE#         1635
  C:0506H         LINE#         1636
  C:0506H         LINE#         1637
  C:0506H         LINE#         1639
  C:050CH         LINE#         1642
  C:0519H         LINE#         1644
BL51 BANKED LINKER/LOCATER V6.22                                                      06/21/2023  15:37:55  PAGE 103


  C:051EH         LINE#         1645
  C:0524H         LINE#         1646
  C:0529H         LINE#         1647
  C:0532H         LINE#         1648
  C:0532H         LINE#         1650
  C:0532H         LINE#         1652
  C:0532H         LINE#         1653
  C:0542H         LINE#         1654
  C:0542H         LINE#         1659
  C:055FH         LINE#         1661
  C:0564H         LINE#         1663
  C:056AH         LINE#         1664
  C:056DH         LINE#         1665
  C:0573H         LINE#         1666
  C:0576H         LINE#         1667
  C:0576H         LINE#         1668
  C:057DH         LINE#         1670
  C:0582H         LINE#         1671
  C:0589H         LINE#         1672
  C:0590H         LINE#         1676
  C:0596H         LINE#         1677
  C:059FH         LINE#         1678
  C:059FH         LINE#         1680
  C:059FH         LINE#         1682
  C:059FH         LINE#         1683
  C:05AEH         LINE#         1684
  C:05AEH         LINE#         1685
  C:05B7H         LINE#         1686
  C:05B7H         LINE#         1687
  C:05B9H         LINE#         1688
  C:05BBH         LINE#         1690
  C:05BBH         LINE#         1691
  C:05C2H         LINE#         1692
  C:05C2H         LINE#         1693
  C:05C8H         LINE#         1709
  C:05CBH         LINE#         1739
  C:05CBH         LINE#         1740
  C:05D1H         LINE#         1741
  C:05D4H         LINE#         1742
  C:05DAH         LINE#         1743
  C:05DAH         LINE#         1745
  C:05DCH         LINE#         1746
  C:05DCH         LINE#         1762
  C:05DCH         LINE#         1763
  C:05DCH         LINE#         1764
  C:05DCH         LINE#         1765
  C:05DCH         LINE#         1766
  C:05DCH         LINE#         1767
  C:05DCH         LINE#         1768
  C:05DCH         LINE#         1769
  C:05DCH         LINE#         1770
  C:05DFH         LINE#         1771
  C:05E5H         LINE#         1772
  C:05E7H         LINE#         1773
  C:05E7H         LINE#         1774
  C:05EDH         LINE#         1775
  C:05F5H         LINE#         1776
BL51 BANKED LINKER/LOCATER V6.22                                                      06/21/2023  15:37:55  PAGE 104


  C:05F5H         LINE#         1777
  C:05F5H         LINE#         1778
  C:05F5H         LINE#         1779
  C:05F5H         LINE#         1780
  C:05F5H         LINE#         1781
  C:05F5H         LINE#         1783
  C:05F5H         LINE#         1784
  C:0600H         LINE#         1785
  C:0600H         LINE#         1786
  C:0600H         LINE#         1788
  C:0600H         LINE#         1790
  C:0600H         LINE#         1792
  C:0600H         LINE#         1794
  C:0600H         LINE#         1796
  C:0600H         LINE#         1798
  C:0600H         LINE#         1800
  C:0600H         LINE#         1802
  C:0600H         LINE#         1804
  C:0600H         LINE#         1806
  C:0600H         LINE#         1808
  C:0600H         LINE#         1810
  C:0600H         LINE#         1812
  C:0600H         LINE#         1813
  C:0600H         LINE#         1814
  C:0603H         LINE#         1815
  C:0611H         LINE#         1816
  C:0612H         LINE#         1817
  C:0612H         LINE#         1818
  C:0615H         LINE#         1819
  C:0615H         LINE#         1820
  C:0615H         LINE#         1821
  C:0615H         LINE#         1822
  -------         ENDPROC       _CHIP_UFP_MESSAGE
  -------         ENDMOD        MODCC1BASICTYPEC

  -------         MODULE        MODCC1MSGTYPEC
  C:0000H         SYMBOL        _ICE_DUMMY_
  C:7249H         PUBLIC        CHIP_Ucc_Retry
  B:00C8H.7       PUBLIC        TF2
  C:26DBH         PUBLIC        Mod_Ucc_Interrupt
  B:00C8H.2       PUBLIC        TR2
  C:A38CH         PUBLIC        Chip_MsgAfterAccept
  C:9867H         PUBLIC        Chip_LastMsg_Accept
  D:00C8H         PUBLIC        T2CON
  C:8F95H         PUBLIC        Chip_LastMsg_PsRdy
  -------         PROC          CHIP_MSGAFTERACCEPT
  C:A38CH         LINE#         4
  C:A38CH         LINE#         5
  C:A38CH         LINE#         6
  C:A392H         LINE#         7
  C:A398H         LINE#         8
  C:A398H         LINE#         9
  C:A3A4H         LINE#         10
  C:A3A7H         LINE#         11
  C:A3ACH         LINE#         12
  C:A3ADH         LINE#         14
  C:A3ADH         LINE#         15
BL51 BANKED LINKER/LOCATER V6.22                                                      06/21/2023  15:37:55  PAGE 105


  C:A3B3H         LINE#         16
  C:A3B6H         LINE#         17
  C:A3B6H         LINE#         18
  -------         ENDPROC       CHIP_MSGAFTERACCEPT
  -------         PROC          CHIP_LASTMSG_ACCEPT
  C:9867H         LINE#         19
  C:9867H         LINE#         20
  C:9867H         LINE#         22
  C:986DH         LINE#         56
  C:9878H         LINE#         57
  C:9878H         LINE#         58
  C:987BH         LINE#         59
  C:9881H         LINE#         60
  C:9884H         LINE#         61
  C:988BH         LINE#         62
  C:9892H         LINE#         63
  C:9893H         LINE#         65
  C:9893H         LINE#         66
  C:9899H         LINE#         67
  C:9899H         LINE#         68
  C:98A3H         LINE#         69
  C:98A3H         LINE#         70
  C:98A3H         LINE#         71
  C:98A3H         LINE#         72
  C:98A5H         LINE#         73
  C:98ABH         LINE#         74
  C:98ABH         LINE#         75
  C:98AEH         LINE#         76
  C:98AEH         LINE#         77
  C:98AEH         LINE#         80
  -------         ENDPROC       CHIP_LASTMSG_ACCEPT
  -------         PROC          CHIP_LASTMSG_PSRDY
  C:8F95H         LINE#         81
  C:8F95H         LINE#         82
  C:8F95H         LINE#         83
  C:8F9EH         LINE#         84
  C:8F9EH         LINE#         86
  C:8FA9H         LINE#         87
  C:8FA9H         LINE#         88
  C:8FAFH         LINE#         89
  C:8FB1H         LINE#         90
  C:8FBBH         LINE#         91
  C:8FBBH         LINE#         92
  C:8FC1H         LINE#         93
  C:8FC1H         LINE#         94
  C:8FC3H         LINE#         95
  C:8FC3H         LINE#         96
  C:8FC3H         LINE#         112
  C:8FC9H         LINE#         113
  C:8FC9H         LINE#         114
  C:8FD1H         LINE#         115
  C:8FD1H         LINE#         116
  C:8FD6H         LINE#         117
  C:8FD6H         LINE#         118
  C:8FD7H         LINE#         119
  C:8FDFH         LINE#         120
  C:8FDFH         LINE#         121
BL51 BANKED LINKER/LOCATER V6.22                                                      06/21/2023  15:37:55  PAGE 106


  C:8FE2H         LINE#         122
  C:8FE2H         LINE#         125
  C:8FE3H         LINE#         127
  C:8FE3H         LINE#         128
  C:8FE9H         LINE#         129
  C:8FE9H         LINE#         130
  -------         ENDPROC       CHIP_LASTMSG_PSRDY
  -------         PROC          MOD_UCC_INTERRUPT
  -------         DO            
  X:05B1H         SYMBOL        ucUccMsgLength
  X:05B2H         SYMBOL        ucUccExtMsg
  X:05B3H         SYMBOL        ucUccMsgType
  X:05B4H         SYMBOL        ucUccTypecInt
  X:05B5H         SYMBOL        ucUccKeyCode
  X:05B6H         SYMBOL        ucUccRXCount
  -------         ENDDO         
  C:26DBH         LINE#         131
  C:26DBH         LINE#         132
  C:26DBH         LINE#         139
  C:26E4H         LINE#         140
  C:26EAH         LINE#         141
  C:26F0H         LINE#         142
  C:26F4H         LINE#         143
  C:26F4H         LINE#         144
  C:26F9H         LINE#         145
  C:2704H         LINE#         146
  C:270AH         LINE#         148
  C:2710H         LINE#         149
  C:2715H         LINE#         150
  C:2718H         LINE#         151
  C:2718H         LINE#         152
  C:271CH         LINE#         153
  C:2723H         LINE#         154
  C:2725H         LINE#         156
  C:2725H         LINE#         157
  C:272EH         LINE#         158
  C:272EH         LINE#         159
  C:2731H         LINE#         160
  C:2737H         LINE#         161
  C:2739H         LINE#         163
  C:2739H         LINE#         164
  C:273CH         LINE#         165
  C:2741H         LINE#         166
  C:2741H         LINE#         167
  C:2741H         LINE#         178
  C:2748H         LINE#         179
  C:2748H         LINE#         180
  C:274EH         LINE#         181
  C:274EH         LINE#         182
  C:274EH         LINE#         183
  C:2756H         LINE#         184
  C:2756H         LINE#         185
  C:275EH         LINE#         186
  C:2766H         LINE#         190
  C:2766H         LINE#         191
  C:276EH         LINE#         192
  C:2778H         LINE#         193
BL51 BANKED LINKER/LOCATER V6.22                                                      06/21/2023  15:37:55  PAGE 107


  C:2788H         LINE#         194
  C:2797H         LINE#         195
  C:2797H         LINE#         196
  C:2797H         LINE#         197
  C:279BH         LINE#         198
  C:279BH         LINE#         200
  C:279BH         LINE#         201
  C:27A1H         LINE#         202
  C:27A1H         LINE#         203
  C:27AFH         LINE#         204
  C:27AFH         LINE#         205
  C:27BCH         LINE#         206
  C:27BEH         LINE#         208
  C:27BEH         LINE#         209
  C:27CAH         LINE#         210
  C:27CAH         LINE#         211
  C:27CCH         LINE#         213
  C:27CCH         LINE#         214
  C:27D1H         LINE#         215
  C:27D3H         LINE#         216
  C:27E7H         LINE#         217
  C:27E7H         LINE#         218
  C:27EDH         LINE#         219
  C:27FDH         LINE#         220
  C:27FDH         LINE#         221
  C:2800H         LINE#         222
  C:2803H         LINE#         223
  C:2803H         LINE#         224
  C:280DH         LINE#         225
  C:280DH         LINE#         226
  C:2814H         LINE#         227
  C:2818H         LINE#         228
  C:281DH         LINE#         229
  C:2821H         LINE#         230
  C:2827H         LINE#         231
  C:2827H         LINE#         233
  C:2827H         LINE#         235
  C:2827H         LINE#         236
  C:2829H         LINE#         237
  C:2829H         LINE#         238
  C:2831H         LINE#         239
  C:2831H         LINE#         240
  C:2838H         LINE#         241
  C:2838H         LINE#         242
  C:283DH         LINE#         243
  C:2841H         LINE#         244
  C:2841H         LINE#         245
  C:2841H         LINE#         246
  C:2847H         LINE#         247
  C:2855H         LINE#         248
  C:2855H         LINE#         249
  C:285BH         LINE#         250
  C:2861H         LINE#         251
  C:2861H         LINE#         252
  C:287AH         LINE#         253
  C:287AH         LINE#         254
  C:287FH         LINE#         255
BL51 BANKED LINKER/LOCATER V6.22                                                      06/21/2023  15:37:55  PAGE 108


  C:2881H         LINE#         256
  C:2897H         LINE#         257
  C:2897H         LINE#         258
  C:289CH         LINE#         259
  C:289CH         LINE#         260
  C:28A2H         LINE#         261
  C:28AAH         LINE#         262
  C:28AAH         LINE#         263
  C:28ACH         LINE#         265
  C:28ACH         LINE#         267
  C:28B3H         LINE#         268
  C:28B3H         LINE#         269
  C:28B6H         LINE#         270
  C:28B6H         LINE#         272
  C:28BBH         LINE#         273
  C:28BFH         LINE#         274
  C:28CEH         LINE#         275
  C:28CEH         LINE#         276
  C:28D1H         LINE#         277
  C:28D3H         LINE#         278
  C:28E3H         LINE#         279
  C:28E3H         LINE#         280
  C:28E6H         LINE#         281
  C:28E8H         LINE#         282
  C:28F8H         LINE#         283
  C:28F8H         LINE#         284
  C:28FEH         LINE#         285
  C:2900H         LINE#         287
  C:2910H         LINE#         288
  C:2910H         LINE#         290
  C:2913H         LINE#         291
  C:2919H         LINE#         292
  C:291CH         LINE#         293
  C:291CH         LINE#         295
  C:291CH         LINE#         296
  C:291CH         LINE#         297
  C:2926H         LINE#         298
  C:2926H         LINE#         299
  C:292CH         LINE#         300
  C:2933H         LINE#         301
  C:2933H         LINE#         302
  C:2935H         LINE#         303
  C:293BH         LINE#         304
  C:293BH         LINE#         305
  C:293DH         LINE#         306
  C:293FH         LINE#         308
  C:293FH         LINE#         309
  C:2941H         LINE#         310
  C:2944H         LINE#         311
  C:2946H         LINE#         312
  C:2946H         LINE#         313
  C:2946H         LINE#         314
  C:294EH         LINE#         315
  C:294EH         LINE#         316
  C:2950H         LINE#         317
  C:2957H         LINE#         318
  C:2957H         LINE#         319
BL51 BANKED LINKER/LOCATER V6.22                                                      06/21/2023  15:37:55  PAGE 109


  C:295DH         LINE#         320
  C:295DH         LINE#         321
  C:296DH         LINE#         322
  C:296DH         LINE#         323
  C:296FH         LINE#         325
  C:2975H         LINE#         326
  C:2975H         LINE#         327
  C:298FH         LINE#         328
  C:298FH         LINE#         329
  C:2994H         LINE#         330
  C:299EH         LINE#         331
  C:299EH         LINE#         332
  C:29A4H         LINE#         333
  C:29A6H         LINE#         335
  C:29A6H         LINE#         336
  C:29ABH         LINE#         337
  C:29ABH         LINE#         338
  C:29ABH         LINE#         339
  C:29ABH         LINE#         341
  C:29B0H         LINE#         342
  C:29B0H         LINE#         343
  C:29B0H         LINE#         344
  -------         ENDPROC       MOD_UCC_INTERRUPT
  -------         PROC          CHIP_UCC_RETRY
  -------         DO            
  X:066EH         SYMBOL        ucSoft_Reset_Cnt
  -------         ENDDO         
  C:7249H         LINE#         346
  C:7249H         LINE#         347
  C:7249H         LINE#         349
  C:7252H         LINE#         350
  C:7252H         LINE#         351
  C:7256H         LINE#         352
  C:7263H         LINE#         353
  C:7263H         LINE#         354
  C:7268H         LINE#         355
  C:7274H         LINE#         356
  C:728CH         LINE#         357
  C:728CH         LINE#         358
  C:7291H         LINE#         359
  C:7291H         LINE#         361
  C:7291H         LINE#         363
  C:7291H         LINE#         364
  C:7294H         LINE#         365
  C:7297H         LINE#         366
  C:7297H         LINE#         368
  C:7297H         LINE#         369
  C:7299H         LINE#         370
  C:72A0H         LINE#         371
  C:72A0H         LINE#         372
  C:72A5H         LINE#         373
  C:72A9H         LINE#         374
  C:72A9H         LINE#         375
  C:72AFH         LINE#         376
  C:72B3H         LINE#         377
  C:72B8H         LINE#         378
  C:72BFH         LINE#         379
BL51 BANKED LINKER/LOCATER V6.22                                                      06/21/2023  15:37:55  PAGE 110


  C:72BFH         LINE#         380
  C:72C1H         LINE#         381
  C:72C8H         LINE#         382
  C:72CEH         LINE#         383
  C:72CEH         LINE#         385
  C:72D1H         LINE#         386
  C:72D7H         LINE#         388
  C:72DDH         LINE#         389
  C:72DDH         LINE#         391
  C:72DEH         LINE#         393
  C:72DEH         LINE#         394
  C:72E5H         LINE#         395
  C:72EAH         LINE#         396
  C:72F6H         LINE#         397
  C:72F9H         LINE#         398
  C:72FFH         LINE#         399
  C:72FFH         LINE#         400
  C:72FFH         LINE#         401
  C:72FFH         LINE#         402
  -------         ENDPROC       CHIP_UCC_RETRY
  -------         ENDMOD        MODCC1MSGTYPEC

  -------         MODULE        MODCC1TYPEC
  C:0000H         SYMBOL        _ICE_DUMMY_
  C:A4B1H         PUBLIC        Chip_Dcc_FlipDet
  C:686AH         PUBLIC        CHIP_Ucc_OffAction
  C:A984H         PUBLIC        Chip_Ucc_OffScan
  C:A5E7H         PUBLIC        Chip_Ucc_WaitSend
  C:9E11H         PUBLIC        Chip_Rp_SoftRst_Handle
  X:002DH         PUBLIC        szCC_SourceCapExt
  X:004BH         PUBLIC        b1HPDLongTime
  C:2F24H         PUBLIC        szCC_CtrlMsg
  C:3EE2H         PUBLIC        CHIP_Ucc_SourceCapSend
  C:98AFH         PUBLIC        Chip_Dcc_FrDischarge
  C:30BCH         PUBLIC        szNintendoSwitch_SourceCap_Msg
  C:30C6H         PUBLIC        szLast_DataOrder_Buffer
  C:3006H         PUBLIC        szCC_Nintendo_DataMsg
  C:8497H         PUBLIC        Chip_Nintendoswitch_WakeUp_Handle
  X:004CH         PUBLIC        b2SwitchIntoSleep
  C:AB64H         PUBLIC        Mod_Ucc_ComDoneFlag
  C:A437H         PUBLIC        Chip_UccEmark_Handle
  C:826FH         PUBLIC        _CHIP_Ucc_SwapScan
  C:A72DH         PUBLIC        Chip_EnterIntoSwitch_Handle
  C:AA66H         PUBLIC        Chip_5ACable_Init
  C:6C62H         PUBLIC        CHIP_CC_VarInit
  C:7C07H         PUBLIC        _CHIP_Ucc_FlipDet
  C:6EA3H         PUBLIC        Chip_Ucc_PRSwapSend
  X:004DH         PUBLIC        DCCMSG
  C:863AH         PUBLIC        Chip_Ucc_PSSourceOffDet
  X:0125H         PUBLIC        b2Switch_Ada_Online
  C:953FH         PUBLIC        Chip_HubReset_Handle
  C:993EH         PUBLIC        CHIP_Ucc_OffDet
  C:A40DH         PUBLIC        Chip_HardRst_Send_Handle
  X:0126H         PUBLIC        UCCMSG
  C:64BFH         PUBLIC        Chip_Dcc_WithPdDet
  C:7E1DH         PUBLIC        Chip_Ucc_DrSwapSend
  C:9EEAH         PUBLIC        CHIP_Dcc_TmpIni
BL51 BANKED LINKER/LOCATER V6.22                                                      06/21/2023  15:37:55  PAGE 111


  X:01FEH         PUBLIC        b1IsSwitch
  C:60EDH         PUBLIC        Chip_Ucc_Toggle
  C:5027H         PUBLIC        Chip_Ucc_PrSwapScan
  C:9C7FH         PUBLIC        _CHIP_Dcc_OnDet
  C:AC42H         PUBLIC        Chip_HardRst_Rec_Handle
  C:8024H         PUBLIC        Mod_CCRx_Loop
  X:01FFH         PUBLIC        szCC_DiscoverIDMsg
  X:0215H         PUBLIC        StructAmsType
  X:0232H         PUBLIC        b1Switch_Online
  X:0233H         PUBLIC        DCCStatus
  C:A70AH         PUBLIC        CHIP_UccRa_Det
  C:83BFH         PUBLIC        _Mod_Ucc_HpdIrqSend
  B:00C8H.2       PUBLIC        TR2
  C:8DE1H         PUBLIC        Chip_TSwapSourceStart
  C:842CH         PUBLIC        _Chip_Ucc_ToggleInit
  C:8C13H         PUBLIC        Chip_Sop1Msg_Send
  C:9E48H         PUBLIC        Chip_UccOffTmp_Set
  C:A48FH         PUBLIC        _CHIP_Ucc_MsgTypeCal
  X:0259H         PUBLIC        UCCStatus
  X:027FH         PUBLIC        szNintendo_DisC_ID
  D:00C8H         PUBLIC        T2CON
  X:0295H         PUBLIC        b1HdmiHpdStateTmp
  C:9D6AH         PUBLIC        Chip_Ucc_Flip
  C:7C86H         PUBLIC        _Chip_UCCLock_VariSet
  C:7300H         PUBLIC        Chip_Nintendoswitch_HdmiHpd_Handle
  X:0296H         PUBLIC        b2SwitchIntoWakeUp
  C:2F34H         PUBLIC        szCC_DataMsg
  C:A7F9H         PUBLIC        Chip_UccEmarkReg_Reset
  -------         PROC          MOD_UCC_COMDONEFLAG
  C:AB64H         LINE#         129
  C:AB64H         LINE#         130
  C:AB64H         LINE#         131
  C:AB72H         LINE#         132
  C:AB72H         LINE#         133
  C:AB75H         LINE#         134
  C:AB75H         LINE#         135
  C:AB77H         LINE#         136
  -------         ENDPROC       MOD_UCC_COMDONEFLAG
  -------         PROC          _MOD_UCC_HPDIRQSEND
  D:0007H         SYMBOL        IsAttentionHigh
  X:04B2H         SYMBOL        IsIrqHigh
  C:83BFH         LINE#         147
  C:83C4H         LINE#         148
  C:83C4H         LINE#         149
  C:83D6H         LINE#         150
  C:83D9H         LINE#         151
  C:83D9H         LINE#         152
  C:83E5H         LINE#         153
  C:83ECH         LINE#         155
  C:83F5H         LINE#         157
  C:83F7H         LINE#         159
  C:83F7H         LINE#         160
  C:83FFH         LINE#         161
  C:83FFH         LINE#         162
  C:8409H         LINE#         164
  C:840DH         LINE#         166
  C:840FH         LINE#         168
BL51 BANKED LINKER/LOCATER V6.22                                                      06/21/2023  15:37:55  PAGE 112


  C:840FH         LINE#         169
  C:8419H         LINE#         171
  C:8422H         LINE#         173
  C:8422H         LINE#         174
  C:8429H         LINE#         175
  C:8429H         LINE#         176
  -------         ENDPROC       _MOD_UCC_HPDIRQSEND
  -------         PROC          CHIP_DCC_TMPINI
  C:9EEAH         LINE#         179
  C:9EEAH         LINE#         180
  C:9EEAH         LINE#         181
  C:9EEFH         LINE#         182
  C:9EF3H         LINE#         183
  C:9EF7H         LINE#         188
  C:9EFCH         LINE#         191
  C:9F01H         LINE#         193
  C:9F05H         LINE#         194
  C:9F09H         LINE#         195
  C:9F0DH         LINE#         196
  C:9F11H         LINE#         197
  C:9F16H         LINE#         198
  C:9F1AH         LINE#         199
  C:9F1EH         LINE#         204
  -------         ENDPROC       CHIP_DCC_TMPINI
  -------         PROC          CHIP_5ACABLE_INIT
  C:AA66H         LINE#         205
  C:AA66H         LINE#         206
  C:AA66H         LINE#         208
  C:AA6BH         LINE#         209
  C:AA72H         LINE#         210
  C:AA72H         LINE#         211
  C:AA77H         LINE#         212
  C:AA78H         LINE#         214
  C:AA78H         LINE#         215
  C:AA7EH         LINE#         216
  C:AA7EH         LINE#         227
  -------         ENDPROC       CHIP_5ACABLE_INIT
  -------         PROC          CHIP_CC_VARINIT
  C:6C62H         LINE#         232
  C:6C62H         LINE#         233
  C:6C62H         LINE#         235
  C:6C67H         LINE#         237
  C:6C6BH         LINE#         238
  C:6C6FH         LINE#         239
  C:6C73H         LINE#         243
  C:6C77H         LINE#         244
  C:6C79H         LINE#         245
  C:6C7DH         LINE#         246
  C:6C81H         LINE#         247
  C:6C85H         LINE#         248
  C:6C87H         LINE#         249
  C:6C89H         LINE#         250
  C:6C8BH         LINE#         252
  C:6C8FH         LINE#         253
  C:6C93H         LINE#         254
  C:6C95H         LINE#         255
  C:6C97H         LINE#         256
BL51 BANKED LINKER/LOCATER V6.22                                                      06/21/2023  15:37:55  PAGE 113


  C:6C9BH         LINE#         257
  C:6C9FH         LINE#         258
  C:6CA3H         LINE#         259
  C:6CA5H         LINE#         260
  C:6CA7H         LINE#         261
  C:6CA9H         LINE#         262
  C:6CABH         LINE#         263
  C:6CADH         LINE#         264
  C:6CB1H         LINE#         265
  C:6CB4H         LINE#         266
  C:6CBAH         LINE#         267
  C:6CBEH         LINE#         268
  C:6CC3H         LINE#         269
  C:6CC5H         LINE#         273
  C:6CCAH         LINE#         274
  C:6CCDH         LINE#         275
  C:6CD1H         LINE#         276
  C:6CD5H         LINE#         277
  C:6CDBH         LINE#         278
  C:6CDFH         LINE#         279
  C:6CE2H         LINE#         280
  C:6CE4H         LINE#         281
  C:6CE6H         LINE#         282
  C:6CE9H         LINE#         283
  C:6CF3H         LINE#         284
  C:6CFCH         LINE#         286
  C:6D01H         LINE#         287
  C:6D03H         LINE#         291
  C:6D05H         LINE#         292
  C:6D09H         LINE#         293
  C:6D0DH         LINE#         294
  C:6D11H         LINE#         297
  C:6D19H         LINE#         298
  C:6D1EH         LINE#         300
  C:6D22H         LINE#         316
  -------         ENDPROC       CHIP_CC_VARINIT
  -------         PROC          L?0320
  -------         ENDPROC       L?0320
  -------         PROC          _CHIP_UCC_MSGTYPECAL
  D:0007H         SYMBOL        ucCommandType
  D:0005H         SYMBOL        ucMessageType
  D:0003H         SYMBOL        ucVdmType
  -------         DO            
  D:0006H         SYMBOL        ucMessageTypeCal
  -------         ENDDO         
  C:A48FH         LINE#         317
  C:A48FH         LINE#         318
  C:A48FH         LINE#         319
  C:A48FH         LINE#         320
  C:A491H         LINE#         321
  C:A49AH         LINE#         322
  C:A49AH         LINE#         323
  C:A49AH         LINE#         324
  C:A49AH         LINE#         325
  C:A49AH         LINE#         326
  C:A49AH         LINE#         327
  C:A49CH         LINE#         328
BL51 BANKED LINKER/LOCATER V6.22                                                      06/21/2023  15:37:55  PAGE 114


  C:A49CH         LINE#         329
  C:A49FH         LINE#         330
  C:A49FH         LINE#         331
  C:A4A6H         LINE#         332
  C:A4A8H         LINE#         334
  C:A4A8H         LINE#         335
  C:A4AAH         LINE#         336
  C:A4AAH         LINE#         337
  C:A4ACH         LINE#         338
  C:A4ACH         LINE#         339
  C:A4AEH         LINE#         340
  C:A4AEH         LINE#         341
  C:A4AEH         LINE#         342
  C:A4B0H         LINE#         343
  -------         ENDPROC       _CHIP_UCC_MSGTYPECAL
  -------         PROC          CHIP_UCC_FLIP
  C:9D6AH         LINE#         344
  C:9D6AH         LINE#         345
  C:9D6AH         LINE#         346
  C:9D6AH         LINE#         347
  C:9D6AH         LINE#         364
  C:9D6AH         LINE#         366
  C:9D79H         LINE#         367
  C:9D79H         LINE#         368
  C:9D82H         LINE#         369
  C:9D82H         LINE#         370
  C:9D89H         LINE#         371
  C:9D8EH         LINE#         372
  C:9D8FH         LINE#         373
  C:9D94H         LINE#         374
  C:9D94H         LINE#         375
  C:9D9BH         LINE#         376
  C:9DA1H         LINE#         377
  C:9DA1H         LINE#         378
  C:9DA1H         LINE#         379
  -------         ENDPROC       CHIP_UCC_FLIP
  C:7BFDH         SYMBOL        L?0319
  -------         PROC          L?0318
  -------         ENDPROC       L?0318
  C:7BFDH         SYMBOL        L?0319
  -------         PROC          _CHIP_UCC_FLIPDET
  X:05B8H         SYMBOL        ucRx_MaxLane
  D:0005H         SYMBOL        b1Input_type
  -------         DO            
  X:05B9H         SYMBOL        ucCCOrienDet_Cnt
  -------         ENDDO         
  C:7C07H         LINE#         386
  C:7C0CH         LINE#         387
  C:7C0CH         LINE#         389
  C:7C11H         LINE#         390
  C:7C16H         LINE#         391
  C:7C16H         LINE#         392
  C:7C1AH         LINE#         393
  C:7C1AH         LINE#         394
  C:7C32H         LINE#         395
  C:7C32H         LINE#         398
  C:7C37H         LINE#         399
BL51 BANKED LINKER/LOCATER V6.22                                                      06/21/2023  15:37:55  PAGE 115


  C:7C3EH         LINE#         400
  C:7C40H         LINE#         401
  C:7C40H         LINE#         402
  C:7C50H         LINE#         403
  C:7C50H         LINE#         404
  C:7C57H         LINE#         405
  C:7C5DH         LINE#         406
  C:7C5FH         LINE#         407
  C:7C5FH         LINE#         409
  C:7C5FH         LINE#         410
  C:7C66H         LINE#         411
  C:7C66H         LINE#         412
  C:7C74H         LINE#         413
  C:7C74H         LINE#         415
  C:7C74H         LINE#         416
  C:7C79H         LINE#         417
  C:7C79H         LINE#         418
  -------         ENDPROC       _CHIP_UCC_FLIPDET
  -------         PROC          _CHIP_UCCLOCK_VARISET
  X:04B2H         SYMBOL        ucDat_Role
  C:7C86H         LINE#         421
  C:7C8BH         LINE#         422
  C:7C8BH         LINE#         423
  C:7C8EH         LINE#         424
  C:7C8EH         LINE#         425
  C:7C93H         LINE#         427
  C:7C9DH         LINE#         429
  C:7CA1H         LINE#         430
  C:7CA1H         LINE#         432
  C:7CA3H         LINE#         433
  C:7CAAH         LINE#         434
  C:7CAAH         LINE#         435
  C:7CB0H         LINE#         437
  C:7CBBH         LINE#         439
  C:7CC1H         LINE#         440
  C:7CC3H         LINE#         441
  C:7CC3H         LINE#         443
  C:7CCBH         LINE#         445
  C:7CDCH         LINE#         446
  C:7CE1H         LINE#         447
  C:7CE5H         LINE#         448
  C:7CEBH         LINE#         449
  C:7CF0H         LINE#         450
  C:7CF4H         LINE#         451
  C:7CF8H         LINE#         452
  C:7CFFH         LINE#         454
  C:7D01H         LINE#         456
  -------         ENDPROC       _CHIP_UCCLOCK_VARISET
  -------         PROC          _CHIP_UCC_TOGGLEINIT
  D:0005H         SYMBOL        vaule
  C:842CH         LINE#         459
  C:842EH         LINE#         460
  C:842EH         LINE#         462
  C:8433H         LINE#         463
  C:843AH         LINE#         465
  C:843CH         LINE#         466
  C:8443H         LINE#         467
BL51 BANKED LINKER/LOCATER V6.22                                                      06/21/2023  15:37:55  PAGE 116


  C:8448H         LINE#         468
  C:844CH         LINE#         469
  C:8450H         LINE#         470
  C:8455H         LINE#         471
  C:845AH         LINE#         472
  C:845CH         LINE#         473
  C:8460H         LINE#         474
  C:8462H         LINE#         475
  C:8466H         LINE#         476
  C:846AH         LINE#         477
  C:846EH         LINE#         485
  C:8472H         LINE#         487
  C:8476H         LINE#         488
  C:8479H         LINE#         489
  C:847CH         LINE#         490
  C:847CH         LINE#         491
  C:8483H         LINE#         492
  C:8489H         LINE#         493
  C:848AH         LINE#         495
  C:848AH         LINE#         496
  C:8491H         LINE#         497
  C:8496H         LINE#         498
  C:8496H         LINE#         499
  -------         ENDPROC       _CHIP_UCC_TOGGLEINIT
  -------         PROC          CHIP_UCC_TOGGLE
  -------         DO            
  X:04B1H         SYMBOL        loop_u
  X:0000H         SYMBOL        CC_Role
  X:0001H         SYMBOL        ucStage
  X:0002H         SYMBOL        ulLastTime
  X:0006H         SYMBOL        Toggle_Keep_Time
  -------         ENDDO         
  C:60EDH         LINE#         500
  C:60EDH         LINE#         501
  C:60EDH         LINE#         502
  C:60F2H         LINE#         507
  C:60F8H         LINE#         508
  C:60F8H         LINE#         509
  C:60FBH         LINE#         511
  C:60FBH         LINE#         512
  C:6108H         LINE#         513
  C:6108H         LINE#         514
  C:6108H         LINE#         515
  C:6111H         LINE#         516
  C:611BH         LINE#         517
  C:611BH         LINE#         518
  C:6122H         LINE#         519
  C:6124H         LINE#         521
  C:6124H         LINE#         522
  C:612AH         LINE#         523
  C:612AH         LINE#         524
  C:612AH         LINE#         525
  C:612CH         LINE#         526
  C:612CH         LINE#         527
  C:6135H         LINE#         528
  C:6135H         LINE#         529
  C:6154H         LINE#         530
BL51 BANKED LINKER/LOCATER V6.22                                                      06/21/2023  15:37:55  PAGE 117


  C:6154H         LINE#         531
  C:615AH         LINE#         532
  C:615AH         LINE#         533
  C:6165H         LINE#         534
  C:6165H         LINE#         535
  C:616AH         LINE#         536
  C:616AH         LINE#         538
  C:616AH         LINE#         539
  C:616CH         LINE#         540
  C:6172H         LINE#         541
  C:6172H         LINE#         542
  C:6178H         LINE#         543
  C:6178H         LINE#         545
  C:617EH         LINE#         547
  C:6183H         LINE#         548
  C:6189H         LINE#         549
  C:6189H         LINE#         550
  C:618AH         LINE#         551
  C:61A3H         LINE#         552
  C:61A3H         LINE#         553
  C:61B4H         LINE#         554
  C:61B7H         LINE#         555
  C:61C1H         LINE#         556
  C:61C1H         LINE#         557
  C:61C8H         LINE#         558
  C:61CAH         LINE#         560
  C:61CAH         LINE#         561
  C:61D0H         LINE#         562
  C:61D0H         LINE#         563
  C:61D9H         LINE#         564
  C:61D9H         LINE#         565
  C:61D9H         LINE#         567
  C:61D9H         LINE#         568
  C:61D9H         LINE#         569
  C:61D9H         LINE#         570
  C:61DBH         LINE#         572
  C:61DBH         LINE#         573
  C:61DBH         LINE#         574
  C:61DBH         LINE#         575
  C:61DDH         LINE#         576
  C:61DDH         LINE#         577
  C:61E2H         LINE#         578
  C:61E2H         LINE#         579
  C:61E2H         LINE#         580
  -------         ENDPROC       CHIP_UCC_TOGGLE
  -------         PROC          CHIP_UCC_PRSWAPSEND
  C:6EA3H         LINE#         749
  C:6EA3H         LINE#         750
  C:6EA3H         LINE#         751
  C:6EC0H         LINE#         752
  C:6EC0H         LINE#         753
  C:6ECAH         LINE#         754
  C:6ECAH         LINE#         755
  C:6ED1H         LINE#         756
  C:6ED6H         LINE#         757
  C:6EDCH         LINE#         758
  C:6EE3H         LINE#         759
BL51 BANKED LINKER/LOCATER V6.22                                                      06/21/2023  15:37:55  PAGE 118


  C:6EE9H         LINE#         760
  C:6EE9H         LINE#         762
  C:6EF4H         LINE#         764
  C:6EF7H         LINE#         765
  C:6EF7H         LINE#         767
  C:6EF7H         LINE#         768
  C:6EFDH         LINE#         769
  C:6EFDH         LINE#         771
  C:6F07H         LINE#         773
  C:6F13H         LINE#         774
  C:6F19H         LINE#         775
  C:6F1BH         LINE#         776
  C:6F29H         LINE#         777
  C:6F2CH         LINE#         778
  C:6F2CH         LINE#         780
  C:6F2CH         LINE#         782
  C:6F2CH         LINE#         783
  C:6F2CH         LINE#         784
  C:6F2CH         LINE#         786
  C:6F2CH         LINE#         788
  C:6F37H         LINE#         790
  C:6F3CH         LINE#         791
  C:6F43H         LINE#         792
  C:6F46H         LINE#         793
  C:6F4CH         LINE#         794
  C:6F51H         LINE#         795
  C:6F55H         LINE#         797
  C:6F59H         LINE#         799
  C:6F5FH         LINE#         800
  C:6F5FH         LINE#         801
  C:6F61H         LINE#         802
  C:6F61H         LINE#         803
  C:6F61H         LINE#         804
  C:6F61H         LINE#         805
  -------         ENDPROC       CHIP_UCC_PRSWAPSEND
  -------         PROC          CHIP_UCC_PRSWAPSCAN
  -------         DO            
  X:0008H         SYMBOL        ucStage_Change
  X:0009H         SYMBOL        ucStage
  X:000AH         SYMBOL        ulLastTime
  -------         ENDDO         
  C:5027H         LINE#         807
  C:5027H         LINE#         808
  C:5027H         LINE#         812
  C:502EH         LINE#         813
  C:502EH         LINE#         814
  C:5031H         LINE#         816
  C:5031H         LINE#         817
  C:503DH         LINE#         818
  C:503DH         LINE#         820
  C:503DH         LINE#         822
  C:5054H         LINE#         823
  C:5054H         LINE#         824
  C:5054H         LINE#         825
  C:5054H         LINE#         826
  C:5054H         LINE#         827
  C:5057H         LINE#         828
BL51 BANKED LINKER/LOCATER V6.22                                                      06/21/2023  15:37:55  PAGE 119


  C:5057H         LINE#         829
  C:505DH         LINE#         830
  C:505DH         LINE#         831
  C:505FH         LINE#         832
  C:5068H         LINE#         833
  C:5068H         LINE#         834
  C:507EH         LINE#         835
  C:507EH         LINE#         836
  C:5084H         LINE#         837
  C:5084H         LINE#         838
  C:5087H         LINE#         839
  C:508DH         LINE#         840
  C:5094H         LINE#         841
  C:5094H         LINE#         842
  C:5097H         LINE#         844
  C:5097H         LINE#         845
  C:5097H         LINE#         846
  C:5097H         LINE#         847
  C:5097H         LINE#         848
  C:509AH         LINE#         849
  C:50A5H         LINE#         850
  C:50A5H         LINE#         851
  C:50A9H         LINE#         852
  C:50A9H         LINE#         853
  C:50A9H         LINE#         854
  C:50ACH         LINE#         855
  C:50ACH         LINE#         856
  C:50B2H         LINE#         857
  C:50B2H         LINE#         858
  C:50B4H         LINE#         859
  C:50BDH         LINE#         860
  C:50BDH         LINE#         861
  C:50D1H         LINE#         862
  C:50D1H         LINE#         864
  C:50D8H         LINE#         865
  C:50DBH         LINE#         866
  C:50E0H         LINE#         867
  C:50E0H         LINE#         868
  C:50E2H         LINE#         869
  C:50EEH         LINE#         870
  C:50EEH         LINE#         871
  C:50F4H         LINE#         872
  C:50F7H         LINE#         873
  C:50F7H         LINE#         874
  C:50F8H         LINE#         875
  C:50F8H         LINE#         876
  C:50FEH         LINE#         877
  C:50FEH         LINE#         878
  C:5100H         LINE#         879
  C:5109H         LINE#         880
  C:5109H         LINE#         881
  C:5110H         LINE#         882
  C:5110H         LINE#         883
  C:5124H         LINE#         884
  C:5124H         LINE#         885
  C:512AH         LINE#         886
  C:5131H         LINE#         887
BL51 BANKED LINKER/LOCATER V6.22                                                      06/21/2023  15:37:55  PAGE 120


  C:5136H         LINE#         888
  C:5137H         LINE#         890
  C:5137H         LINE#         892
  C:5137H         LINE#         893
  C:5137H         LINE#         895
  C:5137H         LINE#         896
  C:513DH         LINE#         897
  C:5141H         LINE#         898
  C:5141H         LINE#         899
  C:5142H         LINE#         900
  C:5142H         LINE#         901
  C:5147H         LINE#         902
  C:5147H         LINE#         903
  C:5147H         LINE#         904
  -------         ENDPROC       CHIP_UCC_PRSWAPSCAN
  -------         PROC          CHIP_UCC_DRSWAPSEND
  C:7E1DH         LINE#         921
  C:7E1DH         LINE#         922
  C:7E1DH         LINE#         923
  C:7E2EH         LINE#         924
  C:7E2EH         LINE#         925
  C:7E37H         LINE#         926
  C:7E37H         LINE#         927
  C:7E3EH         LINE#         928
  C:7E3EH         LINE#         929
  C:7E45H         LINE#         930
  C:7E4AH         LINE#         934
  C:7E5BH         LINE#         935
  C:7E5BH         LINE#         936
  C:7E62H         LINE#         937
  C:7E67H         LINE#         938
  C:7E73H         LINE#         939
  C:7E76H         LINE#         940
  C:7E84H         LINE#         941
  C:7E84H         LINE#         942
  C:7E8BH         LINE#         943
  C:7E94H         LINE#         944
  C:7E94H         LINE#         945
  C:7E9BH         LINE#         946
  C:7E9BH         LINE#         948
  C:7EA1H         LINE#         950
  C:7EA1H         LINE#         951
  -------         ENDPROC       CHIP_UCC_DRSWAPSEND
  -------         PROC          CHIP_UCC_WAITSEND
  C:A5E7H         LINE#         952
  C:A5E7H         LINE#         953
  C:A5E7H         LINE#         954
  C:A5F7H         LINE#         955
  C:A5F7H         LINE#         956
  C:A603H         LINE#         957
  C:A608H         LINE#         958
  C:A60BH         LINE#         959
  C:A60BH         LINE#         960
  -------         ENDPROC       CHIP_UCC_WAITSEND
  -------         PROC          _CHIP_UCC_SWAPSCAN
  D:0007H         SYMBOL        ucFlag
  -------         DO            
BL51 BANKED LINKER/LOCATER V6.22                                                      06/21/2023  15:37:55  PAGE 121


  X:04B3H         SYMBOL        ucRtn
  X:000EH         SYMBOL        ucStage
  X:000FH         SYMBOL        ulLastTime
  -------         ENDDO         
  C:826FH         LINE#         961
  C:826FH         LINE#         962
  C:826FH         LINE#         963
  C:8274H         LINE#         966
  C:8277H         LINE#         967
  C:8277H         LINE#         968
  C:8277H         LINE#         969
  C:8279H         LINE#         970
  C:8279H         LINE#         971
  C:8282H         LINE#         972
  C:8282H         LINE#         973
  C:8283H         LINE#         974
  C:8285H         LINE#         975
  C:8285H         LINE#         979
  C:8293H         LINE#         981
  C:8293H         LINE#         982
  C:8297H         LINE#         983
  C:8299H         LINE#         984
  C:8299H         LINE#         985
  C:82A3H         LINE#         986
  C:82A3H         LINE#         987
  C:82A3H         LINE#         988
  C:82A3H         LINE#         989
  C:82A3H         LINE#         990
  C:82A5H         LINE#         991
  C:82A5H         LINE#         992
  C:82B9H         LINE#         993
  C:82B9H         LINE#         997
  C:82BCH         LINE#         998
  C:82BFH         LINE#         999
  C:82C8H         LINE#         1000
  C:82CEH         LINE#         1001
  C:82D0H         LINE#         1003
  C:82D0H         LINE#         1005
  C:82D0H         LINE#         1006
  C:82D0H         LINE#         1007
  C:82D0H         LINE#         1008
  C:82D5H         LINE#         1009
  C:82DAH         LINE#         1010
  C:82DAH         LINE#         1011
  C:82DAH         LINE#         1012
  C:82DFH         LINE#         1013
  -------         ENDPROC       _CHIP_UCC_SWAPSCAN
  -------         PROC          CHIP_UCCOFFTMP_SET
  C:9E48H         LINE#         1014
  C:9E48H         LINE#         1015
  C:9E48H         LINE#         1016
  C:9E4DH         LINE#         1017
  C:9E4FH         LINE#         1018
  C:9E53H         LINE#         1019
  C:9E57H         LINE#         1020
  C:9E5CH         LINE#         1021
  C:9E61H         LINE#         1025
BL51 BANKED LINKER/LOCATER V6.22                                                      06/21/2023  15:37:55  PAGE 122


  C:9E65H         LINE#         1026
  C:9E6CH         LINE#         1027
  C:9E7DH         LINE#         1028
  -------         ENDPROC       CHIP_UCCOFFTMP_SET
  -------         PROC          CHIP_UCCRA_DET
  C:A70AH         LINE#         1030
  C:A70AH         LINE#         1031
  C:A70AH         LINE#         1032
  C:A710H         LINE#         1033
  C:A710H         LINE#         1035
  C:A71AH         LINE#         1036
  C:A71AH         LINE#         1037
  C:A721H         LINE#         1038
  C:A722H         LINE#         1039
  C:A725H         LINE#         1040
  C:A725H         LINE#         1041
  C:A72CH         LINE#         1042
  C:A72CH         LINE#         1044
  C:A72CH         LINE#         1046
  C:A72CH         LINE#         1047
  C:A72CH         LINE#         1049
  C:A72CH         LINE#         1051
  C:A72CH         LINE#         1052
  -------         ENDPROC       CHIP_UCCRA_DET
  -------         PROC          CHIP_SOP1MSG_SEND
  -------         DO            
  X:04B2H         SYMBOL        ucSop1MsgCnt
  -------         ENDDO         
  C:8C13H         LINE#         1053
  C:8C13H         LINE#         1054
  C:8C13H         LINE#         1056
  C:8C19H         LINE#         1057
  C:8C1CH         LINE#         1058
  C:8C23H         LINE#         1059
  C:8C32H         LINE#         1060
  C:8C32H         LINE#         1061
  C:8C3AH         LINE#         1062
  C:8C3AH         LINE#         1063
  C:8C3EH         LINE#         1064
  C:8C3EH         LINE#         1065
  C:8C44H         LINE#         1066
  C:8C47H         LINE#         1067
  C:8C4EH         LINE#         1068
  C:8C4EH         LINE#         1069
  C:8C53H         LINE#         1070
  C:8C5FH         LINE#         1071
  C:8C62H         LINE#         1072
  C:8C69H         LINE#         1073
  C:8C69H         LINE#         1075
  C:8C69H         LINE#         1076
  C:8C69H         LINE#         1077
  C:8C69H         LINE#         1078
  C:8C71H         LINE#         1079
  -------         ENDPROC       CHIP_SOP1MSG_SEND
  -------         PROC          CHIP_UCCEMARK_HANDLE
  C:A437H         LINE#         1080
  C:A437H         LINE#         1081
BL51 BANKED LINKER/LOCATER V6.22                                                      06/21/2023  15:37:55  PAGE 123


  C:A437H         LINE#         1082
  C:A43CH         LINE#         1083
  C:A443H         LINE#         1084
  C:A446H         LINE#         1085
  C:A449H         LINE#         1086
  C:A450H         LINE#         1087
  C:A456H         LINE#         1088
  C:A459H         LINE#         1089
  -------         ENDPROC       CHIP_UCCEMARK_HANDLE
  -------         PROC          CHIP_UCCEMARKREG_RESET
  C:A7F9H         LINE#         1091
  C:A7F9H         LINE#         1092
  C:A7F9H         LINE#         1093
  C:A7FEH         LINE#         1094
  C:A805H         LINE#         1095
  C:A808H         LINE#         1096
  C:A80DH         LINE#         1097
  C:A813H         LINE#         1098
  C:A818H         LINE#         1099
  -------         ENDPROC       CHIP_UCCEMARKREG_RESET
  -------         PROC          CHIP_UCC_SOURCECAPSEND
  -------         DO            
  X:04B1H         SYMBOL        ucSourceCapPerCycle
  X:0013H         SYMBOL        ucStage_Change
  X:0014H         SYMBOL        ucStage
  X:0015H         SYMBOL        ulLastTime
  -------         ENDDO         
  C:3EE2H         LINE#         1101
  C:3EE2H         LINE#         1102
  C:3EE2H         LINE#         1107
  C:3EF7H         LINE#         1108
  C:3EF7H         LINE#         1110
  C:3EF7H         LINE#         1111
  C:3EFBH         LINE#         1112
  C:3EFBH         LINE#         1113
  C:3F00H         LINE#         1114
  C:3F04H         LINE#         1115
  C:3F04H         LINE#         1116
  C:3F15H         LINE#         1117
  C:3F15H         LINE#         1118
  C:3F15H         LINE#         1119
  C:3F15H         LINE#         1120
  C:3F15H         LINE#         1121
  C:3F15H         LINE#         1122
  C:3F17H         LINE#         1123
  C:3F17H         LINE#         1126
  C:3F30H         LINE#         1127
  C:3F30H         LINE#         1128
  C:3F39H         LINE#         1129
  C:3F3FH         LINE#         1130
  C:3F45H         LINE#         1131
  C:3F45H         LINE#         1132
  C:3F46H         LINE#         1133
  C:3F46H         LINE#         1134
  C:3F63H         LINE#         1135
  C:3F63H         LINE#         1136
  C:3F7AH         LINE#         1137
BL51 BANKED LINKER/LOCATER V6.22                                                      06/21/2023  15:37:55  PAGE 124


  C:3F7AH         LINE#         1138
  C:3F86H         LINE#         1139
  C:3F86H         LINE#         1140
  C:3F89H         LINE#         1141
  C:3F8EH         LINE#         1142
  C:3F8EH         LINE#         1143
  C:3F94H         LINE#         1144
  C:3F94H         LINE#         1145
  C:3F97H         LINE#         1146
  C:3F9CH         LINE#         1147
  C:3F9FH         LINE#         1148
  C:3F9FH         LINE#         1150
  C:3F9FH         LINE#         1151
  C:3FA7H         LINE#         1152
  C:3FA7H         LINE#         1154
  C:3FAEH         LINE#         1155
  C:3FAEH         LINE#         1156
  C:3FB1H         LINE#         1157
  C:3FB8H         LINE#         1158
  C:3FBBH         LINE#         1159
  C:3FBBH         LINE#         1161
  C:3FC0H         LINE#         1162
  C:3FC7H         LINE#         1163
  C:3FCAH         LINE#         1164
  C:3FD3H         LINE#         1165
  C:3FD6H         LINE#         1166
  C:3FD6H         LINE#         1168
  C:3FD6H         LINE#         1169
  C:3FDDH         LINE#         1170
  C:3FE3H         LINE#         1171
  C:3FE3H         LINE#         1172
  C:3FE9H         LINE#         1173
  C:3FF0H         LINE#         1174
  C:3FF6H         LINE#         1175
  C:3FFAH         LINE#         1176
  C:3FFCH         LINE#         1180
  C:4001H         LINE#         1181
  C:4005H         LINE#         1183
  C:4008H         LINE#         1184
  C:400EH         LINE#         1186
  C:4011H         LINE#         1188
  C:4014H         LINE#         1189
  C:401CH         LINE#         1190
  C:4023H         LINE#         1191
  C:4025H         LINE#         1193
  C:4025H         LINE#         1194
  C:402BH         LINE#         1195
  C:402BH         LINE#         1196
  C:402BH         LINE#         1197
  C:402BH         LINE#         1198
  C:403CH         LINE#         1199
  C:403CH         LINE#         1201
  C:403CH         LINE#         1202
  C:4042H         LINE#         1204
  C:4048H         LINE#         1206
  C:4048H         LINE#         1207
  C:4051H         LINE#         1208
BL51 BANKED LINKER/LOCATER V6.22                                                      06/21/2023  15:37:55  PAGE 125


  C:4051H         LINE#         1210
  C:4051H         LINE#         1211
  C:4057H         LINE#         1212
  C:4057H         LINE#         1213
  C:405AH         LINE#         1214
  C:405AH         LINE#         1215
  C:405AH         LINE#         1216
  C:405AH         LINE#         1217
  C:405CH         LINE#         1219
  C:405CH         LINE#         1220
  C:405CH         LINE#         1221
  C:405CH         LINE#         1222
  C:405EH         LINE#         1223
  C:405EH         LINE#         1224
  C:4063H         LINE#         1226
  C:4063H         LINE#         1227
  C:4063H         LINE#         1229
  -------         ENDPROC       CHIP_UCC_SOURCECAPSEND
  -------         PROC          CHIP_UCC_OFFACTION
  -------         DO            
  X:04B1H         SYMBOL        ucWaitRequestDone
  -------         ENDDO         
  C:686AH         LINE#         1231
  C:686AH         LINE#         1232
  C:686AH         LINE#         1239
  C:687DH         LINE#         1240
  C:6890H         LINE#         1242
  C:6897H         LINE#         1243
  C:689EH         LINE#         1244
  C:68A5H         LINE#         1245
  C:68ACH         LINE#         1246
  C:68B3H         LINE#         1248
  C:68BAH         LINE#         1250
  C:68BFH         LINE#         1251
  C:68C4H         LINE#         1252
  C:68CBH         LINE#         1253
  C:68CEH         LINE#         1254
  C:68D4H         LINE#         1256
  C:68DAH         LINE#         1257
  C:68DAH         LINE#         1258
  C:68E6H         LINE#         1259
  C:68E9H         LINE#         1260
  C:68EFH         LINE#         1261
  C:68EFH         LINE#         1270
  C:68F6H         LINE#         1271
  C:68FDH         LINE#         1272
  C:68FDH         LINE#         1273
  C:6904H         LINE#         1274
  C:6904H         LINE#         1275
  C:690BH         LINE#         1276
  C:690BH         LINE#         1278
  C:690BH         LINE#         1279
  C:690BH         LINE#         1280
  C:690BH         LINE#         1281
  C:6924H         LINE#         1282
  C:692BH         LINE#         1283
  C:6932H         LINE#         1285
BL51 BANKED LINKER/LOCATER V6.22                                                      06/21/2023  15:37:55  PAGE 126


  -------         ENDPROC       CHIP_UCC_OFFACTION
  -------         PROC          CHIP_UCC_OFFSCAN
  C:A984H         LINE#         1288
  C:A984H         LINE#         1289
  C:A984H         LINE#         1290
  C:A99BH         LINE#         1291
  C:A99BH         LINE#         1292
  C:A99EH         LINE#         1293
  C:A99EH         LINE#         1294
  C:A9A0H         LINE#         1295
  -------         ENDPROC       CHIP_UCC_OFFSCAN
  -------         PROC          CHIP_UCC_OFFDET
  -------         DO            
  X:05C1H         SYMBOL        CC_Off_Line
  X:05C2H         SYMBOL        ucCC_Count
  -------         ENDDO         
  C:993EH         LINE#         1299
  C:993EH         LINE#         1300
  C:993EH         LINE#         1301
  C:9943H         LINE#         1304
  C:994BH         LINE#         1305
  C:994BH         LINE#         1306
  C:9951H         LINE#         1307
  C:9956H         LINE#         1308
  C:9956H         LINE#         1309
  C:995CH         LINE#         1310
  C:995CH         LINE#         1311
  C:9962H         LINE#         1312
  C:9969H         LINE#         1313
  C:996BH         LINE#         1315
  C:996BH         LINE#         1316
  C:9970H         LINE#         1317
  C:9972H         LINE#         1318
  C:9972H         LINE#         1319
  C:997EH         LINE#         1320
  C:997EH         LINE#         1321
  C:9983H         LINE#         1322
  -------         ENDPROC       CHIP_UCC_OFFDET
  -------         PROC          CHIP_UCC_PSSOURCEOFFDET
  -------         DO            
  X:04B1H         SYMBOL        ucRtn
  X:0019H         SYMBOL        ucStage
  X:001AH         SYMBOL        ulLastTime
  -------         ENDDO         
  C:863AH         LINE#         1323
  C:863AH         LINE#         1324
  C:863AH         LINE#         1325
  C:863FH         LINE#         1333
  C:8649H         LINE#         1334
  C:8649H         LINE#         1335
  C:8649H         LINE#         1336
  C:8652H         LINE#         1337
  C:8658H         LINE#         1338
  C:8658H         LINE#         1339
  C:865FH         LINE#         1340
  C:865FH         LINE#         1341
  C:8673H         LINE#         1342
BL51 BANKED LINKER/LOCATER V6.22                                                      06/21/2023  15:37:55  PAGE 127


  C:8673H         LINE#         1343
  C:8679H         LINE#         1349
  C:867FH         LINE#         1350
  C:8681H         LINE#         1352
  C:8681H         LINE#         1354
  C:8681H         LINE#         1355
  C:8681H         LINE#         1357
  C:8681H         LINE#         1358
  C:868AH         LINE#         1359
  C:868FH         LINE#         1360
  C:868FH         LINE#         1361
  C:8691H         LINE#         1362
  C:8691H         LINE#         1363
  C:8696H         LINE#         1364
  C:869BH         LINE#         1365
  C:869BH         LINE#         1366
  C:869BH         LINE#         1367
  C:86A0H         LINE#         1368
  -------         ENDPROC       CHIP_UCC_PSSOURCEOFFDET
  -------         PROC          _CHIP_DCC_ONDET
  D:0007H         SYMBOL        ucPow_Role
  -------         DO            
  X:05B9H         SYMBOL        ucDCC_Connect_Loop
  -------         ENDDO         
  C:9C7FH         LINE#         1370
  C:9C7FH         LINE#         1371
  C:9C7FH         LINE#         1373
  C:9C83H         LINE#         1374
  C:9C83H         LINE#         1375
  C:9C8AH         LINE#         1376
  C:9C8AH         LINE#         1382
  C:9C91H         LINE#         1384
  C:9C91H         LINE#         1385
  C:9C96H         LINE#         1386
  C:9C96H         LINE#         1387
  C:9C9DH         LINE#         1393
  C:9CA4H         LINE#         1395
  C:9CA4H         LINE#         1397
  C:9CA4H         LINE#         1399
  C:9CA4H         LINE#         1400
  C:9CA7H         LINE#         1401
  C:9CA7H         LINE#         1402
  C:9CB5H         LINE#         1403
  C:9CB5H         LINE#         1405
  C:9CB5H         LINE#         1406
  C:9CB8H         LINE#         1407
  C:9CB8H         LINE#         1408
  C:9CB8H         LINE#         1409
  C:9CB8H         LINE#         1437
  C:9CBAH         LINE#         1438
  -------         ENDPROC       _CHIP_DCC_ONDET
  -------         PROC          CHIP_DCC_FLIPDET
  C:A4B1H         LINE#         1481
  C:A4B1H         LINE#         1482
  C:A4B1H         LINE#         1483
  C:A4BBH         LINE#         1484
  C:A4BBH         LINE#         1485
BL51 BANKED LINKER/LOCATER V6.22                                                      06/21/2023  15:37:55  PAGE 128


  C:A4C4H         LINE#         1486
  C:A4C4H         LINE#         1487
  C:A4CBH         LINE#         1488
  C:A4CCH         LINE#         1489
  C:A4D1H         LINE#         1490
  C:A4D1H         LINE#         1491
  C:A4D8H         LINE#         1492
  C:A4D8H         LINE#         1493
  C:A4D8H         LINE#         1494
  -------         ENDPROC       CHIP_DCC_FLIPDET
  -------         PROC          CHIP_DCC_WITHPDDET
  -------         DO            
  X:04B1H         SYMBOL        HardRst_Cnt
  X:04B2H         SYMBOL        ucLoopi
  -------         ENDDO         
  C:64BFH         LINE#         1496
  C:64BFH         LINE#         1497
  C:64BFH         LINE#         1503
  C:64C2H         LINE#         1510
  C:64E3H         LINE#         1511
  C:64E3H         LINE#         1512
  C:64E7H         LINE#         1525
  C:64ECH         LINE#         1526
  C:64ECH         LINE#         1528
  C:64F6H         LINE#         1530
  C:64FDH         LINE#         1531
  C:6500H         LINE#         1532
  C:6506H         LINE#         1533
  C:6508H         LINE#         1534
  C:650FH         LINE#         1536
  C:6514H         LINE#         1537
  C:651AH         LINE#         1538
  C:651AH         LINE#         1539
  C:6521H         LINE#         1540
  C:6527H         LINE#         1541
  C:6527H         LINE#         1542
  C:6527H         LINE#         1543
  C:6527H         LINE#         1544
  C:652FH         LINE#         1545
  C:652FH         LINE#         1546
  C:652FH         LINE#         1547
  C:652FH         LINE#         1548
  C:6548H         LINE#         1549
  C:654DH         LINE#         1550
  C:654DH         LINE#         1551
  C:6555H         LINE#         1552
  C:6555H         LINE#         1553
  C:6555H         LINE#         1554
  C:6555H         LINE#         1555
  C:655BH         LINE#         1556
  C:655BH         LINE#         1557
  C:655EH         LINE#         1558
  C:6563H         LINE#         1559
  C:656AH         LINE#         1560
  C:656AH         LINE#         1562
  C:656AH         LINE#         1563
  C:656AH         LINE#         1564
BL51 BANKED LINKER/LOCATER V6.22                                                      06/21/2023  15:37:55  PAGE 129


  C:656AH         LINE#         1565
  C:6576H         LINE#         1568
  C:6580H         LINE#         1569
  C:6580H         LINE#         1570
  C:6587H         LINE#         1571
  C:658AH         LINE#         1573
  C:6590H         LINE#         1574
  C:6590H         LINE#         1575
  C:65A2H         LINE#         1576
  C:65A2H         LINE#         1577
  C:65A7H         LINE#         1578
  C:65A7H         LINE#         1579
  C:65A7H         LINE#         1580
  C:65A8H         LINE#         1582
  C:65A8H         LINE#         1583
  C:65AEH         LINE#         1584
  C:65AEH         LINE#         1586
  C:65AEH         LINE#         1587
  C:65AEH         LINE#         1588
  -------         ENDPROC       CHIP_DCC_WITHPDDET
  -------         PROC          CHIP_DCC_FRDISCHARGE
  -------         DO            
  X:04B1H         SYMBOL        Discharge_Cnt
  -------         ENDDO         
  C:98AFH         LINE#         1591
  C:98AFH         LINE#         1592
  C:98AFH         LINE#         1593
  C:98B4H         LINE#         1594
  C:98BCH         LINE#         1595
  C:98BCH         LINE#         1596
  C:98C3H         LINE#         1597
  C:98C8H         LINE#         1598
  C:98C8H         LINE#         1599
  C:98D0H         LINE#         1600
  C:98D0H         LINE#         1601
  C:98D7H         LINE#         1602
  C:98D7H         LINE#         1604
  C:98D7H         LINE#         1605
  C:98D7H         LINE#         1606
  C:98D7H         LINE#         1607
  C:98E3H         LINE#         1608
  C:98EAH         LINE#         1609
  C:98F1H         LINE#         1610
  C:98F6H         LINE#         1611
  C:98F6H         LINE#         1612
  -------         ENDPROC       CHIP_DCC_FRDISCHARGE
  -------         PROC          CHIP_TSWAPSOURCESTART
  C:8DE1H         LINE#         1614
  C:8DE1H         LINE#         1615
  C:8DE1H         LINE#         1617
  C:8DE9H         LINE#         1618
  C:8DE9H         LINE#         1619
  C:8DF0H         LINE#         1620
  C:8DF0H         LINE#         1621
  C:8DF7H         LINE#         1622
  C:8DF7H         LINE#         1624
  C:8DFEH         LINE#         1625
BL51 BANKED LINKER/LOCATER V6.22                                                      06/21/2023  15:37:55  PAGE 130


  C:8DFEH         LINE#         1626
  C:8E01H         LINE#         1627
  C:8E01H         LINE#         1629
  C:8E06H         LINE#         1630
  C:8E0AH         LINE#         1631
  C:8E10H         LINE#         1633
  C:8E17H         LINE#         1634
  C:8E17H         LINE#         1635
  C:8E1AH         LINE#         1636
  C:8E1AH         LINE#         1639
  C:8E1FH         LINE#         1640
  C:8E22H         LINE#         1641
  C:8E25H         LINE#         1642
  C:8E2BH         LINE#         1643
  C:8E32H         LINE#         1644
  C:8E32H         LINE#         1645
  C:8E39H         LINE#         1646
  C:8E39H         LINE#         1647
  C:8E39H         LINE#         1648
  -------         ENDPROC       CHIP_TSWAPSOURCESTART
  -------         PROC          CHIP_NINTENDOSWITCH_WAKEUP_HANDLE
  -------         DO            
  X:001EH         SYMBOL        ulLastTime
  -------         ENDDO         
  C:8497H         LINE#         1650
  C:8497H         LINE#         1651
  C:8497H         LINE#         1655
  C:849FH         LINE#         1656
  C:849FH         LINE#         1668
  C:84A6H         LINE#         1669
  C:84A6H         LINE#         1670
  C:84ACH         LINE#         1671
  C:84B3H         LINE#         1672
  C:84B9H         LINE#         1673
  C:84BEH         LINE#         1674
  C:84BEH         LINE#         1676
  C:84C5H         LINE#         1677
  C:84C5H         LINE#         1678
  C:84CAH         LINE#         1679
  C:84D3H         LINE#         1680
  C:84D9H         LINE#         1683
  C:84D9H         LINE#         1684
  C:84E0H         LINE#         1685
  C:84E0H         LINE#         1686
  C:84F4H         LINE#         1687
  C:84F4H         LINE#         1688
  C:84FBH         LINE#         1689
  C:8500H         LINE#         1690
  C:8500H         LINE#         1691
  C:8500H         LINE#         1702
  C:8500H         LINE#         1703
  -------         ENDPROC       CHIP_NINTENDOSWITCH_WAKEUP_HANDLE
  -------         PROC          CHIP_HUBRESET_HANDLE
  -------         DO            
  X:0022H         SYMBOL        ulLastTime
  -------         ENDDO         
  C:953FH         LINE#         1706
BL51 BANKED LINKER/LOCATER V6.22                                                      06/21/2023  15:37:55  PAGE 131


  C:953FH         LINE#         1707
  C:953FH         LINE#         1709
  C:9546H         LINE#         1710
  C:9546H         LINE#         1711
  C:9549H         LINE#         1712
  C:9552H         LINE#         1713
  C:9552H         LINE#         1714
  C:9559H         LINE#         1715
  C:9559H         LINE#         1717
  C:956DH         LINE#         1718
  C:956DH         LINE#         1719
  C:9573H         LINE#         1720
  C:9573H         LINE#         1721
  C:9573H         LINE#         1722
  C:957AH         LINE#         1723
  C:957AH         LINE#         1724
  C:957DH         LINE#         1725
  C:9582H         LINE#         1726
  C:9589H         LINE#         1727
  C:9589H         LINE#         1728
  -------         ENDPROC       CHIP_HUBRESET_HANDLE
  -------         PROC          CHIP_NINTENDOSWITCH_HDMIHPD_HANDLE
  -------         DO            
  X:04B1H         SYMBOL        b1HdmiHpdState
  X:0026H         SYMBOL        ulLastTime
  X:002AH         SYMBOL        b1StateChange
  X:002BH         SYMBOL        Time_Stampe
  -------         ENDDO         
  C:7300H         LINE#         1731
  C:7300H         LINE#         1732
  C:7300H         LINE#         1737
  C:730AH         LINE#         1738
  C:730AH         LINE#         1739
  C:7311H         LINE#         1740
  C:7313H         LINE#         1742
  C:7313H         LINE#         1743
  C:731AH         LINE#         1744
  C:731AH         LINE#         1745
  C:7322H         LINE#         1746
  C:7329H         LINE#         1747
  C:7329H         LINE#         1748
  C:732FH         LINE#         1749
  C:732FH         LINE#         1750
  C:7331H         LINE#         1751
  C:7332H         LINE#         1752
  C:7332H         LINE#         1753
  C:7334H         LINE#         1755
  C:7334H         LINE#         1756
  C:733BH         LINE#         1757
  C:733BH         LINE#         1758
  C:733DH         LINE#         1759
  C:7346H         LINE#         1760
  C:7346H         LINE#         1761
  C:7346H         LINE#         1763
  C:735CH         LINE#         1764
  C:735CH         LINE#         1765
  C:7371H         LINE#         1766
BL51 BANKED LINKER/LOCATER V6.22                                                      06/21/2023  15:37:55  PAGE 132


  C:7371H         LINE#         1767
  C:737DH         LINE#         1768
  C:737DH         LINE#         1770
  C:7394H         LINE#         1771
  C:7394H         LINE#         1772
  C:739CH         LINE#         1773
  C:73A2H         LINE#         1774
  C:73A3H         LINE#         1776
  C:73A3H         LINE#         1778
  C:73A3H         LINE#         1779
  C:73A3H         LINE#         1781
  C:73A3H         LINE#         1782
  C:73ACH         LINE#         1783
  C:73ACH         LINE#         1784
  C:73ACH         LINE#         1785
  C:73ACH         LINE#         1811
  -------         ENDPROC       CHIP_NINTENDOSWITCH_HDMIHPD_HANDLE
  -------         PROC          MOD_CCRX_LOOP
  C:8024H         LINE#         1813
  C:8024H         LINE#         1814
  C:8024H         LINE#         1815
  C:802CH         LINE#         1816
  C:802CH         LINE#         1818
  C:802CH         LINE#         1819
  C:8032H         LINE#         1820
  C:8032H         LINE#         1821
  C:8035H         LINE#         1823
  C:8038H         LINE#         1825
  C:803EH         LINE#         1826
  C:803EH         LINE#         1828
  C:8041H         LINE#         1830
  C:8041H         LINE#         1832
  C:8044H         LINE#         1833
  C:8047H         LINE#         1835
  C:804DH         LINE#         1836
  C:804DH         LINE#         1837
  C:8050H         LINE#         1839
  C:8053H         LINE#         1841
  C:8053H         LINE#         1842
  C:8069H         LINE#         1844
  C:8069H         LINE#         1845
  C:806FH         LINE#         1846
  C:806FH         LINE#         1847
  C:806FH         LINE#         1848
  C:806FH         LINE#         1849
  C:806FH         LINE#         1850
  C:8071H         LINE#         1852
  C:8071H         LINE#         1854
  C:8077H         LINE#         1855
  C:8077H         LINE#         1856
  C:807CH         LINE#         1857
  C:807CH         LINE#         1858
  C:8082H         LINE#         1859
  C:8082H         LINE#         1860
  C:8085H         LINE#         1861
  C:8085H         LINE#         1863
  C:8085H         LINE#         1864
BL51 BANKED LINKER/LOCATER V6.22                                                      06/21/2023  15:37:55  PAGE 133


  C:8088H         LINE#         1865
  C:808BH         LINE#         1866
  C:808EH         LINE#         1867
  C:8091H         LINE#         1869
  C:8094H         LINE#         1870
  C:8097H         LINE#         1872
  C:809AH         LINE#         1876
  C:809DH         LINE#         1881
  -------         ENDPROC       MOD_CCRX_LOOP
  -------         PROC          CHIP_RP_SOFTRST_HANDLE
  C:9E11H         LINE#         2107
  C:9E11H         LINE#         2108
  C:9E11H         LINE#         2109
  C:9E17H         LINE#         2110
  C:9E17H         LINE#         2111
  C:9E19H         LINE#         2112
  C:9E1FH         LINE#         2113
  C:9E1FH         LINE#         2114
  C:9E26H         LINE#         2115
  C:9E29H         LINE#         2116
  C:9E2FH         LINE#         2117
  C:9E35H         LINE#         2118
  C:9E38H         LINE#         2119
  C:9E40H         LINE#         2120
  C:9E47H         LINE#         2121
  C:9E47H         LINE#         2122
  C:9E47H         LINE#         2123
  -------         ENDPROC       CHIP_RP_SOFTRST_HANDLE
  -------         PROC          CHIP_HARDRST_SEND_HANDLE
  C:A40DH         LINE#         2144
  C:A40DH         LINE#         2145
  C:A40DH         LINE#         2146
  C:A414H         LINE#         2147
  C:A414H         LINE#         2148
  C:A416H         LINE#         2149
  C:A41CH         LINE#         2150
  C:A41CH         LINE#         2151
  C:A420H         LINE#         2152
  C:A423H         LINE#         2153
  C:A423H         LINE#         2154
  C:A423H         LINE#         2155
  C:A42AH         LINE#         2156
  C:A42AH         LINE#         2157
  C:A42CH         LINE#         2158
  C:A432H         LINE#         2159
  C:A432H         LINE#         2162
  C:A436H         LINE#         2163
  C:A436H         LINE#         2164
  C:A436H         LINE#         2165
  -------         ENDPROC       CHIP_HARDRST_SEND_HANDLE
  -------         PROC          CHIP_ENTERINTOSWITCH_HANDLE
  C:A72DH         LINE#         2167
  C:A72DH         LINE#         2168
  C:A72DH         LINE#         2169
  C:A734H         LINE#         2170
  C:A734H         LINE#         2171
  C:A739H         LINE#         2172
BL51 BANKED LINKER/LOCATER V6.22                                                      06/21/2023  15:37:55  PAGE 134


  C:A73CH         LINE#         2173
  C:A742H         LINE#         2174
  C:A749H         LINE#         2175
  C:A74FH         LINE#         2176
  C:A74FH         LINE#         2177
  -------         ENDPROC       CHIP_ENTERINTOSWITCH_HANDLE
  -------         PROC          CHIP_HARDRST_REC_HANDLE
  C:AC42H         LINE#         2227
  C:AC42H         LINE#         2228
  C:AC42H         LINE#         2229
  C:AC49H         LINE#         2230
  C:AC49H         LINE#         2231
  C:AC4CH         LINE#         2232
  C:AC51H         LINE#         2233
  C:AC51H         LINE#         2234
  -------         ENDPROC       CHIP_HARDRST_REC_HANDLE
  -------         ENDMOD        MODCC1TYPEC

  -------         MODULE        MODCC2BASICTYPEC
  C:0000H         SYMBOL        _ICE_DUMMY_
  C:5148H         PUBLIC        _CHIP_DFP_Message
  C:57DDH         PUBLIC        Chip_DccMessage_Send
  D:00C8H         PUBLIC        T2CON
  C:15AEH         PUBLIC        _Chip_DccSourceCap_Cal
  C:958AH         PUBLIC        Chip_DFP_VdmMsg
  -------         PROC          _CHIP_DCCSOURCECAP_CAL
  D:0007H         SYMBOL        ucDataLength
  -------         DO            
  X:05B9H         SYMBOL        Adtmp
  X:05BAH         SYMBOL        AdapterTmpLenth
  D:0006H         SYMBOL        loop_Adatper
  X:05BBH         SYMBOL        Adapter_Cur_Cap
  D:0006H         SYMBOL        Adapter_Vol_Cap
  X:05BDH         SYMBOL        b1CurrentChange
  -------         ENDDO         
  C:15AEH         LINE#         118
  C:15AEH         LINE#         119
  C:15AEH         LINE#         121
  C:15B3H         LINE#         140
  C:15B9H         LINE#         146
  C:15BFH         LINE#         147
  C:15C1H         LINE#         148
  C:15C8H         LINE#         149
  C:15DBH         LINE#         150
  C:15DBH         LINE#         151
  C:15DEH         LINE#         152
  C:15DEH         LINE#         153
  C:15E6H         LINE#         154
  C:15E8H         LINE#         155
  C:15ECH         LINE#         156
  C:15ECH         LINE#         157
  C:15F4H         LINE#         158
  C:15F6H         LINE#         160
  C:15F6H         LINE#         161
  C:160EH         LINE#         162
  C:160EH         LINE#         163
  C:1616H         LINE#         166
BL51 BANKED LINKER/LOCATER V6.22                                                      06/21/2023  15:37:55  PAGE 135


  C:161DH         LINE#         167
  C:1620H         LINE#         169
  C:1633H         LINE#         173
  C:1646H         LINE#         177
  C:1659H         LINE#         182
  C:1670H         LINE#         183
  C:1670H         LINE#         185
  C:1675H         LINE#         187
  C:1686H         LINE#         188
  C:1686H         LINE#         189
  C:169CH         LINE#         190
  C:169CH         LINE#         191
  C:16B4H         LINE#         192
  C:16B7H         LINE#         221
  C:16BEH         LINE#         222
  C:16C5H         LINE#         223
  C:16CCH         LINE#         224
  C:16E0H         LINE#         226
  C:16E3H         LINE#         228
  C:16E3H         LINE#         229
  C:170FH         LINE#         230
  C:1733H         LINE#         232
  C:173CH         LINE#         233
  C:173CH         LINE#         234
  C:174AH         LINE#         235
  C:174AH         LINE#         236
  C:174FH         LINE#         237
  C:1752H         LINE#         239
  C:1752H         LINE#         240
  C:175BH         LINE#         241
  C:175BH         LINE#         242
  C:175EH         LINE#         243
  C:1767H         LINE#         244
  C:1767H         LINE#         245
  C:176FH         LINE#         246
  C:1772H         LINE#         247
  C:177BH         LINE#         248
  C:177BH         LINE#         249
  C:1783H         LINE#         250
  C:1786H         LINE#         251
  C:178CH         LINE#         252
  C:178CH         LINE#         254
  C:179BH         LINE#         255
  C:179BH         LINE#         256
  C:17A2H         LINE#         257
  C:17A8H         LINE#         258
  C:17AAH         LINE#         260
  C:17AAH         LINE#         263
  C:17B5H         LINE#         264
  C:17BBH         LINE#         266
  C:17C0H         LINE#         271
  C:17C0H         LINE#         275
  C:17C2H         LINE#         276
  C:17CBH         LINE#         277
  C:17CBH         LINE#         278
  C:17D3H         LINE#         279
  C:17D5H         LINE#         281
BL51 BANKED LINKER/LOCATER V6.22                                                      06/21/2023  15:37:55  PAGE 136


  C:17D5H         LINE#         282
  C:17DBH         LINE#         283
  C:17DBH         LINE#         284
  C:17EBH         LINE#         285
  C:17EBH         LINE#         286
  C:17F3H         LINE#         287
  C:17F5H         LINE#         288
  C:1803H         LINE#         289
  C:1803H         LINE#         290
  C:1806H         LINE#         291
  C:1808H         LINE#         293
  C:1808H         LINE#         294
  C:180BH         LINE#         295
  C:180BH         LINE#         296
  C:180DH         LINE#         298
  C:180DH         LINE#         299
  C:1818H         LINE#         300
  C:1818H         LINE#         309
  C:1818H         LINE#         592
  C:182EH         LINE#         593
  C:183CH         LINE#         594
  C:185FH         LINE#         596
  C:1868H         LINE#         597
  C:1868H         LINE#         598
  C:1872H         LINE#         599
  C:1888H         LINE#         600
  C:1896H         LINE#         601
  C:18B4H         LINE#         602
  C:18B6H         LINE#         604
  C:18B6H         LINE#         605
  C:18D2H         LINE#         606
  C:18EEH         LINE#         607
  C:18EEH         LINE#         617
  C:18F6H         LINE#         618
  C:18F6H         LINE#         619
  C:18FFH         LINE#         620
  C:1915H         LINE#         621
  C:1923H         LINE#         622
  C:1941H         LINE#         623
  C:1943H         LINE#         625
  C:1943H         LINE#         626
  C:1956H         LINE#         627
  C:1956H         LINE#         679
  C:1956H         LINE#         680
  C:1960H         LINE#         681
  C:1969H         LINE#         682
  C:196CH         LINE#         684
  C:1975H         LINE#         685
  C:1978H         LINE#         697
  -------         ENDPROC       _CHIP_DCCSOURCECAP_CAL
  C:57D7H         SYMBOL        L?0113
  -------         PROC          L?0112
  -------         ENDPROC       L?0112
  C:57D7H         SYMBOL        L?0113
  -------         PROC          CHIP_DCCMESSAGE_SEND
  -------         DO            
  X:05C1H         SYMBOL        ucSendData
BL51 BANKED LINKER/LOCATER V6.22                                                      06/21/2023  15:37:55  PAGE 137


  X:05C2H         SYMBOL        ucSendMegSndDataOffset
  X:0669H         SYMBOL        ucDccTotalData
  X:066AH         SYMBOL        ucMessage_ID_Send
  -------         ENDDO         
  C:57DDH         LINE#         760
  C:57DDH         LINE#         761
  C:57DDH         LINE#         766
  C:57E9H         LINE#         767
  C:5801H         LINE#         768
  C:5817H         LINE#         769
  C:5817H         LINE#         770
  C:5824H         LINE#         771
  C:582EH         LINE#         772
  C:5834H         LINE#         773
  C:5834H         LINE#         774
  C:5839H         LINE#         775
  C:5839H         LINE#         776
  C:5840H         LINE#         777
  C:5847H         LINE#         778
  C:5847H         LINE#         779
  C:5850H         LINE#         780
  C:5858H         LINE#         781
  C:5858H         LINE#         783
  C:5858H         LINE#         785
  C:5858H         LINE#         786
  C:5868H         LINE#         787
  C:587BH         LINE#         788
  C:587DH         LINE#         790
  C:5883H         LINE#         791
  C:5883H         LINE#         792
  C:588AH         LINE#         803
  C:588DH         LINE#         805
  C:58A0H         LINE#         806
  C:58A0H         LINE#         807
  C:58A2H         LINE#         808
  C:58A9H         LINE#         809
  C:58A9H         LINE#         810
  C:58AFH         LINE#         811
  C:58AFH         LINE#         812
  C:58B7H         LINE#         813
  C:58C0H         LINE#         814
  C:58C9H         LINE#         815
  C:58C9H         LINE#         817
  C:58C9H         LINE#         819
  C:58C9H         LINE#         820
  C:58CFH         LINE#         821
  C:58CFH         LINE#         822
  C:58D5H         LINE#         823
  C:58DCH         LINE#         824
  C:58DFH         LINE#         825
  -------         ENDPROC       CHIP_DCCMESSAGE_SEND
  -------         PROC          CHIP_DFP_VDMMSG
  C:958AH         LINE#         833
  C:958AH         LINE#         834
  C:958AH         LINE#         835
  C:9597H         LINE#         836
  C:9597H         LINE#         837
BL51 BANKED LINKER/LOCATER V6.22                                                      06/21/2023  15:37:55  PAGE 138


  C:9597H         LINE#         838
  C:95ABH         LINE#         839
  C:95B1H         LINE#         840
  C:95B1H         LINE#         841
  C:95B3H         LINE#         842
  C:95B3H         LINE#         846
  C:95C6H         LINE#         847
  C:95CBH         LINE#         848
  C:95D1H         LINE#         849
  C:95D4H         LINE#         850
  C:95D4H         LINE#         851
  C:95D4H         LINE#         852
  C:95D4H         LINE#         853
  C:95D4H         LINE#         854
  -------         ENDPROC       CHIP_DFP_VDMMSG
  -------         PROC          _CHIP_DFP_MESSAGE
  X:05B7H         SYMBOL        ucMsg_Type
  X:05B8H         SYMBOL        ucLength
  D:0003H         SYMBOL        ucExt
  C:5148H         LINE#         862
  C:5150H         LINE#         863
  C:5150H         LINE#         864
  C:5156H         LINE#         865
  C:5156H         LINE#         866
  C:515CH         LINE#         867
  C:515CH         LINE#         868
  C:518BH         LINE#         869
  C:518BH         LINE#         870
  C:518BH         LINE#         871
  C:518BH         LINE#         872
  C:518BH         LINE#         873
  C:518BH         LINE#         874
  C:518BH         LINE#         875
  C:518BH         LINE#         876
  C:518BH         LINE#         877
  C:518BH         LINE#         878
  C:518BH         LINE#         879
  C:5192H         LINE#         880
  C:5192H         LINE#         881
  C:5195H         LINE#         882
  C:5195H         LINE#         883
  C:51A9H         LINE#         884
  C:51A9H         LINE#         885
  C:51AFH         LINE#         886
  C:51AFH         LINE#         887
  C:51B4H         LINE#         888
  C:51B4H         LINE#         889
  C:51B4H         LINE#         890
  C:51C6H         LINE#         891
  C:51C6H         LINE#         892
  C:51CCH         LINE#         893
  C:51CCH         LINE#         904
  C:51D4H         LINE#         905
  C:51D4H         LINE#         906
  C:51D9H         LINE#         907
  C:51D9H         LINE#         909
  C:51D9H         LINE#         910
BL51 BANKED LINKER/LOCATER V6.22                                                      06/21/2023  15:37:55  PAGE 139


  C:51DFH         LINE#         911
  C:51E2H         LINE#         912
  C:51E2H         LINE#         913
  C:51E2H         LINE#         914
  C:51E2H         LINE#         915
  C:51E2H         LINE#         916
  C:51E2H         LINE#         917
  C:51E2H         LINE#         918
  C:51E2H         LINE#         920
  C:51E8H         LINE#         921
  C:51E8H         LINE#         922
  C:51E8H         LINE#         923
  C:51EAH         LINE#         924
  C:51EAH         LINE#         925
  C:51EAH         LINE#         926
  C:51EAH         LINE#         927
  C:51EAH         LINE#         929
  C:51F0H         LINE#         930
  C:51F3H         LINE#         931
  C:51F9H         LINE#         932
  C:51FAH         LINE#         933
  C:51FAH         LINE#         934
  C:5200H         LINE#         935
  C:5200H         LINE#         936
  C:5202H         LINE#         937
  C:5202H         LINE#         938
  C:5207H         LINE#         939
  C:5213H         LINE#         940
  C:5216H         LINE#         941
  C:5216H         LINE#         942
  C:5216H         LINE#         943
  C:5216H         LINE#         944
  C:5216H         LINE#         945
  C:5216H         LINE#         947
  C:5216H         LINE#         948
  C:5222H         LINE#         949
  C:5222H         LINE#         950
  C:5222H         LINE#         954
  C:5228H         LINE#         955
  C:5230H         LINE#         959
  C:524DH         LINE#         961
  C:5253H         LINE#         962
  C:5256H         LINE#         963
  C:5264H         LINE#         964
  C:5265H         LINE#         965
  C:5265H         LINE#         969
  C:5265H         LINE#         970
  C:5265H         LINE#         971
  C:5268H         LINE#         972
  C:5268H         LINE#         973
  C:5268H         LINE#         974
  C:5268H         LINE#         975
  C:5268H         LINE#         976
  C:5268H         LINE#         977
  C:5268H         LINE#         978
  -------         ENDPROC       _CHIP_DFP_MESSAGE
  -------         ENDMOD        MODCC2BASICTYPEC
BL51 BANKED LINKER/LOCATER V6.22                                                      06/21/2023  15:37:55  PAGE 140



  -------         MODULE        MODCC2MSGTYPEC
  C:0000H         SYMBOL        _ICE_DUMMY_
  C:A0B5H         PUBLIC        Chip_AdapterLost_VarIni
  C:8FEAH         PUBLIC        CHIP_Dcc_Retry
  C:778DH         PUBLIC        Chip_Dvbus_Lvl_Set
  C:A773H         PUBLIC        Chip_DvbusUcc_DoTrig
  C:A0E5H         PUBLIC        Chip_DccUcc_DoTrig
  C:461EH         PUBLIC        Mod_Dcc_Interrupt
  B:00C8H.2       PUBLIC        TR2
  C:693DH         PUBLIC        CHIP_PsRdy_Send
  D:00C8H         PUBLIC        T2CON
  -------         PROC          CHIP_DCC_RETRY
  C:8FEAH         LINE#         6
  C:8FEAH         LINE#         7
  C:8FEAH         LINE#         8
  C:8FF0H         LINE#         9
  C:8FF0H         LINE#         10
  C:8FF4H         LINE#         11
  C:9001H         LINE#         12
  C:9001H         LINE#         13
  C:900DH         LINE#         14
  C:9010H         LINE#         15
  C:9013H         LINE#         16
  C:9013H         LINE#         18
  C:9013H         LINE#         19
  C:901AH         LINE#         20
  C:9021H         LINE#         21
  C:9028H         LINE#         22
  C:902FH         LINE#         23
  C:9035H         LINE#         24
  C:9039H         LINE#         25
  C:903EH         LINE#         26
  C:903EH         LINE#         27
  C:903EH         LINE#         28
  -------         ENDPROC       CHIP_DCC_RETRY
  -------         PROC          CHIP_DVBUS_LVL_SET
  -------         DO            
  X:05C3H         SYMBOL        ucVbus_off_volt
  D:0002H         SYMBOL        usVbus_Used_Volt
  -------         ENDDO         
  C:778DH         LINE#         31
  C:778DH         LINE#         32
  C:778DH         LINE#         36
  C:7792H         LINE#         37
  C:7796H         LINE#         38
  C:779AH         LINE#         39
  C:77AAH         LINE#         40
  C:77AAH         LINE#         41
  C:77B1H         LINE#         43
  C:77B6H         LINE#         44
  C:77BDH         LINE#         45
  C:77BFH         LINE#         51
  C:77C9H         LINE#         52
  C:77C9H         LINE#         53
  C:77CDH         LINE#         54
  C:77D2H         LINE#         55
BL51 BANKED LINKER/LOCATER V6.22                                                      06/21/2023  15:37:55  PAGE 141


  C:77D2H         LINE#         56
  C:77DAH         LINE#         57
  C:77DCH         LINE#         58
  C:77E4H         LINE#         59
  C:77E4H         LINE#         60
  C:77E6H         LINE#         61
  C:77E8H         LINE#         63
  C:77E8H         LINE#         64
  C:77F9H         LINE#         65
  C:77F9H         LINE#         66
  C:7804H         LINE#         67
  C:7809H         LINE#         68
  C:780CH         LINE#         69
  C:780EH         LINE#         71
  C:780EH         LINE#         72
  C:7813H         LINE#         73
  C:7813H         LINE#         74
  C:781AH         LINE#         75
  C:7820H         LINE#         76
  -------         ENDPROC       CHIP_DVBUS_LVL_SET
  -------         PROC          CHIP_PSRDY_SEND
  -------         DO            
  X:05C1H         SYMBOL        vSafe5V_Wait
  -------         ENDDO         
  C:693DH         LINE#         78
  C:693DH         LINE#         79
  C:693DH         LINE#         80
  C:6944H         LINE#         81
  C:694CH         LINE#         82
  C:694CH         LINE#         83
  C:6951H         LINE#         84
  C:6958H         LINE#         85
  C:695FH         LINE#         86
  C:695FH         LINE#         87
  C:6966H         LINE#         88
  C:696DH         LINE#         89
  C:696DH         LINE#         90
  C:696DH         LINE#         91
  C:696DH         LINE#         92
  C:6986H         LINE#         93
  C:698DH         LINE#         94
  C:6994H         LINE#         95
  C:699BH         LINE#         96
  C:69A0H         LINE#         97
  C:69A6H         LINE#         98
  C:69A6H         LINE#         99
  C:69ADH         LINE#         100
  C:69ADH         LINE#         101
  C:69B2H         LINE#         102
  C:69B8H         LINE#         103
  C:69BCH         LINE#         104
  C:69C1H         LINE#         105
  C:69C7H         LINE#         106
  C:69CEH         LINE#         107
  C:69CEH         LINE#         109
  C:69D1H         LINE#         111
  C:69D6H         LINE#         118
BL51 BANKED LINKER/LOCATER V6.22                                                      06/21/2023  15:37:55  PAGE 142


  C:69DDH         LINE#         119
  C:69DDH         LINE#         120
  C:69DFH         LINE#         121
  C:69E4H         LINE#         122
  C:69E4H         LINE#         123
  C:69F0H         LINE#         124
  C:69FEH         LINE#         125
  C:6A01H         LINE#         126
  C:6A07H         LINE#         127
  -------         ENDPROC       CHIP_PSRDY_SEND
  -------         PROC          CHIP_ADAPTERLOST_VARINI
  C:A0B5H         LINE#         129
  C:A0B5H         LINE#         130
  C:A0B5H         LINE#         131
  C:A0BCH         LINE#         136
  C:A0C1H         LINE#         137
  C:A0C5H         LINE#         138
  C:A0C9H         LINE#         139
  C:A0CDH         LINE#         140
  C:A0D1H         LINE#         141
  C:A0D3H         LINE#         142
  C:A0D5H         LINE#         143
  C:A0D9H         LINE#         146
  C:A0DDH         LINE#         148
  C:A0E4H         LINE#         149
  -------         ENDPROC       CHIP_ADAPTERLOST_VARINI
  -------         PROC          CHIP_DVBUSUCC_DOTRIG
  C:A773H         LINE#         150
  C:A773H         LINE#         151
  C:A773H         LINE#         152
  C:A781H         LINE#         153
  C:A781H         LINE#         154
  C:A784H         LINE#         155
  C:A78AH         LINE#         156
  C:A791H         LINE#         157
  C:A794H         LINE#         158
  C:A794H         LINE#         159
  -------         ENDPROC       CHIP_DVBUSUCC_DOTRIG
  -------         PROC          CHIP_DCCUCC_DOTRIG
  C:A0E5H         LINE#         160
  C:A0E5H         LINE#         161
  C:A0E5H         LINE#         163
  C:A0E5H         LINE#         164
  C:A0F3H         LINE#         165
  C:A0F3H         LINE#         166
  C:A0F6H         LINE#         167
  C:A0FCH         LINE#         168
  C:A103H         LINE#         169
  C:A105H         LINE#         171
  C:A105H         LINE#         172
  C:A10BH         LINE#         173
  C:A112H         LINE#         174
  C:A112H         LINE#         175
  -------         ENDPROC       CHIP_DCCUCC_DOTRIG
  -------         PROC          MOD_DCC_INTERRUPT
  -------         DO            
  X:05B1H         SYMBOL        ucDccMsgLength
BL51 BANKED LINKER/LOCATER V6.22                                                      06/21/2023  15:37:55  PAGE 143


  X:05B2H         SYMBOL        ucDccExtMsg
  X:05B3H         SYMBOL        ucDccMsgType
  X:05B4H         SYMBOL        ucDccTypecInt
  X:05B5H         SYMBOL        ucDccKeyCode
  X:05B6H         SYMBOL        ucDccRXCount
  -------         ENDDO         
  C:461EH         LINE#         200
  C:461EH         LINE#         201
  C:461EH         LINE#         215
  C:4627H         LINE#         216
  C:462DH         LINE#         217
  C:4633H         LINE#         218
  C:4637H         LINE#         219
  C:4637H         LINE#         221
  C:463FH         LINE#         222
  C:463FH         LINE#         223
  C:4642H         LINE#         224
  C:4642H         LINE#         226
  C:4642H         LINE#         227
  C:464AH         LINE#         228
  C:464AH         LINE#         229
  C:464FH         LINE#         230
  C:465AH         LINE#         231
  C:4660H         LINE#         232
  C:4667H         LINE#         233
  C:4667H         LINE#         234
  C:466AH         LINE#         235
  C:466CH         LINE#         237
  C:466CH         LINE#         238
  C:466FH         LINE#         239
  C:466FH         LINE#         240
  C:466FH         LINE#         242
  C:4673H         LINE#         243
  C:4673H         LINE#         244
  C:467BH         LINE#         245
  C:4683H         LINE#         246
  C:4689H         LINE#         247
  C:4699H         LINE#         248
  C:46A8H         LINE#         249
  C:46A8H         LINE#         251
  C:46AFH         LINE#         252
  C:46AFH         LINE#         254
  C:46AFH         LINE#         255
  C:46C3H         LINE#         256
  C:46C9H         LINE#         257
  C:46D9H         LINE#         258
  C:46DCH         LINE#         259
  C:46DFH         LINE#         260
  C:46DFH         LINE#         262
  C:46E6H         LINE#         263
  C:46E6H         LINE#         264
  C:46EDH         LINE#         265
  C:46F3H         LINE#         266
  C:46F3H         LINE#         268
  C:46F3H         LINE#         270
  C:46F3H         LINE#         271
  C:46F5H         LINE#         272
BL51 BANKED LINKER/LOCATER V6.22                                                      06/21/2023  15:37:55  PAGE 144


  C:46F5H         LINE#         273
  C:46FDH         LINE#         274
  C:4702H         LINE#         275
  C:4706H         LINE#         277
  C:470BH         LINE#         279
  C:4712H         LINE#         280
  C:4712H         LINE#         281
  C:4720H         LINE#         282
  C:4720H         LINE#         284
  C:4720H         LINE#         286
  C:4720H         LINE#         287
  C:4726H         LINE#         288
  C:4726H         LINE#         289
  C:4728H         LINE#         291
  C:4728H         LINE#         292
  C:472DH         LINE#         293
  C:472DH         LINE#         294
  C:473AH         LINE#         295
  C:473AH         LINE#         297
  C:473AH         LINE#         299
  C:473AH         LINE#         300
  C:473FH         LINE#         301
  C:473FH         LINE#         302
  C:473FH         LINE#         320
  C:4746H         LINE#         321
  C:4746H         LINE#         322
  C:474CH         LINE#         323
  C:4753H         LINE#         324
  C:4753H         LINE#         325
  C:4755H         LINE#         326
  C:4758H         LINE#         327
  C:475AH         LINE#         328
  C:475AH         LINE#         330
  C:4761H         LINE#         331
  C:4761H         LINE#         332
  C:4763H         LINE#         333
  C:476AH         LINE#         334
  C:476AH         LINE#         335
  C:477AH         LINE#         336
  C:477AH         LINE#         337
  C:477AH         LINE#         338
  C:477AH         LINE#         339
  -------         ENDPROC       MOD_DCC_INTERRUPT
  -------         ENDMOD        MODCC2MSGTYPEC

  -------         MODULE        MODCC2TYPEC
  C:0000H         SYMBOL        _ICE_DUMMY_
  C:AEA3H         PUBLIC        Mod_CCTx_Loop
  D:00C8H         PUBLIC        T2CON
  -------         PROC          MOD_CCTX_LOOP
  C:AEA3H         LINE#         10
  C:AEA3H         LINE#         11
  C:AEA3H         LINE#         13
  -------         ENDPROC       MOD_CCTX_LOOP
  -------         ENDMOD        MODCC2TYPEC

  -------         MODULE        MODCCSHAREDTYPEC
BL51 BANKED LINKER/LOCATER V6.22                                                      06/21/2023  15:37:55  PAGE 145


  C:0000H         SYMBOL        _ICE_DUMMY_
  C:AD7DH         PUBLIC        _Chip_CCMsgId_Cal
  D:00C8H         PUBLIC        T2CON
  C:48CFH         PUBLIC        _Chip_RequestMsg_Cal
  C:7D96H         PUBLIC        _Chip_CCMessage_Resend
  -------         PROC          _CHIP_CCMSGID_CAL
  D:0007H         SYMBOL        ucsum
  C:AD7DH         LINE#         17
  C:AD7DH         LINE#         18
  C:AD7DH         LINE#         19
  C:AD7FH         LINE#         20
  C:AD85H         LINE#         21
  C:AD85H         LINE#         22
  C:AD87H         LINE#         23
  C:AD87H         LINE#         25
  C:AD87H         LINE#         27
  C:AD87H         LINE#         28
  C:AD87H         LINE#         29
  -------         ENDPROC       _CHIP_CCMSGID_CAL
  -------         PROC          _CHIP_REQUESTMSG_CAL
  X:05B9H         SYMBOL        pucMessage
  X:05BCH         SYMBOL        ucMismatch_Chunked_EN
  X:05BDH         SYMBOL        pucRequestMsg
  X:05C0H         SYMBOL        ucCC_Ver
  -------         DO            
  D:0006H         SYMBOL        usMax_Cur_5V
  -------         ENDDO         
  C:48CFH         LINE#         39
  C:48DAH         LINE#         40
  C:48DAH         LINE#         41
  C:48DAH         LINE#         42
  C:48F4H         LINE#         43
  C:48FFH         LINE#         44
  C:490DH         LINE#         45
  C:4924H         LINE#         46
  C:4949H         LINE#         47
  C:4975H         LINE#         48
  C:497EH         LINE#         49
  C:497EH         LINE#         50
  C:4985H         LINE#         51
  C:4985H         LINE#         52
  C:49B1H         LINE#         53
  C:49B3H         LINE#         55
  C:49B3H         LINE#         56
  C:49C8H         LINE#         57
  C:49C8H         LINE#         58
  C:49DAH         LINE#         59
  C:49DCH         LINE#         61
  C:49DCH         LINE#         62
  C:49F1H         LINE#         63
  C:49F1H         LINE#         64
  C:49FFH         LINE#         65
  C:4A06H         LINE#         66
  C:4A06H         LINE#         67
  C:4A0FH         LINE#         68
  C:4A0FH         LINE#         69
  C:4A1EH         LINE#         70
BL51 BANKED LINKER/LOCATER V6.22                                                      06/21/2023  15:37:55  PAGE 146


  C:4A1EH         LINE#         71
  C:4A1EH         LINE#         73
  C:4A1EH         LINE#         75
  C:4A1EH         LINE#         76
  -------         ENDPROC       _CHIP_REQUESTMSG_CAL
  -------         PROC          _CHIP_CCMESSAGE_RESEND
  X:05C5H         SYMBOL        ucCC_Port
  C:7D96H         LINE#         83
  C:7D9BH         LINE#         84
  C:7D9BH         LINE#         85
  C:7D9DH         LINE#         86
  C:7D9DH         LINE#         87
  C:7DA1H         LINE#         88
  C:7DA5H         LINE#         89
  C:7DADH         LINE#         90
  C:7DADH         LINE#         92
  C:7DADH         LINE#         94
  C:7DADH         LINE#         95
  C:7DB3H         LINE#         96
  C:7DB3H         LINE#         97
  C:7DBFH         LINE#         98
  C:7DBFH         LINE#         99
  C:7DC2H         LINE#         100
  C:7DC4H         LINE#         102
  C:7DC4H         LINE#         103
  C:7DC7H         LINE#         104
  C:7DC7H         LINE#         105
  C:7DCDH         LINE#         106
  C:7DD0H         LINE#         107
  C:7DD6H         LINE#         108
  C:7DD6H         LINE#         109
  C:7DD9H         LINE#         110
  C:7DD9H         LINE#         111
  C:7DDBH         LINE#         112
  C:7DE3H         LINE#         113
  C:7DE3H         LINE#         114
  C:7DE7H         LINE#         115
  C:7DEBH         LINE#         116
  C:7DF3H         LINE#         117
  C:7DF3H         LINE#         119
  C:7DF3H         LINE#         121
  C:7DF3H         LINE#         122
  C:7DF9H         LINE#         123
  C:7DF9H         LINE#         124
  C:7E05H         LINE#         125
  C:7E05H         LINE#         126
  C:7E08H         LINE#         127
  C:7E0AH         LINE#         129
  C:7E0AH         LINE#         130
  C:7E0DH         LINE#         131
  C:7E0DH         LINE#         132
  C:7E13H         LINE#         133
  C:7E16H         LINE#         134
  C:7E1CH         LINE#         135
  C:7E1CH         LINE#         136
  -------         ENDPROC       _CHIP_CCMESSAGE_RESEND
  -------         ENDMOD        MODCCSHAREDTYPEC
BL51 BANKED LINKER/LOCATER V6.22                                                      06/21/2023  15:37:55  PAGE 147



  -------         MODULE        MODDPEDID
  C:0000H         SYMBOL        _ICE_DUMMY_
  D:00C8H         PUBLIC        T2CON
  -------         ENDMOD        MODDPEDID

  -------         MODULE        MODDPLINKCTS
  C:0000H         SYMBOL        _ICE_DUMMY_
  D:00C8H         PUBLIC        T2CON
  -------         ENDMOD        MODDPLINKCTS

  -------         MODULE        MODDPLINKTRAIN
  C:0000H         SYMBOL        _ICE_DUMMY_
  D:00C8H         PUBLIC        T2CON
  -------         ENDMOD        MODDPLINKTRAIN

  -------         MODULE        MODDPRX
  C:0000H         SYMBOL        _ICE_DUMMY_
  C:AE83H         PUBLIC        Mod_DpRx_DpOrTypecDet
  C:AE89H         PUBLIC        _Mod_DpRx_MsgNotify
  C:AE80H         PUBLIC        Mod_DpRx_GpioInit
  C:93C0H         PUBLIC        Mod_DpRx_SourceDetProc
  C:AE56H         PUBLIC        Mod_DpRx_JudgeTimingHBE
  C:7943H         PUBLIC        Mod_DpRx_PcrMsaUpdate
  C:62D8H         PUBLIC        Mod_DpRx_PeakClkCal
  C:9A4EH         PUBLIC        _Mod_DpRx_SetState
  C:A819H         PUBLIC        Mod_DpRx_HpdLowAction
  C:AE86H         PUBLIC        Mod_DpRx_VarInit
  C:ADE5H         PUBLIC        Mod_DpRx_Handler
  C:23FCH         PUBLIC        Mod_DpRx_StateHandler
  C:ABC6H         PUBLIC        Mod_DpRx_HpdIrq
  X:0606H         PUBLIC        g_stDpRx
  C:8D87H         PUBLIC        Mod_DpRx_SourceChannelSet
  C:AAF7H         PUBLIC        Mod_DpRx_PowerOnInit
  C:ACDDH         PUBLIC        Mod_DpRx_PcrStableCheck
  C:AE5CH         PUBLIC        Mod_DpRx_ColorSpace
  C:56C8H         PUBLIC        Mod_DpRx_StateJudge
  C:AEA4H         PUBLIC        Mod_DpRx_MstHandler
  C:AE62H         PUBLIC        Mod_DpRx_ColorDepth
  C:913CH         PUBLIC        Mod_DpRx_PcrColorSpaceUpdata
  D:00C8H         PUBLIC        T2CON
  C:8A92H         PUBLIC        Mod_DpRx_AudioChannelUpdata
  C:AB0DH         PUBLIC        Mod_DpRx_SourceDetection
  -------         PROC          MOD_DPRX_POWERONINIT
  C:AAF7H         LINE#         14
  C:AAF7H         LINE#         15
  C:AAF7H         LINE#         16
  C:AB06H         LINE#         17
  C:AB0CH         LINE#         18
  -------         ENDPROC       MOD_DPRX_POWERONINIT
  -------         PROC          MOD_DPRX_GPIOINIT
  C:AE80H         LINE#         20
  C:AE80H         LINE#         21
  C:AE80H         LINE#         23
  -------         ENDPROC       MOD_DPRX_GPIOINIT
  -------         PROC          MOD_DPRX_DPORTYPECDET
  C:AE83H         LINE#         30
BL51 BANKED LINKER/LOCATER V6.22                                                      06/21/2023  15:37:55  PAGE 148


  C:AE83H         LINE#         31
  C:AE83H         LINE#         33
  -------         ENDPROC       MOD_DPRX_DPORTYPECDET
  -------         PROC          MOD_DPRX_VARINIT
  C:AE86H         LINE#         41
  C:AE86H         LINE#         42
  C:AE86H         LINE#         44
  -------         ENDPROC       MOD_DPRX_VARINIT
  -------         PROC          _MOD_DPRX_MSGNOTIFY
  D:0007H         SYMBOL        ucEvent
  C:AE89H         LINE#         51
  C:AE89H         LINE#         52
  C:AE89H         LINE#         54
  -------         ENDPROC       _MOD_DPRX_MSGNOTIFY
  -------         PROC          MOD_DPRX_SOURCEDETECTION
  C:AB0DH         LINE#         61
  C:AB0DH         LINE#         62
  C:AB0DH         LINE#         63
  C:AB14H         LINE#         64
  C:AB14H         LINE#         65
  C:AB17H         LINE#         66
  C:AB17H         LINE#         69
  C:AB1DH         LINE#         70
  C:AB1DH         LINE#         71
  C:AB20H         LINE#         72
  C:AB20H         LINE#         74
  C:AB22H         LINE#         75
  -------         ENDPROC       MOD_DPRX_SOURCEDETECTION
  -------         PROC          MOD_DPRX_SOURCECHANNELSET
  C:8D87H         LINE#         77
  C:8D87H         LINE#         78
  C:8D87H         LINE#         79
  C:8D8EH         LINE#         80
  C:8D8EH         LINE#         81
  C:8D93H         LINE#         82
  C:8D98H         LINE#         83
  C:8D9DH         LINE#         84
  C:8DA4H         LINE#         85
  C:8DA4H         LINE#         88
  C:8DA4H         LINE#         89
  C:8DAAH         LINE#         90
  C:8DAAH         LINE#         91
  C:8DAEH         LINE#         92
  C:8DB3H         LINE#         93
  C:8DB5H         LINE#         94
  C:8DB7H         LINE#         96
  C:8DB7H         LINE#         97
  C:8DBDH         LINE#         98
  C:8DBDH         LINE#         99
  C:8DC1H         LINE#         100
  C:8DC6H         LINE#         101
  C:8DC8H         LINE#         102
  C:8DCAH         LINE#         104
  C:8DCAH         LINE#         105
  C:8DCFH         LINE#         106
  C:8DD4H         LINE#         107
  C:8DD9H         LINE#         108
BL51 BANKED LINKER/LOCATER V6.22                                                      06/21/2023  15:37:55  PAGE 149


  C:8DD9H         LINE#         109
  C:8DD9H         LINE#         110
  C:8DE0H         LINE#         111
  C:8DE0H         LINE#         113
  -------         ENDPROC       MOD_DPRX_SOURCECHANNELSET
  -------         PROC          MOD_DPRX_PEAKCLKCAL
  C:62D8H         LINE#         115
  C:62D8H         LINE#         116
  C:62D8H         LINE#         117
  C:62DFH         LINE#         118
  C:62E6H         LINE#         119
  C:62F3H         LINE#         120
  C:630AH         LINE#         121
  C:631DH         LINE#         122
  C:6330H         LINE#         123
  C:633FH         LINE#         124
  C:633FH         LINE#         125
  C:633FH         LINE#         126
  C:6342H         LINE#         127
  C:6344H         LINE#         128
  C:6344H         LINE#         129
  C:6355H         LINE#         130
  C:6357H         LINE#         131
  C:6357H         LINE#         132
  C:636BH         LINE#         133
  C:636DH         LINE#         134
  C:636DH         LINE#         135
  C:6379H         LINE#         136
  C:6379H         LINE#         137
  C:6379H         LINE#         138
  C:638AH         LINE#         139
  C:6394H         LINE#         140
  C:6394H         LINE#         141
  C:63A5H         LINE#         142
  C:63A7H         LINE#         144
  C:63A7H         LINE#         145
  C:63B5H         LINE#         146
  C:63B5H         LINE#         147
  -------         ENDPROC       MOD_DPRX_PEAKCLKCAL
  -------         PROC          MOD_DPRX_PCRCOLORSPACEUPDATA
  -------         DO            
  X:04B2H         SYMBOL        ucPixelDepth
  X:04B3H         SYMBOL        stColorInfo
  -------         ENDDO         
  C:913CH         LINE#         150
  C:913CH         LINE#         151
  C:913CH         LINE#         154
  C:9145H         LINE#         156
  C:9169H         LINE#         159
  C:9169H         LINE#         160
  C:916CH         LINE#         161
  C:916CH         LINE#         164
  C:9174H         LINE#         165
  C:9177H         LINE#         166
  C:917FH         LINE#         167
  C:9187H         LINE#         168
  C:918CH         LINE#         226
BL51 BANKED LINKER/LOCATER V6.22                                                      06/21/2023  15:37:55  PAGE 150


  C:918EH         LINE#         227
  -------         ENDPROC       MOD_DPRX_PCRCOLORSPACEUPDATA
  -------         PROC          MOD_DPRX_JUDGETIMINGHBE
  C:AE56H         LINE#         239
  C:AE56H         LINE#         240
  C:AE56H         LINE#         241
  C:AE5BH         LINE#         242
  -------         ENDPROC       MOD_DPRX_JUDGETIMINGHBE
  -------         PROC          MOD_DPRX_PCRMSAUPDATE
  -------         DO            
  D:0006H         SYMBOL        usHtotal
  X:04B2H         SYMBOL        usHactive
  -------         ENDDO         
  C:7943H         LINE#         245
  C:7943H         LINE#         246
  C:7943H         LINE#         249
  C:794AH         LINE#         250
  C:794AH         LINE#         251
  C:794DH         LINE#         252
  C:794DH         LINE#         253
  C:7964H         LINE#         254
  C:7973H         LINE#         255
  C:7990H         LINE#         256
  C:7990H         LINE#         257
  C:7993H         LINE#         258
  C:7993H         LINE#         259
  C:79B3H         LINE#         260
  C:79B3H         LINE#         261
  C:79B6H         LINE#         262
  C:79B6H         LINE#         263
  C:79BEH         LINE#         264
  C:79CDH         LINE#         265
  C:79CFH         LINE#         266
  -------         ENDPROC       MOD_DPRX_PCRMSAUPDATE
  -------         PROC          MOD_DPRX_PCRSTABLECHECK
  -------         DO            
  D:0007H         SYMBOL        ucState
  -------         ENDDO         
  C:ACDDH         LINE#         268
  C:ACDDH         LINE#         269
  C:ACDDH         LINE#         270
  C:ACDDH         LINE#         279
  C:ACEAH         LINE#         280
  C:ACEAH         LINE#         281
  C:ACEAH         LINE#         282
  -------         ENDPROC       MOD_DPRX_PCRSTABLECHECK
  -------         PROC          MOD_DPRX_HPDLOWACTION
  C:A819H         LINE#         284
  C:A819H         LINE#         285
  C:A819H         LINE#         287
  C:A820H         LINE#         288
  C:A820H         LINE#         289
  C:A826H         LINE#         290
  C:A828H         LINE#         293
  C:A828H         LINE#         294
  C:A82EH         LINE#         295
  C:A82EH         LINE#         297
BL51 BANKED LINKER/LOCATER V6.22                                                      06/21/2023  15:37:55  PAGE 151


  C:A833H         LINE#         298
  -------         ENDPROC       MOD_DPRX_HPDLOWACTION
  -------         PROC          MOD_DPRX_HPDIRQ
  C:ABC6H         LINE#         301
  C:ABC6H         LINE#         302
  C:ABC6H         LINE#         303
  C:ABD1H         LINE#         304
  C:ABD1H         LINE#         305
  C:ABD4H         LINE#         306
  C:ABD4H         LINE#         309
  C:ABD4H         LINE#         310
  C:ABD7H         LINE#         311
  C:ABD7H         LINE#         313
  -------         ENDPROC       MOD_DPRX_HPDIRQ
  -------         PROC          MOD_DPRX_MSTHANDLER
  C:AEA4H         LINE#         315
  C:AEA4H         LINE#         316
  C:AEA4H         LINE#         323
  -------         ENDPROC       MOD_DPRX_MSTHANDLER
  -------         PROC          MOD_DPRX_COLORSPACE
  C:AE5CH         LINE#         325
  C:AE5CH         LINE#         326
  C:AE5CH         LINE#         327
  C:AE61H         LINE#         328
  -------         ENDPROC       MOD_DPRX_COLORSPACE
  -------         PROC          MOD_DPRX_COLORDEPTH
  C:AE62H         LINE#         330
  C:AE62H         LINE#         331
  C:AE62H         LINE#         332
  C:AE67H         LINE#         333
  -------         ENDPROC       MOD_DPRX_COLORDEPTH
  -------         PROC          _MOD_DPRX_SETSTATE
  D:0007H         SYMBOL        ucState
  -------         DO            
  X:04B2H         SYMBOL        ucLastState
  -------         ENDDO         
  C:9A4EH         LINE#         335
  C:9A4EH         LINE#         336
  C:9A4EH         LINE#         338
  C:9A56H         LINE#         339
  C:9A56H         LINE#         340
  C:9A5BH         LINE#         341
  C:9A60H         LINE#         342
  C:9A66H         LINE#         343
  C:9A76H         LINE#         346
  C:9A7DH         LINE#         347
  C:9A7DH         LINE#         348
  C:9A82H         LINE#         349
  C:9A82H         LINE#         352
  C:9A89H         LINE#         353
  C:9A89H         LINE#         354
  C:9A8EH         LINE#         355
  C:9A8EH         LINE#         356
  C:9A8EH         LINE#         357
  -------         ENDPROC       _MOD_DPRX_SETSTATE
  -------         PROC          MOD_DPRX_SOURCEDETPROC
  C:93C0H         LINE#         366
BL51 BANKED LINKER/LOCATER V6.22                                                      06/21/2023  15:37:55  PAGE 152


  C:93C0H         LINE#         367
  C:93C0H         LINE#         368
  C:93C9H         LINE#         369
  C:93C9H         LINE#         371
  C:93C9H         LINE#         373
  C:93D1H         LINE#         374
  C:93D1H         LINE#         376
  C:93D7H         LINE#         377
  C:93D7H         LINE#         378
  C:93E1H         LINE#         379
  C:93E6H         LINE#         380
  C:93E9H         LINE#         381
  C:93EEH         LINE#         382
  C:93F0H         LINE#         383
  C:93F0H         LINE#         385
  C:93F2H         LINE#         388
  C:93F2H         LINE#         390
  C:93F8H         LINE#         391
  C:93F8H         LINE#         392
  C:9403H         LINE#         393
  C:9409H         LINE#         394
  C:940DH         LINE#         395
  C:940DH         LINE#         396
  C:940DH         LINE#         397
  -------         ENDPROC       MOD_DPRX_SOURCEDETPROC
  -------         PROC          MOD_DPRX_AUDIOCHANNELUPDATA
  -------         DO            
  X:04B2H         SYMBOL        stAudioInfo
  -------         ENDDO         
  C:8A92H         LINE#         398
  C:8A92H         LINE#         399
  C:8A92H         LINE#         403
  C:8A9BH         LINE#         404
  C:8AA2H         LINE#         405
  C:8AA2H         LINE#         406
  C:8AA4H         LINE#         407
  C:8AA4H         LINE#         409
  C:8AD5H         LINE#         412
  C:8AD5H         LINE#         413
  C:8AD8H         LINE#         414
  C:8AD8H         LINE#         416
  C:8AE0H         LINE#         417
  C:8AE8H         LINE#         418
  C:8AF0H         LINE#         419
  C:8AF2H         LINE#         423
  -------         ENDPROC       MOD_DPRX_AUDIOCHANNELUPDATA
  -------         PROC          MOD_DPRX_STATEJUDGE
  -------         DO            
  X:04B1H         SYMBOL        ucMinState
  -------         ENDDO         
  C:56C8H         LINE#         425
  C:56C8H         LINE#         426
  C:56C8H         LINE#         427
  C:56CEH         LINE#         433
  C:56D7H         LINE#         434
  C:56D7H         LINE#         436
  C:56D7H         LINE#         439
BL51 BANKED LINKER/LOCATER V6.22                                                      06/21/2023  15:37:55  PAGE 153


  C:56E0H         LINE#         440
  C:56E0H         LINE#         441
  C:56E6H         LINE#         442
  C:56E6H         LINE#         443
  C:56E9H         LINE#         444
  C:56FCH         LINE#         445
  C:56FCH         LINE#         446
  C:56FCH         LINE#         449
  C:5705H         LINE#         450
  C:5705H         LINE#         451
  C:570BH         LINE#         452
  C:570BH         LINE#         453
  C:5716H         LINE#         454
  C:5729H         LINE#         455
  C:5729H         LINE#         456
  C:5729H         LINE#         470
  C:5732H         LINE#         471
  C:5732H         LINE#         473
  C:5738H         LINE#         474
  C:5738H         LINE#         475
  C:5743H         LINE#         476
  C:5756H         LINE#         477
  C:5756H         LINE#         478
  C:575CH         LINE#         479
  C:575CH         LINE#         480
  C:5767H         LINE#         481
  C:577AH         LINE#         482
  C:577AH         LINE#         483
  C:577AH         LINE#         499
  C:5783H         LINE#         500
  C:5783H         LINE#         501
  C:5789H         LINE#         502
  C:5789H         LINE#         503
  C:5793H         LINE#         504
  C:57A6H         LINE#         505
  C:57A6H         LINE#         506
  C:57A6H         LINE#         522
  C:57AFH         LINE#         523
  C:57AFH         LINE#         524
  C:57BBH         LINE#         525
  C:57BBH         LINE#         526
  C:57C6H         LINE#         527
  C:57CBH         LINE#         528
  C:57CBH         LINE#         529
  C:57CBH         LINE#         530
  C:57D3H         LINE#         531
  C:57D3H         LINE#         532
  C:57D6H         LINE#         533
  C:57D6H         LINE#         534
  -------         ENDPROC       MOD_DPRX_STATEJUDGE
  -------         PROC          MOD_DPRX_STATEHANDLER
  -------         DO            
  X:0602H         SYMBOL        ulCurrentTime
  -------         ENDDO         
  C:23FCH         LINE#         536
  C:23FCH         LINE#         537
  C:23FCH         LINE#         540
BL51 BANKED LINKER/LOCATER V6.22                                                      06/21/2023  15:37:55  PAGE 154


  C:2431H         LINE#         541
  C:2431H         LINE#         542
  C:2431H         LINE#         543
  C:2434H         LINE#         545
  C:2437H         LINE#         547
  C:243AH         LINE#         548
  C:243CH         LINE#         549
  C:243FH         LINE#         551
  C:243FH         LINE#         552
  C:2446H         LINE#         553
  C:2446H         LINE#         554
  C:244FH         LINE#         555
  C:2454H         LINE#         556
  C:2454H         LINE#         557
  C:246DH         LINE#         558
  C:246DH         LINE#         559
  C:2470H         LINE#         560
  C:2472H         LINE#         561
  C:2472H         LINE#         562
  C:2475H         LINE#         564
  C:2475H         LINE#         565
  C:2480H         LINE#         566
  C:2480H         LINE#         567
  C:2482H         LINE#         568
  C:2482H         LINE#         569
  C:2485H         LINE#         571
  C:2485H         LINE#         572
  C:2490H         LINE#         573
  C:2490H         LINE#         574
  C:2492H         LINE#         575
  C:2492H         LINE#         576
  C:2495H         LINE#         578
  C:2495H         LINE#         579
  C:249CH         LINE#         580
  C:249CH         LINE#         581
  C:24A5H         LINE#         582
  C:24AAH         LINE#         583
  C:24AFH         LINE#         584
  C:24AFH         LINE#         585
  C:24C8H         LINE#         586
  C:24C8H         LINE#         587
  C:24CBH         LINE#         588
  C:24CEH         LINE#         589
  C:24D1H         LINE#         590
  C:24D3H         LINE#         591
  C:24D3H         LINE#         592
  C:24D6H         LINE#         594
  C:24D6H         LINE#         595
  C:24E1H         LINE#         596
  C:24E1H         LINE#         612
  C:24E1H         LINE#         613
  C:24E3H         LINE#         614
  C:24E3H         LINE#         615
  C:24E3H         LINE#         616
  C:24E6H         LINE#         637
  C:24E6H         LINE#         638
  C:24EDH         LINE#         639
BL51 BANKED LINKER/LOCATER V6.22                                                      06/21/2023  15:37:55  PAGE 155


  C:24EDH         LINE#         640
  C:24F6H         LINE#         644
  C:24FBH         LINE#         645
  C:24FBH         LINE#         646
  C:251CH         LINE#         647
  C:251CH         LINE#         648
  C:2532H         LINE#         649
  C:2535H         LINE#         650
  C:2538H         LINE#         651
  C:253AH         LINE#         652
  C:253AH         LINE#         653
  C:253DH         LINE#         655
  C:253DH         LINE#         656
  C:254BH         LINE#         657
  C:254BH         LINE#         658
  C:2550H         LINE#         659
  C:2556H         LINE#         660
  C:2558H         LINE#         662
  C:2558H         LINE#         663
  C:255AH         LINE#         664
  C:255AH         LINE#         665
  C:255DH         LINE#         667
  C:255DH         LINE#         668
  C:2564H         LINE#         669
  C:2564H         LINE#         670
  C:2569H         LINE#         671
  C:256EH         LINE#         678
  C:2573H         LINE#         679
  C:257CH         LINE#         680
  C:257CH         LINE#         681
  C:2595H         LINE#         682
  C:2595H         LINE#         683
  C:259BH         LINE#         684
  C:259BH         LINE#         685
  C:25A4H         LINE#         686
  C:25A9H         LINE#         687
  C:25B4H         LINE#         688
  C:25B4H         LINE#         690
  C:25B4H         LINE#         691
  C:25B6H         LINE#         692
  C:25B6H         LINE#         693
  C:25B6H         LINE#         694
  C:25B9H         LINE#         696
  C:25B9H         LINE#         697
  C:25C0H         LINE#         698
  C:25C0H         LINE#         699
  C:25C5H         LINE#         700
  C:25C8H         LINE#         701
  C:25CEH         LINE#         702
  C:25D0H         LINE#         703
  C:25D2H         LINE#         704
  C:25D7H         LINE#         705
  C:25DDH         LINE#         706
  C:25E1H         LINE#         707
  C:25E5H         LINE#         708
  C:25E5H         LINE#         709
  C:25E8H         LINE#         710
BL51 BANKED LINKER/LOCATER V6.22                                                      06/21/2023  15:37:55  PAGE 156


  C:25F1H         LINE#         711
  C:25F1H         LINE#         712
  C:25F7H         LINE#         713
  C:25F7H         LINE#         722
  C:25F9H         LINE#         723
  C:25FCH         LINE#         725
  C:25FCH         LINE#         726
  C:2601H         LINE#         727
  C:2603H         LINE#         728
  C:2603H         LINE#         729
  C:2603H         LINE#         730
  C:2606H         LINE#         732
  C:2606H         LINE#         733
  C:260DH         LINE#         734
  C:260DH         LINE#         735
  C:2616H         LINE#         736
  C:261BH         LINE#         737
  C:261BH         LINE#         738
  C:262FH         LINE#         739
  C:262FH         LINE#         740
  C:2634H         LINE#         741
  C:2634H         LINE#         742
  C:264DH         LINE#         743
  C:264DH         LINE#         744
  C:2658H         LINE#         745
  C:2658H         LINE#         755
  C:265AH         LINE#         756
  C:265AH         LINE#         757
  C:265AH         LINE#         758
  C:265CH         LINE#         760
  C:265CH         LINE#         761
  C:2663H         LINE#         762
  C:2663H         LINE#         770
  C:2666H         LINE#         771
  C:266BH         LINE#         772
  C:2674H         LINE#         773
  C:2679H         LINE#         774
  C:2679H         LINE#         775
  C:268FH         LINE#         776
  C:268FH         LINE#         777
  C:2697H         LINE#         778
  C:2697H         LINE#         785
  C:2699H         LINE#         786
  C:2699H         LINE#         787
  C:2699H         LINE#         788
  C:269BH         LINE#         790
  C:269BH         LINE#         791
  C:26A2H         LINE#         792
  C:26A2H         LINE#         793
  C:26A7H         LINE#         794
  C:26ABH         LINE#         795
  C:26B4H         LINE#         796
  C:26B4H         LINE#         797
  C:26B6H         LINE#         798
  C:26B8H         LINE#         800
  C:26B8H         LINE#         801
  C:26BFH         LINE#         802
BL51 BANKED LINKER/LOCATER V6.22                                                      06/21/2023  15:37:55  PAGE 157


  C:26BFH         LINE#         803
  C:26C5H         LINE#         804
  C:26C7H         LINE#         805
  C:26D0H         LINE#         806
  C:26D5H         LINE#         807
  C:26D5H         LINE#         808
  C:26DAH         LINE#         809
  C:26DAH         LINE#         811
  C:26DAH         LINE#         812
  C:26DAH         LINE#         814
  C:26DAH         LINE#         815
  C:26DAH         LINE#         816
  C:26DAH         LINE#         817
  -------         ENDPROC       MOD_DPRX_STATEHANDLER
  -------         PROC          MOD_DPRX_HANDLER
  C:ADE5H         LINE#         819
  C:ADE5H         LINE#         820
  C:ADE5H         LINE#         821
  C:ADE8H         LINE#         822
  C:ADEBH         LINE#         823
  -------         ENDPROC       MOD_DPRX_HANDLER
  -------         ENDMOD        MODDPRX

  -------         MODULE        MODDPRXEQ
  C:0000H         SYMBOL        _ICE_DUMMY_
  C:537FH         PUBLIC        _?ix1000
  C:AE68H         PUBLIC        Mod_DpRx_EqSet
  C:10B4H         PUBLIC        Mod_DpRx_SoftEqSet
  D:00C8H         PUBLIC        T2CON
  C:6F62H         PUBLIC        Mod_DpRx_TrainingEqPrint
  C:536FH         PUBLIC        SzMainLink_Eq
  -------         PROC          MOD_DPRX_TRAININGEQPRINT
  C:6F62H         LINE#         21
  C:6F62H         LINE#         22
  C:6F62H         LINE#         23
  C:6F69H         LINE#         24
  C:6F74H         LINE#         25
  C:6F9EH         LINE#         26
  C:6FC8H         LINE#         27
  C:6FF2H         LINE#         28
  -------         ENDPROC       MOD_DPRX_TRAININGEQPRINT
  -------         PROC          MOD_DPRX_SOFTEQSET
  -------         DO            
  X:04B1H         SYMBOL        ucLoopCnt
  X:04B2H         SYMBOL        ucEq_ScanCnt
  X:04B3H         SYMBOL        ucEqOffset
  X:04B4H         SYMBOL        ucValid_Eq_Lane
  X:04B5H         SYMBOL        ucLoopDelayCnt
  X:04B6H         SYMBOL        ucLaneEqValue
  X:04BAH         SYMBOL        szErrCount_Lane
  X:04C2H         SYMBOL        szLane0Eq
  X:04C4H         SYMBOL        szLane1Eq
  X:04C6H         SYMBOL        szLane2Eq
  X:04C8H         SYMBOL        szLane3Eq
  -------         ENDDO         
  C:10B4H         LINE#         67
  C:10B4H         LINE#         68
BL51 BANKED LINKER/LOCATER V6.22                                                      06/21/2023  15:37:55  PAGE 158


  C:10B4H         LINE#         74
  C:10C7H         LINE#         76
  C:10D8H         LINE#         77
  C:10E8H         LINE#         78
  C:10F2H         LINE#         79
  C:10F7H         LINE#         80
  C:10FCH         LINE#         81
  C:10FCH         LINE#         82
  C:110EH         LINE#         83
  C:110EH         LINE#         84
  C:1125H         LINE#         85
  C:112EH         LINE#         86
  C:1132H         LINE#         87
  C:1136H         LINE#         88
  C:113AH         LINE#         89
  C:1141H         LINE#         90
  C:1144H         LINE#         91
  C:1149H         LINE#         92
  C:1157H         LINE#         93
  C:1157H         LINE#         94
  C:115EH         LINE#         95
  C:1175H         LINE#         96
  C:118AH         LINE#         97
  C:119FH         LINE#         98
  C:11B4H         LINE#         99
  C:11CBH         LINE#         100
  C:11CBH         LINE#         101
  C:11CDH         LINE#         102
  C:11CDH         LINE#         103
  C:11E1H         LINE#         104
  C:11E1H         LINE#         105
  C:11E3H         LINE#         106
  C:11E3H         LINE#         107
  C:120EH         LINE#         108
  C:120EH         LINE#         109
  C:120EH         LINE#         110
  C:120EH         LINE#         111
  C:120EH         LINE#         112
  C:1237H         LINE#         113
  C:1237H         LINE#         114
  C:1248H         LINE#         115
  C:1248H         LINE#         116
  C:126EH         LINE#         117
  C:126EH         LINE#         118
  C:127FH         LINE#         119
  C:127FH         LINE#         120
  C:12A5H         LINE#         121
  C:12A5H         LINE#         122
  C:12B6H         LINE#         123
  C:12B6H         LINE#         124
  C:12DDH         LINE#         125
  C:12DDH         LINE#         126
  C:12EEH         LINE#         127
  C:12EEH         LINE#         128
  C:1386H         LINE#         131
  C:1386H         LINE#         132
  C:13D5H         LINE#         133
BL51 BANKED LINKER/LOCATER V6.22                                                      06/21/2023  15:37:55  PAGE 159


  C:13D7H         LINE#         134
  C:13D7H         LINE#         135
  C:13E0H         LINE#         136
  C:13EDH         LINE#         137
  C:13EDH         LINE#         138
  C:13EDH         LINE#         139
  C:13EDH         LINE#         140
  C:13FCH         LINE#         142
  C:140EH         LINE#         143
  C:1421H         LINE#         144
  C:1421H         LINE#         145
  C:1421H         LINE#         146
  C:1432H         LINE#         147
  C:1432H         LINE#         148
  C:1457H         LINE#         149
  C:1457H         LINE#         150
  C:1468H         LINE#         151
  C:1468H         LINE#         152
  C:148DH         LINE#         153
  C:148DH         LINE#         154
  C:148DH         LINE#         155
  C:149EH         LINE#         156
  C:149EH         LINE#         157
  C:14C3H         LINE#         158
  C:14C3H         LINE#         159
  C:14C3H         LINE#         160
  C:14D4H         LINE#         161
  C:14D4H         LINE#         162
  C:14F9H         LINE#         163
  C:14F9H         LINE#         164
  C:14F9H         LINE#         165
  C:14F9H         LINE#         166
  C:14F9H         LINE#         167
  C:14F9H         LINE#         169
  C:1508H         LINE#         170
  C:1508H         LINE#         171
  C:1517H         LINE#         172
  C:1517H         LINE#         173
  C:151CH         LINE#         174
  C:151CH         LINE#         175
  C:1524H         LINE#         176
  C:1533H         LINE#         177
  C:1533H         LINE#         178
  C:1541H         LINE#         179
  C:1541H         LINE#         180
  C:1555H         LINE#         181
  C:1555H         LINE#         182
  C:155DH         LINE#         183
  C:156AH         LINE#         184
  C:1577H         LINE#         185
  C:1584H         LINE#         186
  C:1590H         LINE#         187
  -------         ENDPROC       MOD_DPRX_SOFTEQSET
  -------         PROC          MOD_DPRX_EQSET
  C:AE68H         LINE#         211
  C:AE68H         LINE#         212
  C:AE68H         LINE#         213
BL51 BANKED LINKER/LOCATER V6.22                                                      06/21/2023  15:37:55  PAGE 160


  C:AE6BH         LINE#         219
  -------         ENDPROC       MOD_DPRX_EQSET
  -------         ENDMOD        MODDPRXEQ

  -------         MODULE        MODDPRXMST
  C:0000H         SYMBOL        _ICE_DUMMY_
  D:00C8H         PUBLIC        T2CON
  -------         ENDMOD        MODDPRXMST

  -------         MODULE        MODDPTX
  C:0000H         SYMBOL        _ICE_DUMMY_
  D:00C8H         PUBLIC        T2CON
  -------         ENDMOD        MODDPTX

  -------         MODULE        MODDSCDEC
  C:0000H         SYMBOL        _ICE_DUMMY_
  D:00C8H         PUBLIC        T2CON
  -------         ENDMOD        MODDSCDEC

  -------         MODULE        MODDSCENC
  C:0000H         SYMBOL        _ICE_DUMMY_
  D:00C8H         PUBLIC        T2CON
  -------         ENDMOD        MODDSCENC

  -------         MODULE        MODFRLRX
  C:0000H         SYMBOL        _ICE_DUMMY_
  D:00C8H         PUBLIC        T2CON
  -------         ENDMOD        MODFRLRX

  -------         MODULE        MODFRLTRAIN
  C:0000H         SYMBOL        _ICE_DUMMY_
  C:5FC5H         PUBLIC        szFrlDeEmphasis
  C:5FE5H         PUBLIC        szFrlNormal
  C:A3B7H         PUBLIC        _Mod_FrlTx_SetState
  C:961FH         PUBLIC        _Mod_FrlTx_Lane0FfeAdjust
  C:8E92H         PUBLIC        _Mod_FrlTx_Lane1FfeAdjust
  C:86A1H         PUBLIC        Mod_FrlTx_FltReadyProc
  C:8F3FH         PUBLIC        _Mod_FrlTx_Lane2FfeAdjust
  C:8E3AH         PUBLIC        _Mod_FrlTx_Lane3FfeAdjust
  C:5DFCH         PUBLIC        _Mod_FrlTx_PreShoot
  C:A4D9H         PUBLIC        _Mod_FrlTx_DeEmphasisInitOut
  C:AE6EH         PUBLIC        Mod_FrlTx_Hdmi21EnGet
  C:6B9BH         PUBLIC        Mod_FrlTx_TrainingHdl
  X:0649H         PUBLIC        g_stFrlTxInfo
  C:65AFH         PUBLIC        Mod_FrlTx_TrainProcess
  C:AD44H         PUBLIC        Mod_FrlTx_lmTxPllProc
  C:5AF8H         PUBLIC        _Mod_FrlTx_DeEmphasis
  C:5BFFH         PUBLIC        _Mod_FrlTx_Normal
  C:8EE9H         PUBLIC        Mod_FrlTx_Noffe
  C:5FD5H         PUBLIC        szFrlPreShoot
  C:29B1H         PUBLIC        Mod_FrlTx_PatternProc
  C:6A08H         PUBLIC        Mod_FrlTx_FecErrorCheck
  C:9CBBH         PUBLIC        Mod_FrlTx_TrainFail
  C:A69FH         PUBLIC        Mod_FrlTx_VersionProc
  C:A9A1H         PUBLIC        Mod_FrlTx_ParamInit
  C:76EDH         PUBLIC        _Mod_FrlTx_DeEmphasisUpdateOut
  C:AD88H         PUBLIC        Mod_FrlTx_TxPllProc
BL51 BANKED LINKER/LOCATER V6.22                                                      06/21/2023  15:37:55  PAGE 161


  C:5FC1H         PUBLIC        szFrlNoFfe
  D:00C8H         PUBLIC        T2CON
  C:896AH         PUBLIC        Mod_FrlTx_TrainInit
  C:AB78H         PUBLIC        Mod_FrlTx_TxOutProc
  C:96FDH         PUBLIC        Mod_FrlTx_StartProc
  -------         PROC          MOD_FRLTX_NOFFE
  C:8EE9H         LINE#         52
  C:8EE9H         LINE#         53
  C:8EE9H         LINE#         54
  C:8EEFH         LINE#         55
  C:8EF3H         LINE#         57
  C:8F06H         LINE#         58
  C:8F19H         LINE#         59
  C:8F2CH         LINE#         60
  -------         ENDPROC       MOD_FRLTX_NOFFE
  -------         PROC          L?0184
  -------         ENDPROC       L?0184
  -------         PROC          _MOD_FRLTX_DEEMPHASIS
  X:04B9H         SYMBOL        ucFfeValue
  D:0004H         SYMBOL        ucOpt
  C:5AF8H         LINE#         63
  C:5AFDH         LINE#         64
  C:5AFDH         LINE#         65
  C:5B03H         LINE#         66
  C:5B07H         LINE#         68
  C:5B18H         LINE#         69
  C:5B18H         LINE#         70
  C:5B18H         LINE#         71
  C:5B2EH         LINE#         72
  C:5B31H         LINE#         73
  C:5B31H         LINE#         74
  C:5B47H         LINE#         75
  C:5B4AH         LINE#         76
  C:5B4AH         LINE#         77
  C:5B60H         LINE#         78
  C:5B63H         LINE#         79
  C:5B63H         LINE#         80
  C:5B79H         LINE#         81
  C:5B7BH         LINE#         82
  C:5B7BH         LINE#         83
  C:5B9AH         LINE#         84
  C:5BB9H         LINE#         85
  C:5BD8H         LINE#         86
  C:5BF7H         LINE#         87
  C:5BF7H         LINE#         88
  C:5BF7H         LINE#         90
  -------         ENDPROC       _MOD_FRLTX_DEEMPHASIS
  -------         PROC          _MOD_FRLTX_PRESHOOT
  X:04B9H         SYMBOL        ucFfeValue
  D:0005H         SYMBOL        ucOpt
  C:5DFCH         LINE#         92
  C:5E01H         LINE#         93
  C:5E01H         LINE#         94
  C:5E07H         LINE#         95
  C:5E0BH         LINE#         96
  C:5E19H         LINE#         97
  C:5E19H         LINE#         98
BL51 BANKED LINKER/LOCATER V6.22                                                      06/21/2023  15:37:55  PAGE 162


  C:5E19H         LINE#         99
  C:5E2FH         LINE#         100
  C:5E32H         LINE#         101
  C:5E32H         LINE#         102
  C:5E48H         LINE#         103
  C:5E4BH         LINE#         104
  C:5E4BH         LINE#         105
  C:5E61H         LINE#         106
  C:5E64H         LINE#         107
  C:5E64H         LINE#         108
  C:5E7AH         LINE#         109
  C:5E7CH         LINE#         110
  C:5E7CH         LINE#         111
  C:5E9BH         LINE#         112
  C:5EBAH         LINE#         113
  C:5ED9H         LINE#         114
  C:5EF8H         LINE#         115
  C:5EF8H         LINE#         116
  C:5EF8H         LINE#         117
  -------         ENDPROC       _MOD_FRLTX_PRESHOOT
  -------         PROC          L?0185
  -------         ENDPROC       L?0185
  -------         PROC          _MOD_FRLTX_NORMAL
  X:04B9H         SYMBOL        ucFfeValue
  D:0005H         SYMBOL        ucOpt
  C:5BFFH         LINE#         119
  C:5C04H         LINE#         120
  C:5C04H         LINE#         121
  C:5C0AH         LINE#         122
  C:5C0EH         LINE#         123
  C:5C1CH         LINE#         124
  C:5C1CH         LINE#         125
  C:5C1CH         LINE#         126
  C:5C32H         LINE#         127
  C:5C35H         LINE#         128
  C:5C35H         LINE#         129
  C:5C4BH         LINE#         130
  C:5C4EH         LINE#         131
  C:5C4EH         LINE#         132
  C:5C64H         LINE#         133
  C:5C67H         LINE#         134
  C:5C67H         LINE#         135
  C:5C7DH         LINE#         136
  C:5C7FH         LINE#         137
  C:5C7FH         LINE#         138
  C:5C9EH         LINE#         139
  C:5CBDH         LINE#         140
  C:5CDCH         LINE#         141
  C:5CFBH         LINE#         142
  C:5CFBH         LINE#         143
  C:5CFBH         LINE#         144
  -------         ENDPROC       _MOD_FRLTX_NORMAL
  -------         PROC          _MOD_FRLTX_DEEMPHASISUPDATEOUT
  D:0007H         SYMBOL        ucConfig
  -------         DO            
  X:0648H         SYMBOL        ucConfig_Old
  X:04B8H         SYMBOL        ucConfig_New
BL51 BANKED LINKER/LOCATER V6.22                                                      06/21/2023  15:37:55  PAGE 163


  -------         ENDDO         
  C:76EDH         LINE#         145
  C:76EDH         LINE#         146
  C:76EDH         LINE#         149
  C:76F3H         LINE#         150
  C:76FDH         LINE#         151
  C:76FDH         LINE#         152
  C:770AH         LINE#         153
  C:770AH         LINE#         154
  C:770AH         LINE#         155
  C:770DH         LINE#         156
  C:7710H         LINE#         157
  C:7710H         LINE#         158
  C:771BH         LINE#         159
  C:7723H         LINE#         160
  C:772BH         LINE#         161
  C:7737H         LINE#         162
  C:7739H         LINE#         163
  C:7739H         LINE#         164
  C:7743H         LINE#         165
  C:774DH         LINE#         166
  C:7757H         LINE#         167
  C:7761H         LINE#         168
  C:7763H         LINE#         169
  C:7763H         LINE#         170
  C:7766H         LINE#         171
  C:7770H         LINE#         172
  C:777AH         LINE#         173
  C:7784H         LINE#         174
  C:7784H         LINE#         175
  C:7784H         LINE#         176
  C:7784H         LINE#         177
  C:778CH         LINE#         178
  -------         ENDPROC       _MOD_FRLTX_DEEMPHASISUPDATEOUT
  -------         PROC          _MOD_FRLTX_DEEMPHASISINITOUT
  D:0007H         SYMBOL        ucConfig
  C:A4D9H         LINE#         180
  C:A4D9H         LINE#         181
  C:A4D9H         LINE#         182
  C:A4E6H         LINE#         183
  C:A4E6H         LINE#         184
  C:A4E6H         LINE#         185
  C:A4E9H         LINE#         186
  C:A4E9H         LINE#         187
  C:A4E9H         LINE#         188
  C:A4F2H         LINE#         189
  C:A4F2H         LINE#         190
  C:A4F2H         LINE#         191
  C:A4F9H         LINE#         192
  C:A4F9H         LINE#         193
  C:A4F9H         LINE#         194
  C:A500H         LINE#         195
  C:A500H         LINE#         196
  C:A500H         LINE#         197
  -------         ENDPROC       _MOD_FRLTX_DEEMPHASISINITOUT
  -------         PROC          _MOD_FRLTX_LANE0FFEADJUST
  D:0004H         SYMBOL        ucConfig
BL51 BANKED LINKER/LOCATER V6.22                                                      06/21/2023  15:37:55  PAGE 164


  C:961FH         LINE#         201
  C:9621H         LINE#         202
  C:9621H         LINE#         203
  C:9627H         LINE#         204
  C:962DH         LINE#         205
  C:962DH         LINE#         206
  C:962FH         LINE#         207
  C:962FH         LINE#         208
  C:9637H         LINE#         209
  C:9640H         LINE#         211
  C:964DH         LINE#         212
  C:964DH         LINE#         213
  C:964DH         LINE#         214
  C:9650H         LINE#         215
  C:9650H         LINE#         216
  C:9650H         LINE#         217
  C:965BH         LINE#         218
  C:965BH         LINE#         219
  C:965BH         LINE#         220
  C:9665H         LINE#         221
  C:9665H         LINE#         222
  C:9665H         LINE#         223
  C:9668H         LINE#         224
  C:9668H         LINE#         225
  C:9668H         LINE#         229
  -------         ENDPROC       _MOD_FRLTX_LANE0FFEADJUST
  -------         PROC          _MOD_FRLTX_LANE1FFEADJUST
  D:0004H         SYMBOL        ucConfig
  C:8E92H         LINE#         231
  C:8E94H         LINE#         232
  C:8E94H         LINE#         233
  C:8E9AH         LINE#         234
  C:8EA0H         LINE#         235
  C:8EA0H         LINE#         236
  C:8EA2H         LINE#         237
  C:8EA2H         LINE#         238
  C:8EAAH         LINE#         239
  C:8EB8H         LINE#         242
  C:8EC5H         LINE#         243
  C:8EC5H         LINE#         244
  C:8EC5H         LINE#         245
  C:8EC8H         LINE#         246
  C:8EC8H         LINE#         247
  C:8EC8H         LINE#         248
  C:8ED4H         LINE#         249
  C:8ED4H         LINE#         250
  C:8ED4H         LINE#         251
  C:8EDEH         LINE#         252
  C:8EDEH         LINE#         253
  C:8EDEH         LINE#         254
  C:8EE8H         LINE#         255
  C:8EE8H         LINE#         256
  C:8EE8H         LINE#         260
  -------         ENDPROC       _MOD_FRLTX_LANE1FFEADJUST
  -------         PROC          _MOD_FRLTX_LANE2FFEADJUST
  D:0004H         SYMBOL        ucConfig
  C:8F3FH         LINE#         262
BL51 BANKED LINKER/LOCATER V6.22                                                      06/21/2023  15:37:55  PAGE 165


  C:8F41H         LINE#         263
  C:8F41H         LINE#         264
  C:8F47H         LINE#         265
  C:8F4DH         LINE#         266
  C:8F4DH         LINE#         267
  C:8F4FH         LINE#         268
  C:8F4FH         LINE#         269
  C:8F57H         LINE#         270
  C:8F64H         LINE#         273
  C:8F71H         LINE#         274
  C:8F71H         LINE#         275
  C:8F71H         LINE#         276
  C:8F74H         LINE#         277
  C:8F74H         LINE#         278
  C:8F74H         LINE#         279
  C:8F80H         LINE#         280
  C:8F80H         LINE#         281
  C:8F80H         LINE#         282
  C:8F8AH         LINE#         283
  C:8F8AH         LINE#         284
  C:8F8AH         LINE#         285
  C:8F94H         LINE#         286
  C:8F94H         LINE#         287
  C:8F94H         LINE#         291
  -------         ENDPROC       _MOD_FRLTX_LANE2FFEADJUST
  -------         PROC          _MOD_FRLTX_LANE3FFEADJUST
  D:0004H         SYMBOL        ucConfig
  C:8E3AH         LINE#         293
  C:8E3CH         LINE#         294
  C:8E3CH         LINE#         295
  C:8E42H         LINE#         296
  C:8E48H         LINE#         297
  C:8E48H         LINE#         298
  C:8E4AH         LINE#         299
  C:8E4AH         LINE#         300
  C:8E52H         LINE#         301
  C:8E61H         LINE#         304
  C:8E6EH         LINE#         305
  C:8E6EH         LINE#         306
  C:8E6EH         LINE#         307
  C:8E71H         LINE#         308
  C:8E71H         LINE#         309
  C:8E71H         LINE#         310
  C:8E7DH         LINE#         311
  C:8E7DH         LINE#         312
  C:8E7DH         LINE#         313
  C:8E87H         LINE#         314
  C:8E87H         LINE#         315
  C:8E87H         LINE#         316
  C:8E91H         LINE#         317
  C:8E91H         LINE#         318
  C:8E91H         LINE#         322
  -------         ENDPROC       _MOD_FRLTX_LANE3FFEADJUST
  -------         PROC          MOD_FRLTX_TRAININIT
  C:896AH         LINE#         326
  C:896AH         LINE#         327
  C:896AH         LINE#         328
BL51 BANKED LINKER/LOCATER V6.22                                                      06/21/2023  15:37:55  PAGE 166


  C:8979H         LINE#         330
  C:8981H         LINE#         343
  C:8991H         LINE#         344
  C:8994H         LINE#         345
  C:8998H         LINE#         346
  C:8999H         LINE#         347
  C:89A0H         LINE#         349
  C:89A7H         LINE#         350
  C:89ACH         LINE#         352
  C:89B0H         LINE#         353
  C:89B7H         LINE#         354
  C:89BAH         LINE#         355
  C:89BFH         LINE#         356
  C:89CAH         LINE#         357
  C:89CCH         LINE#         358
  -------         ENDPROC       MOD_FRLTX_TRAININIT
  -------         PROC          MOD_FRLTX_VERSIONPROC
  C:A69FH         LINE#         360
  C:A69FH         LINE#         361
  C:A69FH         LINE#         362
  C:A6A9H         LINE#         363
  C:A6A9H         LINE#         364
  C:A6B2H         LINE#         365
  C:A6BDH         LINE#         366
  C:A6C0H         LINE#         367
  C:A6C0H         LINE#         369
  C:A6C0H         LINE#         370
  C:A6C2H         LINE#         371
  C:A6C2H         LINE#         372
  -------         ENDPROC       MOD_FRLTX_VERSIONPROC
  -------         PROC          MOD_FRLTX_FLTREADYPROC
  -------         DO            
  D:0007H         SYMBOL        ucTemp
  -------         ENDDO         
  C:86A1H         LINE#         374
  C:86A1H         LINE#         375
  C:86A1H         LINE#         377
  C:86A8H         LINE#         378
  C:86ACH         LINE#         379
  C:86ACH         LINE#         380
  C:86B4H         LINE#         381
  C:86BFH         LINE#         382
  C:86C6H         LINE#         383
  C:86CBH         LINE#         384
  C:86CFH         LINE#         385
  C:86D3H         LINE#         386
  C:86DAH         LINE#         388
  C:86DBH         LINE#         389
  C:86E3H         LINE#         390
  C:86E7H         LINE#         391
  C:86EFH         LINE#         392
  C:8702H         LINE#         393
  C:8705H         LINE#         394
  C:8705H         LINE#         396
  C:8705H         LINE#         397
  C:8707H         LINE#         398
  C:8707H         LINE#         399
BL51 BANKED LINKER/LOCATER V6.22                                                      06/21/2023  15:37:55  PAGE 167


  -------         ENDPROC       MOD_FRLTX_FLTREADYPROC
  -------         PROC          MOD_FRLTX_TXPLLPROC
  C:AD88H         LINE#         401
  C:AD88H         LINE#         402
  C:AD88H         LINE#         403
  C:AD90H         LINE#         404
  C:AD92H         LINE#         405
  -------         ENDPROC       MOD_FRLTX_TXPLLPROC
  -------         PROC          MOD_FRLTX_TXOUTPROC
  C:AB78H         LINE#         407
  C:AB78H         LINE#         408
  C:AB78H         LINE#         409
  C:AB81H         LINE#         410
  C:AB89H         LINE#         411
  C:AB8BH         LINE#         412
  -------         ENDPROC       MOD_FRLTX_TXOUTPROC
  -------         PROC          MOD_FRLTX_LMTXPLLPROC
  C:AD44H         LINE#         414
  C:AD44H         LINE#         415
  C:AD44H         LINE#         416
  C:AD4DH         LINE#         417
  C:AD4FH         LINE#         418
  -------         ENDPROC       MOD_FRLTX_LMTXPLLPROC
  -------         PROC          MOD_FRLTX_PATTERNPROC
  -------         DO            
  X:04B4H         SYMBOL        ucTemp
  X:04B5H         SYMBOL        ucTestConfig
  D:0007H         SYMBOL        ucUpdateFlag
  X:04B6H         SYMBOL        ucA841
  X:04B7H         SYMBOL        ucA842
  -------         ENDDO         
  C:29B1H         LINE#         428
  C:29B1H         LINE#         429
  C:29B1H         LINE#         434
  C:29B8H         LINE#         435
  C:29BEH         LINE#         436
  C:29CAH         LINE#         437
  C:29D8H         LINE#         438
  C:29DFH         LINE#         439
  C:29E6H         LINE#         440
  C:29E6H         LINE#         441
  C:29F9H         LINE#         443
  C:29FDH         LINE#         444
  C:29FDH         LINE#         445
  C:2A07H         LINE#         446
  C:2A07H         LINE#         448
  C:2A13H         LINE#         449
  C:2A1FH         LINE#         450
  C:2A35H         LINE#         451
  C:2A3FH         LINE#         452
  C:2A3FH         LINE#         453
  C:2A42H         LINE#         454
  C:2A44H         LINE#         456
  C:2A44H         LINE#         457
  C:2A47H         LINE#         458
  C:2A4EH         LINE#         459
  C:2A4EH         LINE#         460
BL51 BANKED LINKER/LOCATER V6.22                                                      06/21/2023  15:37:55  PAGE 168


  C:2A70H         LINE#         461
  C:2A70H         LINE#         462
  C:2A78H         LINE#         463
  C:2A78H         LINE#         464
  C:2A9EH         LINE#         465
  C:2A9EH         LINE#         466
  C:2AA6H         LINE#         467
  C:2AA6H         LINE#         468
  C:2AADH         LINE#         469
  C:2AB4H         LINE#         470
  C:2ABBH         LINE#         473
  C:2AC5H         LINE#         474
  C:2AC5H         LINE#         475
  C:2ACCH         LINE#         476
  C:2AD2H         LINE#         477
  C:2ADEH         LINE#         478
  C:2AE1H         LINE#         479
  C:2AE1H         LINE#         480
  C:2AEAH         LINE#         481
  C:2AEAH         LINE#         482
  C:2AEDH         LINE#         483
  C:2AEDH         LINE#         485
  C:2B19H         LINE#         486
  C:2B19H         LINE#         487
  C:2B28H         LINE#         488
  C:2B2DH         LINE#         489
  C:2B33H         LINE#         490
  C:2B39H         LINE#         491
  C:2B39H         LINE#         492
  C:2B3FH         LINE#         493
  C:2B47H         LINE#         494
  C:2B53H         LINE#         495
  C:2B64H         LINE#         496
  C:2B67H         LINE#         497
  C:2B6BH         LINE#         498
  C:2B73H         LINE#         499
  C:2B7CH         LINE#         500
  C:2B83H         LINE#         501
  C:2B8FH         LINE#         502
  C:2B92H         LINE#         503
  C:2B92H         LINE#         504
  C:2B9BH         LINE#         505
  C:2B9BH         LINE#         506
  C:2B9EH         LINE#         507
  C:2B9EH         LINE#         509
  C:2B9EH         LINE#         510
  C:2BA9H         LINE#         511
  C:2BB5H         LINE#         512
  C:2BB8H         LINE#         513
  C:2BB8H         LINE#         514
  C:2BC1H         LINE#         515
  C:2BC1H         LINE#         516
  C:2BC4H         LINE#         517
  C:2BC4H         LINE#         518
  C:2BC4H         LINE#         520
  C:2BC4H         LINE#         521
  C:2BCEH         LINE#         522
BL51 BANKED LINKER/LOCATER V6.22                                                      06/21/2023  15:37:55  PAGE 169


  C:2BCEH         LINE#         523
  C:2BD8H         LINE#         524
  C:2BD8H         LINE#         525
  C:2BE2H         LINE#         526
  C:2BE2H         LINE#         527
  C:2BECH         LINE#         528
  C:2BECH         LINE#         529
  C:2BF6H         LINE#         530
  C:2BF6H         LINE#         531
  C:2C00H         LINE#         532
  C:2C00H         LINE#         533
  C:2C11H         LINE#         534
  C:2C11H         LINE#         535
  C:2C1BH         LINE#         536
  C:2C1BH         LINE#         537
  C:2C27H         LINE#         538
  C:2C2AH         LINE#         539
  C:2C2AH         LINE#         540
  C:2C33H         LINE#         541
  C:2C33H         LINE#         542
  C:2C36H         LINE#         543
  C:2C36H         LINE#         544
  C:2C36H         LINE#         546
  C:2C36H         LINE#         548
  C:2C3DH         LINE#         549
  C:2C3DH         LINE#         550
  C:2C47H         LINE#         551
  C:2C47H         LINE#         553
  C:2C47H         LINE#         554
  C:2C49H         LINE#         555
  -------         ENDPROC       MOD_FRLTX_PATTERNPROC
  -------         PROC          MOD_FRLTX_STARTPROC
  -------         DO            
  X:04B4H         SYMBOL        ucTemp
  -------         ENDDO         
  C:96FDH         LINE#         557
  C:96FDH         LINE#         558
  C:96FDH         LINE#         560
  C:9704H         LINE#         561
  C:9710H         LINE#         562
  C:9713H         LINE#         563
  C:9713H         LINE#         564
  C:971AH         LINE#         565
  C:971DH         LINE#         566
  C:9724H         LINE#         567
  C:9729H         LINE#         568
  C:9735H         LINE#         569
  C:9740H         LINE#         570
  C:9743H         LINE#         571
  C:9743H         LINE#         573
  C:9743H         LINE#         574
  C:9745H         LINE#         575
  C:9745H         LINE#         576
  -------         ENDPROC       MOD_FRLTX_STARTPROC
  -------         PROC          MOD_FRLTX_FECERRORCHECK
  -------         DO            
  X:04B4H         SYMBOL        ucTemp
BL51 BANKED LINKER/LOCATER V6.22                                                      06/21/2023  15:37:55  PAGE 170


  X:04B5H         SYMBOL        ucStatus
  X:04B6H         SYMBOL        ucErr0
  X:04B7H         SYMBOL        ucErr1
  X:04B8H         SYMBOL        ucChannelErr
  -------         ENDDO         
  C:6A08H         LINE#         578
  C:6A08H         LINE#         579
  C:6A08H         LINE#         582
  C:6A0FH         LINE#         584
  C:6A1BH         LINE#         585
  C:6A1EH         LINE#         586
  C:6A1EH         LINE#         587
  C:6A2AH         LINE#         588
  C:6A2AH         LINE#         589
  C:6A31H         LINE#         590
  C:6A31H         LINE#         591
  C:6A40H         LINE#         592
  C:6A55H         LINE#         593
  C:6A55H         LINE#         594
  C:6A5CH         LINE#         595
  C:6A5CH         LINE#         596
  C:6A68H         LINE#         597
  C:6A74H         LINE#         598
  C:6A91H         LINE#         599
  C:6A91H         LINE#         600
  C:6AA0H         LINE#         601
  C:6AA0H         LINE#         602
  C:6AA3H         LINE#         603
  C:6AA3H         LINE#         604
  C:6AA3H         LINE#         605
  C:6AA3H         LINE#         606
  C:6AAAH         LINE#         607
  C:6AB6H         LINE#         608
  C:6AC5H         LINE#         609
  C:6AC5H         LINE#         610
  C:6ACCH         LINE#         611
  C:6ACFH         LINE#         612
  C:6ACFH         LINE#         613
  C:6AD1H         LINE#         614
  -------         ENDPROC       MOD_FRLTX_FECERRORCHECK
  -------         PROC          _MOD_FRLTX_SETSTATE
  D:0007H         SYMBOL        ucState
  -------         DO            
  D:0006H         SYMBOL        ucLastState
  -------         ENDDO         
  C:A3B7H         LINE#         617
  C:A3B7H         LINE#         618
  C:A3B7H         LINE#         620
  C:A3BFH         LINE#         621
  C:A3BFH         LINE#         622
  C:A3BFH         LINE#         623
  C:A3C1H         LINE#         624
  C:A3C8H         LINE#         626
  C:A3CFH         LINE#         627
  C:A3CFH         LINE#         628
  C:A3D6H         LINE#         633
  C:A3D6H         LINE#         635
BL51 BANKED LINKER/LOCATER V6.22                                                      06/21/2023  15:37:55  PAGE 171


  C:A3DAH         LINE#         636
  C:A3DAH         LINE#         637
  C:A3E1H         LINE#         641
  C:A3E1H         LINE#         643
  C:A3E1H         LINE#         644
  -------         ENDPROC       _MOD_FRLTX_SETSTATE
  -------         PROC          MOD_FRLTX_TRAINPROCESS
  -------         DO            
  X:04B3H         SYMBOL        ucResult
  -------         ENDDO         
  C:65AFH         LINE#         645
  C:65AFH         LINE#         646
  C:65AFH         LINE#         648
  C:65D8H         LINE#         649
  C:65D8H         LINE#         650
  C:65D8H         LINE#         651
  C:65E0H         LINE#         652
  C:65E7H         LINE#         653
  C:65E7H         LINE#         654
  C:65E9H         LINE#         655
  C:65E9H         LINE#         656
  C:65ECH         LINE#         657
  C:65ECH         LINE#         658
  C:65F4H         LINE#         659
  C:65FBH         LINE#         660
  C:65FBH         LINE#         661
  C:65FDH         LINE#         662
  C:65FDH         LINE#         663
  C:6600H         LINE#         664
  C:6600H         LINE#         665
  C:6608H         LINE#         666
  C:660FH         LINE#         667
  C:660FH         LINE#         668
  C:6611H         LINE#         669
  C:6611H         LINE#         670
  C:6613H         LINE#         672
  C:6613H         LINE#         673
  C:661BH         LINE#         674
  C:661FH         LINE#         675
  C:661FH         LINE#         676
  C:6621H         LINE#         677
  C:6621H         LINE#         678
  C:6623H         LINE#         679
  C:6623H         LINE#         680
  C:662BH         LINE#         681
  C:662FH         LINE#         682
  C:662FH         LINE#         683
  C:6631H         LINE#         684
  C:6631H         LINE#         685
  C:6633H         LINE#         686
  C:6633H         LINE#         687
  C:663BH         LINE#         688
  C:663FH         LINE#         689
  C:663FH         LINE#         690
  C:6641H         LINE#         691
  C:6641H         LINE#         692
  C:6643H         LINE#         693
BL51 BANKED LINKER/LOCATER V6.22                                                      06/21/2023  15:37:55  PAGE 172


  C:6643H         LINE#         694
  C:664BH         LINE#         695
  C:664EH         LINE#         696
  C:664EH         LINE#         697
  C:6650H         LINE#         698
  C:6652H         LINE#         699
  C:665AH         LINE#         700
  C:665AH         LINE#         701
  C:665CH         LINE#         702
  C:665CH         LINE#         703
  C:665EH         LINE#         705
  C:665EH         LINE#         706
  C:6666H         LINE#         707
  C:666AH         LINE#         708
  C:666AH         LINE#         709
  C:666CH         LINE#         710
  C:666CH         LINE#         711
  C:666EH         LINE#         712
  C:666EH         LINE#         713
  C:6676H         LINE#         714
  C:6679H         LINE#         715
  C:6679H         LINE#         716
  C:667BH         LINE#         717
  C:667DH         LINE#         718
  C:6684H         LINE#         719
  C:6684H         LINE#         720
  C:6689H         LINE#         721
  C:6689H         LINE#         722
  C:668BH         LINE#         723
  C:668BH         LINE#         724
  C:6691H         LINE#         725
  C:6693H         LINE#         726
  C:6693H         LINE#         727
  C:6698H         LINE#         728
  C:6698H         LINE#         729
  C:6698H         LINE#         730
  C:669DH         LINE#         731
  -------         ENDPROC       MOD_FRLTX_TRAINPROCESS
  -------         PROC          MOD_FRLTX_TRAININGHDL
  -------         DO            
  X:04B2H         SYMBOL        ucResult
  -------         ENDDO         
  C:6B9BH         LINE#         733
  C:6B9BH         LINE#         734
  C:6B9BH         LINE#         736
  C:6BA3H         LINE#         737
  C:6BA3H         LINE#         738
  C:6BA6H         LINE#         739
  C:6BA6H         LINE#         740
  C:6BAEH         LINE#         741
  C:6BB1H         LINE#         742
  C:6BB1H         LINE#         743
  C:6BB8H         LINE#         744
  C:6BBDH         LINE#         745
  C:6BC8H         LINE#         746
  C:6BCBH         LINE#         747
  C:6BCBH         LINE#         748
BL51 BANKED LINKER/LOCATER V6.22                                                      06/21/2023  15:37:55  PAGE 173


  C:6BDAH         LINE#         749
  C:6BDAH         LINE#         750
  C:6BE8H         LINE#         751
  C:6BE8H         LINE#         752
  C:6BEBH         LINE#         753
  C:6BF6H         LINE#         754
  C:6BF6H         LINE#         755
  C:6C04H         LINE#         756
  C:6C04H         LINE#         757
  C:6C07H         LINE#         758
  C:6C12H         LINE#         759
  C:6C12H         LINE#         760
  C:6C26H         LINE#         761
  C:6C26H         LINE#         762
  C:6C29H         LINE#         763
  C:6C34H         LINE#         764
  C:6C34H         LINE#         765
  C:6C34H         LINE#         766
  C:6C47H         LINE#         767
  C:6C47H         LINE#         768
  C:6C4AH         LINE#         769
  C:6C55H         LINE#         770
  C:6C55H         LINE#         771
  C:6C5FH         LINE#         772
  C:6C61H         LINE#         773
  -------         ENDPROC       MOD_FRLTX_TRAININGHDL
  -------         PROC          MOD_FRLTX_PARAMINIT
  C:A9A1H         LINE#         775
  C:A9A1H         LINE#         776
  C:A9A1H         LINE#         777
  C:A9A8H         LINE#         778
  C:A9A8H         LINE#         780
  C:A9A8H         LINE#         781
  C:A9B7H         LINE#         782
  C:A9BDH         LINE#         783
  -------         ENDPROC       MOD_FRLTX_PARAMINIT
  -------         PROC          MOD_FRLTX_TRAINFAIL
  C:9CBBH         LINE#         786
  C:9CBBH         LINE#         787
  C:9CBBH         LINE#         789
  C:9CC0H         LINE#         790
  C:9CC4H         LINE#         791
  C:9CC8H         LINE#         792
  C:9CCCH         LINE#         793
  C:9CD3H         LINE#         795
  C:9CDAH         LINE#         796
  C:9CE1H         LINE#         797
  C:9CEAH         LINE#         798
  C:9CEDH         LINE#         799
  C:9CF2H         LINE#         800
  C:9CF6H         LINE#         802
  -------         ENDPROC       MOD_FRLTX_TRAINFAIL
  -------         PROC          MOD_FRLTX_HDMI21ENGET
  C:AE6EH         LINE#         804
  C:AE6EH         LINE#         805
  C:AE6EH         LINE#         807
  C:AE73H         LINE#         811
BL51 BANKED LINKER/LOCATER V6.22                                                      06/21/2023  15:37:55  PAGE 174


  -------         ENDPROC       MOD_FRLTX_HDMI21ENGET
  -------         ENDMOD        MODFRLTRAIN

  -------         MODULE        MODHDMIEDID
  C:0000H         SYMBOL        _ICE_DUMMY_
  C:58E4H         PUBLIC        _Mod_DisPlayIDBlock_Update
  C:AE74H         PUBLIC        Mod_Edid_ModeDet
  C:ABEAH         PUBLIC        _Mod_HdmiEdid_DisplayIdBlockAnalysis
  C:7F26H         PUBLIC        _Mod_Edid_DpModePrint
  C:34BAH         PUBLIC        _Mod_HdmiEdid_Analysis
  C:30DCH         PUBLIC        szEdidDefault
  C:0B95H         PUBLIC        _Mod_HdmiEdid_CtaBlockAnalysis
  X:0297H         PUBLIC        g_stHdmiEdidInfo
  C:A895H         PUBLIC        Mod_Edid_Update
  C:55B4H         PUBLIC        _Mod_HdmiEdid_Update
  C:ABD8H         PUBLIC        _Mod_HdmiEdid_Block0Analysis
  C:9AD0H         PUBLIC        _Mod_Check_DisIdSum
  C:4064H         PUBLIC        _Mod_CtaBlock_Update
  X:02B1H         PUBLIC        szEdidData
  C:701CH         PUBLIC        _Mod_Block0_Update
  D:00C8H         PUBLIC        T2CON
  C:ACB0H         PUBLIC        Mod_HdmiEdid_Init
  C:A115H         PUBLIC        _Mod_Check_Sum
  -------         PROC          _MOD_CHECK_SUM
  X:04B8H         SYMBOL        pucEDID_Data
  -------         DO            
  D:0007H         SYMBOL        ucCheckSum
  D:0006H         SYMBOL        ucloop
  -------         ENDDO         
  C:A115H         LINE#         36
  C:A11BH         LINE#         37
  C:A11BH         LINE#         38
  C:A11DH         LINE#         40
  C:A11EH         LINE#         41
  C:A11EH         LINE#         42
  C:A12EH         LINE#         43
  C:A133H         LINE#         44
  -------         ENDPROC       _MOD_CHECK_SUM
  -------         PROC          _MOD_CHECK_DISIDSUM
  X:04B8H         SYMBOL        pucEDID_Data
  -------         DO            
  D:0007H         SYMBOL        ucCheckSum
  D:0006H         SYMBOL        ucCheckSumLocation
  D:0005H         SYMBOL        ucloop
  -------         ENDDO         
  C:9AD0H         LINE#         47
  C:9AD6H         LINE#         48
  C:9AD6H         LINE#         49
  C:9AD8H         LINE#         52
  C:9AE1H         LINE#         53
  C:9AE8H         LINE#         54
  C:9AE8H         LINE#         55
  C:9AF8H         LINE#         56
  C:9AFBH         LINE#         57
  -------         ENDPROC       _MOD_CHECK_DISIDSUM
  -------         PROC          MOD_HDMIEDID_INIT
  C:ACB0H         LINE#         60
BL51 BANKED LINKER/LOCATER V6.22                                                      06/21/2023  15:37:55  PAGE 175


  C:ACB0H         LINE#         61
  C:ACB0H         LINE#         62
  -------         ENDPROC       MOD_HDMIEDID_INIT
  -------         PROC          _MOD_HDMIEDID_BLOCK0ANALYSIS
  X:04BAH         SYMBOL        pucEDID_Data
  C:ABD8H         LINE#         65
  C:ABDEH         LINE#         66
  C:ABDEH         LINE#         67
  -------         ENDPROC       _MOD_HDMIEDID_BLOCK0ANALYSIS
  -------         PROC          _MOD_HDMIEDID_DISPLAYIDBLOCKANALYSIS
  X:04BAH         SYMBOL        pucEDID_Data
  C:ABEAH         LINE#         70
  C:ABF0H         LINE#         71
  C:ABF0H         LINE#         72
  -------         ENDPROC       _MOD_HDMIEDID_DISPLAYIDBLOCKANALYSIS
  -------         PROC          _MOD_HDMIEDID_CTABLOCKANALYSIS
  X:04BAH         SYMBOL        pucEDID_Data
  -------         DO            
  X:04BDH         SYMBOL        ucLoop_edid
  X:04BEH         SYMBOL        ucLoop_Offset
  X:04BFH         SYMBOL        ucLoop_x
  -------         ENDDO         
  C:0B95H         LINE#         75
  C:0B9BH         LINE#         76
  C:0B9BH         LINE#         82
  C:0BA1H         LINE#         83
  C:0BA6H         LINE#         84
  C:0BB6H         LINE#         85
  C:0BB6H         LINE#         86
  C:0BBCH         LINE#         87
  C:0BBCH         LINE#         88
  C:0BDBH         LINE#         89
  C:0BDBH         LINE#         90
  C:0BECH         LINE#         91
  C:0BF1H         LINE#         92
  C:0C10H         LINE#         93
  C:0C10H         LINE#         94
  C:0C10H         LINE#         95
  C:0C35H         LINE#         96
  C:0C35H         LINE#         97
  C:0C52H         LINE#         98
  C:0C52H         LINE#         99
  C:0C5CH         LINE#         100
  C:0C6EH         LINE#         101
  C:0C6EH         LINE#         102
  C:0C82H         LINE#         103
  C:0C82H         LINE#         104
  C:0C82H         LINE#         105
  C:0C8BH         LINE#         106
  C:0C8BH         LINE#         107
  C:0C8BH         LINE#         108
  C:0CB0H         LINE#         109
  C:0CB0H         LINE#         110
  C:0CD0H         LINE#         111
  C:0CD0H         LINE#         112
  C:0CDFH         LINE#         113
  C:0CDFH         LINE#         114
BL51 BANKED LINKER/LOCATER V6.22                                                      06/21/2023  15:37:55  PAGE 176


  C:0CE7H         LINE#         115
  C:0CE7H         LINE#         116
  C:0CE7H         LINE#         117
  C:0D36H         LINE#         118
  C:0D36H         LINE#         119
  C:0D3BH         LINE#         120
  C:0D43H         LINE#         121
  C:0D53H         LINE#         122
  C:0D53H         LINE#         123
  C:0D59H         LINE#         124
  C:0D59H         LINE#         125
  C:0D7CH         LINE#         126
  C:0D85H         LINE#         127
  C:0D85H         LINE#         128
  C:0D9FH         LINE#         129
  C:0DADH         LINE#         132
  C:0DB6H         LINE#         133
  C:0DB6H         LINE#         134
  C:0DD5H         LINE#         135
  C:0DDBH         LINE#         136
  C:0DE3H         LINE#         137
  C:0DE3H         LINE#         157
  C:0DE3H         LINE#         158
  C:0DE3H         LINE#         159
  C:0DE3H         LINE#         167
  C:0DE3H         LINE#         168
  C:0DE3H         LINE#         169
  C:0DE3H         LINE#         175
  C:0DE3H         LINE#         176
  C:0DEAH         LINE#         177
  C:0DEAH         LINE#         229
  C:0DEAH         LINE#         230
  C:0DEDH         LINE#         231
  C:0E31H         LINE#         232
  C:0E31H         LINE#         233
  C:0E36H         LINE#         234
  C:0E42H         LINE#         235
  C:0E42H         LINE#         236
  C:0E5AH         LINE#         242
  C:0E6BH         LINE#         243
  C:0E6BH         LINE#         244
  C:0E71H         LINE#         245
  C:0E71H         LINE#         246
  C:0E78H         LINE#         247
  C:0E78H         LINE#         248
  C:0E7EH         LINE#         249
  C:0E7EH         LINE#         250
  C:0E7EH         LINE#         251
  C:0E81H         LINE#         253
  C:0E81H         LINE#         254
  C:0E93H         LINE#         255
  C:0E93H         LINE#         256
  C:0EA2H         LINE#         257
  C:0EA2H         LINE#         258
  C:0ECBH         LINE#         259
  C:0ECDH         LINE#         261
  C:0ECDH         LINE#         262
BL51 BANKED LINKER/LOCATER V6.22                                                      06/21/2023  15:37:55  PAGE 177


  C:0EE0H         LINE#         263
  C:0EE0H         LINE#         264
  C:0EE8H         LINE#         265
  C:0F05H         LINE#         266
  C:0F0FH         LINE#         267
  C:0F0FH         LINE#         268
  C:0F0FH         LINE#         269
  C:0F0FH         LINE#         270
  C:0F12H         LINE#         271
  C:0F12H         LINE#         272
  C:0F33H         LINE#         273
  C:0F33H         LINE#         274
  C:0F39H         LINE#         275
  C:0F39H         LINE#         276
  C:0F4DH         LINE#         277
  C:0F4DH         LINE#         278
  C:0F5EH         LINE#         279
  C:0F5EH         LINE#         280
  C:0F7BH         LINE#         281
  C:0F83H         LINE#         282
  C:0F91H         LINE#         283
  C:0F98H         LINE#         284
  C:0FA0H         LINE#         289
  C:0FA0H         LINE#         290
  C:0FA3H         LINE#         291
  C:0FA3H         LINE#         292
  C:0FA6H         LINE#         293
  C:0FEBH         LINE#         294
  C:0FEBH         LINE#         295
  C:1002H         LINE#         296
  C:1007H         LINE#         297
  C:101DH         LINE#         298
  C:1028H         LINE#         299
  C:1038H         LINE#         300
  C:103DH         LINE#         301
  C:1043H         LINE#         302
  C:1045H         LINE#         303
  C:1063H         LINE#         304
  C:1063H         LINE#         305
  C:109EH         LINE#         306
  C:109EH         LINE#         307
  C:10A4H         LINE#         308
  C:10A4H         LINE#         309
  C:10A4H         LINE#         310
  C:10A4H         LINE#         311
  C:10A4H         LINE#         312
  C:10A4H         LINE#         313
  C:10A4H         LINE#         314
  C:10B0H         LINE#         315
  C:10B3H         LINE#         316
  -------         ENDPROC       _MOD_HDMIEDID_CTABLOCKANALYSIS
  -------         PROC          _MOD_HDMIEDID_ANALYSIS
  X:04B2H         SYMBOL        pucEDID_Data
  -------         DO            
  X:04B5H         SYMBOL        ucLoop_edid
  X:04B6H         SYMBOL        usEdid_Offset
  D:0005H         SYMBOL        ucNoCta_Flag
BL51 BANKED LINKER/LOCATER V6.22                                                      06/21/2023  15:37:55  PAGE 178


  X:04B8H         SYMBOL        ucTempSwap
  X:04B9H         SYMBOL        ucLoop_cnt
  -------         ENDDO         
  C:34BAH         LINE#         318
  C:34C0H         LINE#         319
  C:34C0H         LINE#         323
  C:34D2H         LINE#         324
  C:34D2H         LINE#         325
  C:34D4H         LINE#         326
  C:34E1H         LINE#         327
  C:351BH         LINE#         328
  C:351BH         LINE#         329
  C:351CH         LINE#         330
  C:352DH         LINE#         331
  C:352DH         LINE#         332
  C:353CH         LINE#         333
  C:353CH         LINE#         334
  C:3556H         LINE#         335
  C:357DH         LINE#         336
  C:358FH         LINE#         337
  C:3597H         LINE#         338
  C:3597H         LINE#         339
  C:3597H         LINE#         340
  C:3597H         LINE#         341
  C:35ACH         LINE#         342
  C:35ACH         LINE#         343
  C:35ACH         LINE#         344
  C:35ACH         LINE#         345
  C:35B5H         LINE#         361
  C:35C7H         LINE#         362
  C:35C7H         LINE#         363
  C:35D4H         LINE#         364
  C:35FCH         LINE#         365
  C:35FCH         LINE#         366
  C:360FH         LINE#         367
  C:3611H         LINE#         368
  C:363CH         LINE#         369
  C:363CH         LINE#         370
  C:364FH         LINE#         371
  C:3651H         LINE#         372
  C:3669H         LINE#         373
  C:3669H         LINE#         374
  C:3678H         LINE#         375
  C:3678H         LINE#         376
  C:368DH         LINE#         377
  C:368DH         LINE#         378
  C:368DH         LINE#         379
  C:368DH         LINE#         380
  C:3696H         LINE#         381
  -------         ENDPROC       _MOD_HDMIEDID_ANALYSIS
  -------         PROC          _MOD_BLOCK0_UPDATE
  X:04B8H         SYMBOL        pucEDID_Data
  C:701CH         LINE#         383
  C:7022H         LINE#         384
  C:7022H         LINE#         386
  C:7031H         LINE#         387
  C:7031H         LINE#         388
BL51 BANKED LINKER/LOCATER V6.22                                                      06/21/2023  15:37:55  PAGE 179


  C:7039H         LINE#         389
  C:7045H         LINE#         390
  C:7045H         LINE#         391
  C:7045H         LINE#         392
  C:704AH         LINE#         393
  C:704CH         LINE#         394
  C:704CH         LINE#         395
  C:7051H         LINE#         396
  C:7053H         LINE#         397
  C:7053H         LINE#         398
  C:705BH         LINE#         399
  C:705BH         LINE#         400
  C:705BH         LINE#         401
  C:705BH         LINE#         402
  C:7063H         LINE#         404
  C:7091H         LINE#         405
  C:7091H         LINE#         406
  C:70B7H         LINE#         407
  C:70B7H         LINE#         408
  C:70D5H         LINE#         409
  C:70D5H         LINE#         410
  C:70D5H         LINE#         411
  -------         ENDPROC       _MOD_BLOCK0_UPDATE
  -------         PROC          _MOD_CTABLOCK_UPDATE
  X:04B8H         SYMBOL        pucEDID_Data
  -------         DO            
  X:04BBH         SYMBOL        ucLoop_Offset
  X:04BCH         SYMBOL        ucLoop_edid
  -------         ENDDO         
  C:4064H         LINE#         413
  C:406AH         LINE#         414
  C:406AH         LINE#         423
  C:4089H         LINE#         424
  C:4089H         LINE#         425
  C:409AH         LINE#         426
  C:409FH         LINE#         427
  C:40AAH         LINE#         428
  C:40AAH         LINE#         429
  C:40AAH         LINE#         442
  C:40AAH         LINE#         443
  C:40AAH         LINE#         444
  C:4133H         LINE#         446
  C:4133H         LINE#         447
  C:4143H         LINE#         448
  C:4143H         LINE#         449
  C:4152H         LINE#         450
  C:4152H         LINE#         451
  C:417BH         LINE#         452
  C:417DH         LINE#         454
  C:417DH         LINE#         455
  C:4190H         LINE#         456
  C:4190H         LINE#         457
  C:4198H         LINE#         458
  C:41B5H         LINE#         459
  C:41C2H         LINE#         460
  C:41C7H         LINE#         461
  C:41CDH         LINE#         462
BL51 BANKED LINKER/LOCATER V6.22                                                      06/21/2023  15:37:55  PAGE 180


  C:41CDH         LINE#         463
  C:41CDH         LINE#         464
  C:41CDH         LINE#         465
  C:41CDH         LINE#         466
  C:41CDH         LINE#         467
  C:41D9H         LINE#         468
  C:41DCH         LINE#         469
  -------         ENDPROC       _MOD_CTABLOCK_UPDATE
  -------         PROC          _MOD_DISPLAYIDBLOCK_UPDATE
  X:04B8H         SYMBOL        pucEDID_Data
  -------         DO            
  X:04BBH         SYMBOL        ucLoop_Offset
  X:04BCH         SYMBOL        ucLoop_x
  -------         ENDDO         
  C:58E4H         LINE#         470
  C:58EAH         LINE#         471
  C:58EAH         LINE#         490
  C:5914H         LINE#         491
  C:5914H         LINE#         492
  C:5922H         LINE#         493
  C:5930H         LINE#         494
  C:593EH         LINE#         495
  C:593EH         LINE#         496
  C:593EH         LINE#         497
  C:593EH         LINE#         498
  C:5946H         LINE#         499
  C:5946H         LINE#         500
  C:5946H         LINE#         501
  C:5970H         LINE#         502
  C:5970H         LINE#         503
  C:59B5H         LINE#         504
  C:59B5H         LINE#         505
  C:59D1H         LINE#         506
  C:59D1H         LINE#         507
  C:59DBH         LINE#         508
  C:59DBH         LINE#         509
  C:59DBH         LINE#         510
  C:59DBH         LINE#         511
  C:59E8H         LINE#         512
  C:59EBH         LINE#         513
  -------         ENDPROC       _MOD_DISPLAYIDBLOCK_UPDATE
  -------         PROC          _MOD_HDMIEDID_UPDATE
  X:04B2H         SYMBOL        pucEDID_Data
  -------         DO            
  X:04B5H         SYMBOL        ucLoop_edid
  X:04B6H         SYMBOL        usEdid_Offset
  -------         ENDDO         
  C:55B4H         LINE#         515
  C:55BAH         LINE#         516
  C:55BAH         LINE#         519
  C:55CCH         LINE#         520
  C:55CCH         LINE#         521
  C:55D9H         LINE#         522
  C:5601H         LINE#         523
  C:5601H         LINE#         524
  C:5614H         LINE#         525
  C:5614H         LINE#         526
BL51 BANKED LINKER/LOCATER V6.22                                                      06/21/2023  15:37:55  PAGE 181


  C:5616H         LINE#         527
  C:5642H         LINE#         528
  C:5642H         LINE#         529
  C:5655H         LINE#         530
  C:5655H         LINE#         531
  C:5657H         LINE#         532
  C:5670H         LINE#         533
  C:5670H         LINE#         534
  C:567FH         LINE#         535
  C:5694H         LINE#         536
  C:56A9H         LINE#         537
  C:56A9H         LINE#         538
  C:56BEH         LINE#         539
  C:56BEH         LINE#         540
  C:56BEH         LINE#         541
  C:56BEH         LINE#         542
  C:56C7H         LINE#         543
  -------         ENDPROC       _MOD_HDMIEDID_UPDATE
  -------         PROC          _MOD_EDID_DPMODEPRINT
  X:04B2H         SYMBOL        pucEDID_Data
  -------         DO            
  X:04B5H         SYMBOL        usLoop_Cnt
  -------         ENDDO         
  C:7F26H         LINE#         547
  C:7F2CH         LINE#         548
  C:7F2CH         LINE#         550
  C:7F37H         LINE#         551
  C:7F69H         LINE#         552
  C:7F69H         LINE#         553
  C:7F6EH         LINE#         554
  C:7F6EH         LINE#         555
  C:7F79H         LINE#         556
  C:7F79H         LINE#         557
  C:7F9CH         LINE#         558
  C:7FA8H         LINE#         560
  -------         ENDPROC       _MOD_EDID_DPMODEPRINT
  -------         PROC          MOD_EDID_MODEDET
  C:AE74H         LINE#         583
  C:AE74H         LINE#         584
  C:AE74H         LINE#         585
  C:AE79H         LINE#         586
  -------         ENDPROC       MOD_EDID_MODEDET
  -------         PROC          MOD_EDID_UPDATE
  C:A895H         LINE#         587
  C:A895H         LINE#         588
  C:A895H         LINE#         589
  C:A898H         LINE#         590
  C:A8A1H         LINE#         591
  C:A8AAH         LINE#         594
  -------         ENDPROC       MOD_EDID_UPDATE
  -------         ENDMOD        MODHDMIEDID

  -------         MODULE        MODHDMIRX
  C:0000H         SYMBOL        _ICE_DUMMY_
  X:062AH         PUBLIC        g_stHdmiRx
  D:00C8H         PUBLIC        T2CON
  -------         ENDMOD        MODHDMIRX
BL51 BANKED LINKER/LOCATER V6.22                                                      06/21/2023  15:37:55  PAGE 182



  -------         MODULE        MODHDMIRXEQ
  C:0000H         SYMBOL        _ICE_DUMMY_
  D:00C8H         PUBLIC        T2CON
  -------         ENDMOD        MODHDMIRXEQ

  -------         MODULE        MODHDMITX
  C:0000H         SYMBOL        _ICE_DUMMY_
  C:A173H         PUBLIC        Mod_HdmiTx_ReadSinkErrorCnt
  X:05CFH         PUBLIC        g_stHdmiTx
  C:7A5CH         PUBLIC        Mod_HdmiTx_HpdDetProc
  C:A60CH         PUBLIC        Mod_HdmiTx_GcpInfoSet
  C:7190H         PUBLIC        Mod_HdmiTx_AviInfoSet
  C:AB23H         PUBLIC        Mod_HdmiTx_PowerOnInit
  C:7821H         PUBLIC        _Mod_HdmiTx_VrrSet
  C:AEA5H         PUBLIC        Mod_HdmiTx_MaxTmdsCharRateChk
  C:669EH         PUBLIC        Mod_HdmiTx_StateJudge
  C:549FH         PUBLIC        _Mod_HmdiTx_EdidRead
  C:82E0H         PUBLIC        Mod_HdmiTx_HdmiVersionCal
  C:ACF8H         PUBLIC        Mod_HdmiTx_FrlUpdateChg
  C:AE8FH         PUBLIC        _Mod_HdmiTx_MsgNotify
  C:7D0EH         PUBLIC        Mod_HdmiTx_AudioInfoSet
  C:A053H         PUBLIC        _Mod_HdmiTx_SetState
  D:00C8H         PUBLIC        T2CON
  C:A838H         PUBLIC        Mod_HdmiTx_HpdLowAction
  C:AE8CH         PUBLIC        Mod_HdmiTx_VarInit
  C:ADEEH         PUBLIC        Mod_HdmiTx_Handler
  C:477BH         PUBLIC        Mod_HdmiTx_StateHandler
  C:AE92H         PUBLIC        Mod_HdmiTx_NeedOpenDscEnc
  -------         PROC          MOD_HDMITX_POWERONINIT
  C:AB23H         LINE#         16
  C:AB23H         LINE#         17
  C:AB23H         LINE#         18
  C:AB32H         LINE#         19
  C:AB38H         LINE#         20
  -------         ENDPROC       MOD_HDMITX_POWERONINIT
  -------         PROC          MOD_HDMITX_VARINIT
  C:AE8CH         LINE#         22
  C:AE8CH         LINE#         23
  C:AE8CH         LINE#         25
  -------         ENDPROC       MOD_HDMITX_VARINIT
  -------         PROC          _MOD_HDMITX_MSGNOTIFY
  D:0007H         SYMBOL        ucEvent
  C:AE8FH         LINE#         32
  C:AE8FH         LINE#         33
  C:AE8FH         LINE#         35
  -------         ENDPROC       _MOD_HDMITX_MSGNOTIFY
  -------         PROC          _MOD_HMDITX_EDIDREAD
  X:04B2H         SYMBOL        pucEdidData
  -------         DO            
  X:04B5H         SYMBOL        ucBlocKNum
  X:04B6H         SYMBOL        ucReadCnt
  X:04B7H         SYMBOL        b1Result
  X:04B8H         SYMBOL        usLoop_Cnt
  -------         ENDDO         
  C:549FH         LINE#         42
  C:54A5H         LINE#         43
BL51 BANKED LINKER/LOCATER V6.22                                                      06/21/2023  15:37:55  PAGE 183


  C:54A5H         LINE#         45
  C:54ABH         LINE#         46
  C:54AEH         LINE#         50
  C:54C7H         LINE#         53
  C:54CEH         LINE#         54
  C:54D5H         LINE#         55
  C:54DBH         LINE#         56
  C:54E5H         LINE#         57
  C:54E5H         LINE#         59
  C:54ECH         LINE#         60
  C:54ECH         LINE#         61
  C:54FBH         LINE#         62
  C:54FDH         LINE#         63
  C:54FDH         LINE#         64
  C:5504H         LINE#         65
  C:5507H         LINE#         66
  C:5509H         LINE#         68
  C:5509H         LINE#         69
  C:5509H         LINE#         70
  C:5509H         LINE#         71
  C:5509H         LINE#         73
  C:5509H         LINE#         74
  C:5510H         LINE#         75
  C:5515H         LINE#         76
  C:5515H         LINE#         77
  C:5517H         LINE#         78
  C:551EH         LINE#         79
  C:5525H         LINE#         82
  C:552DH         LINE#         83
  C:552DH         LINE#         84
  C:5536H         LINE#         85
  C:553DH         LINE#         86
  C:555CH         LINE#         87
  C:555CH         LINE#         88
  C:556FH         LINE#         89
  C:557BH         LINE#         90
  C:5582H         LINE#         91
  C:5582H         LINE#         131
  C:5588H         LINE#         132
  C:5588H         LINE#         133
  C:55A1H         LINE#         134
  C:55A7H         LINE#         135
  C:55A7H         LINE#         148
  C:55AEH         LINE#         151
  C:55B3H         LINE#         152
  -------         ENDPROC       _MOD_HMDITX_EDIDREAD
  -------         PROC          MOD_HDMITX_HPDLOWACTION
  C:A838H         LINE#         154
  C:A838H         LINE#         155
  C:A838H         LINE#         156
  C:A83BH         LINE#         157
  C:A83EH         LINE#         159
  C:A843H         LINE#         161
  C:A848H         LINE#         166
  C:A84DH         LINE#         167
  -------         ENDPROC       MOD_HDMITX_HPDLOWACTION
  -------         PROC          MOD_HDMITX_HDMIVERSIONCAL
BL51 BANKED LINKER/LOCATER V6.22                                                      06/21/2023  15:37:55  PAGE 184


  C:82E0H         LINE#         179
  C:82E0H         LINE#         180
  C:82E0H         LINE#         183
  C:82F0H         LINE#         184
  C:82F0H         LINE#         185
  C:82F6H         LINE#         186
  C:8300H         LINE#         188
  C:8300H         LINE#         190
  C:8314H         LINE#         191
  C:8314H         LINE#         192
  C:8319H         LINE#         193
  C:8321H         LINE#         194
  C:8323H         LINE#         195
  C:8337H         LINE#         196
  C:8337H         LINE#         197
  C:833DH         LINE#         198
  C:8343H         LINE#         199
  C:8345H         LINE#         201
  C:8345H         LINE#         202
  C:8350H         LINE#         203
  C:8350H         LINE#         205
  -------         ENDPROC       MOD_HDMITX_HDMIVERSIONCAL
  -------         PROC          _MOD_HDMITX_SETSTATE
  D:0007H         SYMBOL        ucState
  -------         DO            
  X:04B2H         SYMBOL        ucLastState
  -------         ENDDO         
  C:A053H         LINE#         207
  C:A053H         LINE#         208
  C:A053H         LINE#         210
  C:A05BH         LINE#         211
  C:A05BH         LINE#         212
  C:A060H         LINE#         213
  C:A065H         LINE#         214
  C:A069H         LINE#         215
  C:A079H         LINE#         218
  C:A079H         LINE#         219
  C:A079H         LINE#         221
  C:A079H         LINE#         223
  C:A080H         LINE#         224
  C:A080H         LINE#         225
  C:A083H         LINE#         226
  C:A083H         LINE#         227
  C:A083H         LINE#         228
  -------         ENDPROC       _MOD_HDMITX_SETSTATE
  -------         PROC          MOD_HDMITX_HPDDETPROC
  -------         DO            
  X:05C6H         SYMBOL        ucHpd_lowDet_Save
  X:05C7H         SYMBOL        ulCurrentTime
  -------         ENDDO         
  C:7A5CH         LINE#         230
  C:7A5CH         LINE#         231
  C:7A5CH         LINE#         235
  C:7A68H         LINE#         236
  C:7A68H         LINE#         237
  C:7A6EH         LINE#         238
  C:7A6EH         LINE#         240
BL51 BANKED LINKER/LOCATER V6.22                                                      06/21/2023  15:37:55  PAGE 185


  C:7A75H         LINE#         241
  C:7A75H         LINE#         242
  C:7A7EH         LINE#         243
  C:7A84H         LINE#         244
  C:7A84H         LINE#         245
  C:7A89H         LINE#         246
  C:7AA5H         LINE#         247
  C:7AA5H         LINE#         248
  C:7AA9H         LINE#         249
  C:7AAEH         LINE#         250
  C:7AB3H         LINE#         251
  C:7AB6H         LINE#         252
  C:7AB6H         LINE#         253
  C:7AB6H         LINE#         255
  C:7AB6H         LINE#         257
  C:7ABCH         LINE#         258
  C:7ABCH         LINE#         259
  C:7ABEH         LINE#         260
  C:7AC2H         LINE#         261
  C:7ACBH         LINE#         262
  C:7ACBH         LINE#         263
  C:7AD9H         LINE#         264
  C:7AD9H         LINE#         265
  C:7AE2H         LINE#         266
  C:7AE2H         LINE#         267
  C:7AE2H         LINE#         268
  C:7AE7H         LINE#         269
  C:7AE7H         LINE#         270
  C:7AE7H         LINE#         271
  C:7AE7H         LINE#         272
  -------         ENDPROC       MOD_HDMITX_HPDDETPROC
  -------         PROC          MOD_HDMITX_MAXTMDSCHARRATECHK
  C:AEA5H         LINE#         294
  C:AEA5H         LINE#         295
  C:AEA5H         LINE#         314
  -------         ENDPROC       MOD_HDMITX_MAXTMDSCHARRATECHK
  -------         PROC          MOD_HDMITX_READSINKERRORCNT
  -------         DO            
  X:0656H         SYMBOL        ucTemp
  -------         ENDDO         
  C:A173H         LINE#         316
  C:A173H         LINE#         317
  C:A173H         LINE#         320
  C:A181H         LINE#         321
  C:A181H         LINE#         322
  C:A188H         LINE#         323
  C:A18BH         LINE#         324
  C:A1A0H         LINE#         325
  C:A1A0H         LINE#         326
  -------         ENDPROC       MOD_HDMITX_READSINKERRORCNT
  -------         PROC          MOD_HDMITX_AVIINFOSET
  -------         DO            
  D:0007H         SYMBOL        ucAviCheckSum
  -------         ENDDO         
  C:7190H         LINE#         331
  C:7190H         LINE#         332
  C:7190H         LINE#         333
BL51 BANKED LINKER/LOCATER V6.22                                                      06/21/2023  15:37:55  PAGE 186


  C:7192H         LINE#         334
  C:7198H         LINE#         335
  C:719EH         LINE#         336
  C:71A4H         LINE#         337
  C:71ADH         LINE#         338
  C:71B6H         LINE#         339
  C:71BFH         LINE#         340
  C:71C8H         LINE#         341
  C:71D1H         LINE#         343
  C:71D5H         LINE#         344
  C:71D7H         LINE#         345
  C:71DBH         LINE#         346
  C:71DEH         LINE#         347
  C:71E1H         LINE#         348
  C:71E4H         LINE#         349
  C:71E7H         LINE#         350
  C:71E9H         LINE#         351
  C:71EFH         LINE#         352
  C:71F6H         LINE#         354
  C:71FFH         LINE#         355
  C:71FFH         LINE#         356
  C:7205H         LINE#         357
  C:720BH         LINE#         358
  C:7211H         LINE#         359
  C:721DH         LINE#         360
  C:7223H         LINE#         361
  C:7229H         LINE#         362
  C:722EH         LINE#         363
  C:7234H         LINE#         364
  C:7239H         LINE#         365
  C:7240H         LINE#         366
  C:7241H         LINE#         368
  C:7241H         LINE#         369
  C:7248H         LINE#         370
  C:7248H         LINE#         371
  -------         ENDPROC       MOD_HDMITX_AVIINFOSET
  -------         PROC          MOD_HDMITX_GCPINFOSET
  C:A60CH         LINE#         373
  C:A60CH         LINE#         374
  C:A60CH         LINE#         375
  C:A613H         LINE#         376
  C:A613H         LINE#         377
  C:A613H         LINE#         378
  C:A615H         LINE#         380
  C:A615H         LINE#         381
  C:A621H         LINE#         382
  C:A621H         LINE#         383
  C:A621H         LINE#         384
  C:A621H         LINE#         385
  C:A628H         LINE#         386
  C:A629H         LINE#         387
  C:A629H         LINE#         388
  C:A629H         LINE#         389
  C:A630H         LINE#         390
  C:A630H         LINE#         391
  C:A630H         LINE#         392
  C:A630H         LINE#         393
BL51 BANKED LINKER/LOCATER V6.22                                                      06/21/2023  15:37:55  PAGE 187


  -------         ENDPROC       MOD_HDMITX_GCPINFOSET
  -------         PROC          MOD_HDMITX_AUDIOINFOSET
  -------         DO            
  X:04B2H         SYMBOL        ucChecksum
  -------         ENDDO         
  C:7D0EH         LINE#         395
  C:7D0EH         LINE#         396
  C:7D0EH         LINE#         397
  C:7D13H         LINE#         399
  C:7D26H         LINE#         400
  C:7D39H         LINE#         401
  C:7D43H         LINE#         402
  C:7D43H         LINE#         403
  C:7D47H         LINE#         404
  C:7D49H         LINE#         406
  C:7D49H         LINE#         407
  C:7D4DH         LINE#         408
  C:7D4DH         LINE#         410
  C:7D55H         LINE#         411
  C:7D5DH         LINE#         412
  C:7D65H         LINE#         413
  C:7D6DH         LINE#         414
  C:7D75H         LINE#         415
  C:7D7DH         LINE#         416
  C:7D85H         LINE#         417
  C:7D8DH         LINE#         418
  C:7D95H         LINE#         419
  -------         ENDPROC       MOD_HDMITX_AUDIOINFOSET
  -------         PROC          _MOD_HDMITX_VRRSET
  X:0666H         SYMBOL        pstInfo
  C:7821H         LINE#         421
  C:7827H         LINE#         422
  C:7827H         LINE#         423
  C:7834H         LINE#         424
  C:7834H         LINE#         425
  C:783BH         LINE#         426
  C:7842H         LINE#         427
  C:7849H         LINE#         428
  C:7850H         LINE#         429
  C:7857H         LINE#         431
  C:785DH         LINE#         432
  C:7863H         LINE#         433
  C:7869H         LINE#         434
  C:786FH         LINE#         435
  C:7874H         LINE#         436
  C:787AH         LINE#         437
  C:787FH         LINE#         439
  C:7886H         LINE#         440
  C:788CH         LINE#         441
  C:788EH         LINE#         442
  C:7899H         LINE#         443
  C:7899H         LINE#         444
  C:78A0H         LINE#         445
  C:78A7H         LINE#         446
  C:78B2H         LINE#         447
  C:78B2H         LINE#         448
  -------         ENDPROC       _MOD_HDMITX_VRRSET
BL51 BANKED LINKER/LOCATER V6.22                                                      06/21/2023  15:37:55  PAGE 188


  -------         PROC          MOD_HDMITX_NEEDOPENDSCENC
  C:AE92H         LINE#         450
  C:AE92H         LINE#         451
  C:AE92H         LINE#         456
  C:AE94H         LINE#         458
  -------         ENDPROC       MOD_HDMITX_NEEDOPENDSCENC
  -------         PROC          MOD_HDMITX_FRLUPDATECHG
  C:ACF8H         LINE#         490
  C:ACF8H         LINE#         491
  C:ACF8H         LINE#         493
  C:ACFFH         LINE#         494
  C:AD02H         LINE#         496
  C:AD04H         LINE#         500
  -------         ENDPROC       MOD_HDMITX_FRLUPDATECHG
  -------         PROC          MOD_HDMITX_STATEJUDGE
  -------         DO            
  X:04B1H         SYMBOL        ucMinState
  -------         ENDDO         
  C:669EH         LINE#         502
  C:669EH         LINE#         503
  C:669EH         LINE#         504
  C:66A4H         LINE#         506
  C:66ADH         LINE#         507
  C:66ADH         LINE#         508
  C:66B3H         LINE#         509
  C:66B3H         LINE#         510
  C:66B6H         LINE#         511
  C:66C9H         LINE#         512
  C:66C9H         LINE#         513
  C:66C9H         LINE#         516
  C:66D2H         LINE#         517
  C:66D2H         LINE#         518
  C:66D8H         LINE#         519
  C:66D8H         LINE#         520
  C:66DBH         LINE#         521
  C:66EEH         LINE#         522
  C:66EEH         LINE#         523
  C:66EEH         LINE#         526
  C:66F7H         LINE#         527
  C:66F7H         LINE#         528
  C:66FDH         LINE#         529
  C:66FDH         LINE#         530
  C:6708H         LINE#         531
  C:671BH         LINE#         532
  C:671BH         LINE#         533
  C:671BH         LINE#         542
  C:6724H         LINE#         543
  C:6724H         LINE#         546
  C:6724H         LINE#         547
  C:6729H         LINE#         548
  C:672CH         LINE#         549
  C:672CH         LINE#         552
  C:672CH         LINE#         553
  C:6731H         LINE#         554
  C:6734H         LINE#         555
  C:6734H         LINE#         557
  C:6742H         LINE#         558
BL51 BANKED LINKER/LOCATER V6.22                                                      06/21/2023  15:37:55  PAGE 189


  C:6742H         LINE#         559
  C:6745H         LINE#         560
  C:6745H         LINE#         561
  C:6745H         LINE#         564
  C:674EH         LINE#         565
  C:674EH         LINE#         573
  C:6755H         LINE#         574
  C:6755H         LINE#         575
  C:6757H         LINE#         576
  C:675CH         LINE#         577
  C:675CH         LINE#         579
  C:675CH         LINE#         581
  C:6765H         LINE#         582
  C:6765H         LINE#         583
  C:676CH         LINE#         584
  C:676CH         LINE#         585
  C:676EH         LINE#         586
  C:6771H         LINE#         587
  C:6776H         LINE#         588
  C:6781H         LINE#         589
  C:6781H         LINE#         590
  C:6781H         LINE#         591
  C:6789H         LINE#         592
  C:6789H         LINE#         593
  C:678CH         LINE#         594
  C:678CH         LINE#         595
  -------         ENDPROC       MOD_HDMITX_STATEJUDGE
  -------         PROC          MOD_HDMITX_STATEHANDLER
  -------         DO            
  X:04B1H         SYMBOL        ucTrainResult
  X:05CBH         SYMBOL        ulCurrentTime
  -------         ENDDO         
  C:477BH         LINE#         598
  C:477BH         LINE#         599
  C:477BH         LINE#         605
  C:47A1H         LINE#         606
  C:47A1H         LINE#         607
  C:47A1H         LINE#         608
  C:47A4H         LINE#         609
  C:47A6H         LINE#         610
  C:47A9H         LINE#         612
  C:47A9H         LINE#         613
  C:47B4H         LINE#         614
  C:47B4H         LINE#         615
  C:47B6H         LINE#         616
  C:47B6H         LINE#         617
  C:47B9H         LINE#         619
  C:47B9H         LINE#         620
  C:47C4H         LINE#         621
  C:47C4H         LINE#         622
  C:47D0H         LINE#         623
  C:47D0H         LINE#         624
  C:47D5H         LINE#         625
  C:47DDH         LINE#         626
  C:47DFH         LINE#         628
  C:47DFH         LINE#         629
  C:47E4H         LINE#         630
BL51 BANKED LINKER/LOCATER V6.22                                                      06/21/2023  15:37:55  PAGE 190


  C:47EFH         LINE#         631
  C:47EFH         LINE#         632
  C:47F1H         LINE#         633
  C:47F1H         LINE#         634
  C:47F4H         LINE#         636
  C:47F4H         LINE#         637
  C:47FFH         LINE#         638
  C:47FFH         LINE#         645
  C:4802H         LINE#         646
  C:4805H         LINE#         647
  C:480CH         LINE#         648
  C:480CH         LINE#         649
  C:480EH         LINE#         650
  C:4810H         LINE#         652
  C:4810H         LINE#         653
  C:4815H         LINE#         654
  C:4815H         LINE#         655
  C:481AH         LINE#         656
  C:4825H         LINE#         657
  C:4825H         LINE#         658
  C:4825H         LINE#         660
  C:4825H         LINE#         685
  C:4828H         LINE#         687
  C:482AH         LINE#         688
  C:482DH         LINE#         690
  C:482DH         LINE#         692
  C:4834H         LINE#         693
  C:4834H         LINE#         694
  C:483AH         LINE#         695
  C:483FH         LINE#         696
  C:483FH         LINE#         697
  C:4847H         LINE#         698
  C:484AH         LINE#         699
  C:484AH         LINE#         700
  C:484CH         LINE#         701
  C:484EH         LINE#         702
  C:4854H         LINE#         704
  C:4854H         LINE#         705
  C:4856H         LINE#         706
  C:4856H         LINE#         707
  C:4858H         LINE#         708
  C:4858H         LINE#         711
  C:485BH         LINE#         712
  C:485EH         LINE#         713
  C:4861H         LINE#         714
  C:4863H         LINE#         715
  C:4865H         LINE#         717
  C:4865H         LINE#         718
  C:486CH         LINE#         719
  C:486CH         LINE#         720
  C:4875H         LINE#         721
  C:487AH         LINE#         722
  C:487AH         LINE#         723
  C:4890H         LINE#         724
  C:4890H         LINE#         725
  C:4896H         LINE#         726
  C:4898H         LINE#         727
BL51 BANKED LINKER/LOCATER V6.22                                                      06/21/2023  15:37:55  PAGE 191


  C:4898H         LINE#         728
  C:489AH         LINE#         730
  C:489AH         LINE#         731
  C:48A1H         LINE#         732
  C:48A1H         LINE#         733
  C:48AAH         LINE#         734
  C:48AFH         LINE#         735
  C:48AFH         LINE#         736
  C:48C3H         LINE#         737
  C:48C3H         LINE#         739
  C:48C9H         LINE#         741
  C:48CEH         LINE#         742
  C:48CEH         LINE#         743
  C:48CEH         LINE#         745
  C:48CEH         LINE#         746
  C:48CEH         LINE#         748
  C:48CEH         LINE#         749
  C:48CEH         LINE#         750
  C:48CEH         LINE#         751
  -------         ENDPROC       MOD_HDMITX_STATEHANDLER
  -------         PROC          MOD_HDMITX_HANDLER
  C:ADEEH         LINE#         753
  C:ADEEH         LINE#         754
  C:ADEEH         LINE#         755
  C:ADF1H         LINE#         756
  C:ADF4H         LINE#         757
  -------         ENDPROC       MOD_HDMITX_HANDLER
  -------         ENDMOD        MODHDMITX

  -------         MODULE        MODLVDSTX
  C:0000H         SYMBOL        _ICE_DUMMY_
  D:00C8H         PUBLIC        T2CON
  -------         ENDMOD        MODLVDSTX

  -------         MODULE        MODMIPITX
  C:0000H         SYMBOL        _ICE_DUMMY_
  D:00C8H         PUBLIC        T2CON
  -------         ENDMOD        MODMIPITX

  -------         MODULE        MODRXBASICTYPEC
  C:0000H         SYMBOL        _ICE_DUMMY_
  D:00C8H         PUBLIC        T2CON
  -------         ENDMOD        MODRXBASICTYPEC

  -------         MODULE        MODRXMSGTYPEC
  C:0000H         SYMBOL        _ICE_DUMMY_
  D:00C8H         PUBLIC        T2CON
  -------         ENDMOD        MODRXMSGTYPEC

  -------         MODULE        MODRXTYPEC
  C:0000H         SYMBOL        _ICE_DUMMY_
  C:AEA6H         PUBLIC        Mod_CCRx_Loop
  D:00C8H         PUBLIC        T2CON
  -------         PROC          MOD_CCRX_LOOP
  C:AEA6H         LINE#         10
  C:AEA6H         LINE#         11
  C:AEA6H         LINE#         14
BL51 BANKED LINKER/LOCATER V6.22                                                      06/21/2023  15:37:55  PAGE 192


  -------         ENDPROC       MOD_CCRX_LOOP
  -------         ENDMOD        MODRXTYPEC

  -------         MODULE        MODSYSTEM
  C:0000H         SYMBOL        _ICE_DUMMY_
  C:61E3H         PUBLIC        _Mod_HdmiTx_AspectRatioCal
  C:70D6H         PUBLIC        _Mod_HdmiTx_ColorSpaceCal
  C:8351H         PUBLIC        _Mod_HdmiTx_ColorRangeCal
  C:8BB3H         PUBLIC        _Mod_HdmiTx_ColorDepthCal
  C:32DCH         PUBLIC        _Mod_HdmiTx_ColorimetryCal
  C:4354H         PUBLIC        _Mod_Audio_HdmiTxInfoCvt
  D:00C8H         PUBLIC        T2CON
  C:3869H         PUBLIC        _Mod_HdmiTx_VicCal
  -------         PROC          _MOD_AUDIO_HDMITXINFOCVT
  X:04BBH         SYMBOL        pstRxInfo
  X:04BEH         SYMBOL        pstHdmiTx
  -------         DO            
  D:0007H         SYMBOL        ucCheckSum
  -------         ENDDO         
  C:4354H         LINE#         322
  C:435AH         LINE#         323
  C:435AH         LINE#         324
  C:435CH         LINE#         326
  C:4373H         LINE#         327
  C:438DH         LINE#         328
  C:43A7H         LINE#         329
  C:43AFH         LINE#         330
  C:43B7H         LINE#         331
  C:43BFH         LINE#         332
  C:43C8H         LINE#         333
  C:43C8H         LINE#         334
  C:43E2H         LINE#         335
  C:43FCH         LINE#         336
  C:4416H         LINE#         337
  C:4430H         LINE#         338
  C:4447H         LINE#         339
  C:4449H         LINE#         341
  C:4449H         LINE#         342
  C:4456H         LINE#         343
  C:445DH         LINE#         344
  C:4464H         LINE#         345
  C:446BH         LINE#         346
  C:4472H         LINE#         347
  C:4472H         LINE#         348
  C:4480H         LINE#         349
  C:4488H         LINE#         350
  C:4490H         LINE#         351
  C:4498H         LINE#         352
  C:44A0H         LINE#         353
  C:44A8H         LINE#         354
  C:44B0H         LINE#         355
  C:44B7H         LINE#         356
  -------         ENDPROC       _MOD_AUDIO_HDMITXINFOCVT
  -------         PROC          _MOD_HDMITX_COLORSPACECAL
  X:04D1H         SYMBOL        pstRxInfo
  X:04D4H         SYMBOL        pstHdmiTx
  C:70D6H         LINE#         359
BL51 BANKED LINKER/LOCATER V6.22                                                      06/21/2023  15:37:55  PAGE 193


  C:70DCH         LINE#         360
  C:70DCH         LINE#         361
  C:70E9H         LINE#         362
  C:70F0H         LINE#         363
  C:70F7H         LINE#         364
  C:70FEH         LINE#         365
  C:7105H         LINE#         366
  C:710CH         LINE#         367
  C:7128H         LINE#         368
  C:7128H         LINE#         369
  C:7128H         LINE#         370
  C:7128H         LINE#         371
  C:7135H         LINE#         372
  C:7139H         LINE#         373
  C:713BH         LINE#         374
  C:713BH         LINE#         375
  C:7149H         LINE#         376
  C:714EH         LINE#         377
  C:7150H         LINE#         378
  C:7150H         LINE#         379
  C:715EH         LINE#         380
  C:7163H         LINE#         381
  C:7165H         LINE#         382
  C:7165H         LINE#         383
  C:7173H         LINE#         384
  C:717BH         LINE#         385
  C:717BH         LINE#         387
  C:717BH         LINE#         388
  C:717BH         LINE#         389
  C:717BH         LINE#         390
  -------         ENDPROC       _MOD_HDMITX_COLORSPACECAL
  -------         PROC          _MOD_HDMITX_COLORRANGECAL
  X:04D1H         SYMBOL        pstRxInfo
  X:04D4H         SYMBOL        pstHdmiTx
  C:8351H         LINE#         393
  C:8357H         LINE#         394
  C:8357H         LINE#         395
  C:836BH         LINE#         396
  C:836BH         LINE#         397
  C:836BH         LINE#         398
  C:836BH         LINE#         400
  C:8377H         LINE#         401
  C:8377H         LINE#         402
  C:8386H         LINE#         403
  C:8388H         LINE#         405
  C:8388H         LINE#         406
  C:8397H         LINE#         407
  C:8397H         LINE#         419
  C:8399H         LINE#         420
  C:8399H         LINE#         422
  C:83A9H         LINE#         423
  C:83A9H         LINE#         425
  C:83A9H         LINE#         427
  C:83A9H         LINE#         428
  C:83BEH         LINE#         429
  C:83BEH         LINE#         441
  C:83BEH         LINE#         442
BL51 BANKED LINKER/LOCATER V6.22                                                      06/21/2023  15:37:55  PAGE 194


  C:83BEH         LINE#         443
  -------         ENDPROC       _MOD_HDMITX_COLORRANGECAL
  -------         PROC          _MOD_HDMITX_COLORIMETRYCAL
  X:04D1H         SYMBOL        pstRxInfo
  X:04D4H         SYMBOL        pstHdmiTx
  C:32DCH         LINE#         445
  C:32E2H         LINE#         446
  C:32E2H         LINE#         447
  C:32F6H         LINE#         448
  C:32F6H         LINE#         449
  C:32F6H         LINE#         450
  C:32F6H         LINE#         452
  C:3300H         LINE#         453
  C:3300H         LINE#         454
  C:3311H         LINE#         455
  C:3311H         LINE#         456
  C:3311H         LINE#         457
  C:3326H         LINE#         458
  C:332FH         LINE#         459
  C:3332H         LINE#         460
  C:3332H         LINE#         461
  C:3332H         LINE#         462
  C:3332H         LINE#         463
  C:3335H         LINE#         464
  C:3335H         LINE#         465
  C:3335H         LINE#         466
  C:3335H         LINE#         467
  C:3335H         LINE#         476
  C:3335H         LINE#         477
  C:3335H         LINE#         479
  C:3345H         LINE#         480
  C:3345H         LINE#         481
  C:336AH         LINE#         482
  C:336AH         LINE#         483
  C:336AH         LINE#         484
  C:3373H         LINE#         485
  C:3376H         LINE#         486
  C:3376H         LINE#         487
  C:3376H         LINE#         488
  C:3379H         LINE#         489
  C:3379H         LINE#         490
  C:3379H         LINE#         491
  C:3379H         LINE#         492
  C:337CH         LINE#         493
  C:337CH         LINE#         494
  C:337CH         LINE#         495
  C:337CH         LINE#         496
  C:337FH         LINE#         497
  C:337FH         LINE#         498
  C:3394H         LINE#         499
  C:33A6H         LINE#         500
  C:33A9H         LINE#         501
  C:33A9H         LINE#         502
  C:33BEH         LINE#         503
  C:33D0H         LINE#         504
  C:33D3H         LINE#         505
  C:33D3H         LINE#         506
BL51 BANKED LINKER/LOCATER V6.22                                                      06/21/2023  15:37:55  PAGE 195


  C:33E8H         LINE#         507
  C:33FAH         LINE#         508
  C:33FDH         LINE#         509
  C:33FDH         LINE#         510
  C:3412H         LINE#         511
  C:3424H         LINE#         512
  C:3427H         LINE#         513
  C:3427H         LINE#         514
  C:3427H         LINE#         515
  C:3427H         LINE#         516
  C:3427H         LINE#         518
  C:3427H         LINE#         519
  C:3440H         LINE#         520
  C:3440H         LINE#         521
  C:3440H         LINE#         522
  C:3455H         LINE#         523
  C:3465H         LINE#         524
  C:3467H         LINE#         525
  C:3467H         LINE#         526
  C:3479H         LINE#         527
  C:347BH         LINE#         528
  C:347BH         LINE#         529
  C:3490H         LINE#         530
  C:34A2H         LINE#         531
  C:34A4H         LINE#         532
  C:34A4H         LINE#         533
  C:34B9H         LINE#         534
  C:34B9H         LINE#         535
  C:34B9H         LINE#         536
  C:34B9H         LINE#         537
  C:34B9H         LINE#         538
  C:34B9H         LINE#         547
  C:34B9H         LINE#         548
  C:34B9H         LINE#         549
  -------         ENDPROC       _MOD_HDMITX_COLORIMETRYCAL
  -------         PROC          _MOD_HDMITX_ASPECTRATIOCAL
  X:04D1H         SYMBOL        pstRxTimingInfo
  X:04D4H         SYMBOL        pstHdmiTx
  C:61E3H         LINE#         551
  C:61E9H         LINE#         552
  C:61E9H         LINE#         553
  C:621FH         LINE#         554
  C:621FH         LINE#         556
  C:6231H         LINE#         557
  C:6234H         LINE#         558
  C:6268H         LINE#         559
  C:6268H         LINE#         560
  C:627AH         LINE#         561
  C:627CH         LINE#         562
  C:62AEH         LINE#         563
  C:62AEH         LINE#         564
  C:62C0H         LINE#         565
  C:62C2H         LINE#         567
  C:62C2H         LINE#         568
  C:62D7H         LINE#         569
  C:62D7H         LINE#         570
  -------         ENDPROC       _MOD_HDMITX_ASPECTRATIOCAL
BL51 BANKED LINKER/LOCATER V6.22                                                      06/21/2023  15:37:55  PAGE 196


  -------         PROC          _MOD_HDMITX_VICCAL
  X:04D1H         SYMBOL        pstRxTimingInfo
  X:04D4H         SYMBOL        pstHdmiTx
  C:3869H         LINE#         572
  C:386FH         LINE#         573
  C:386FH         LINE#         574
  C:38A3H         LINE#         575
  C:38A3H         LINE#         576
  C:38CDH         LINE#         577
  C:38CDH         LINE#         578
  C:38D8H         LINE#         579
  C:38D8H         LINE#         580
  C:38DBH         LINE#         581
  C:3915H         LINE#         582
  C:3915H         LINE#         583
  C:3938H         LINE#         584
  C:3938H         LINE#         585
  C:3943H         LINE#         586
  C:3946H         LINE#         587
  C:3960H         LINE#         588
  C:3960H         LINE#         589
  C:396BH         LINE#         590
  C:396EH         LINE#         591
  C:3991H         LINE#         592
  C:3991H         LINE#         593
  C:399CH         LINE#         594
  C:399FH         LINE#         595
  C:39C6H         LINE#         596
  C:39C6H         LINE#         597
  C:39D1H         LINE#         598
  C:39D1H         LINE#         599
  C:39D3H         LINE#         600
  C:3A07H         LINE#         601
  C:3A07H         LINE#         602
  C:3A2BH         LINE#         603
  C:3A2BH         LINE#         604
  C:3A39H         LINE#         605
  C:3A39H         LINE#         606
  C:3A39H         LINE#         607
  -------         ENDPROC       _MOD_HDMITX_VICCAL
  -------         PROC          _MOD_HDMITX_COLORDEPTHCAL
  X:04D1H         SYMBOL        pstRxInfo
  X:04D4H         SYMBOL        pstHdmiTx
  C:8BB3H         LINE#         608
  C:8BB9H         LINE#         609
  C:8BB9H         LINE#         610
  C:8BC7H         LINE#         612
  C:8BDAH         LINE#         613
  C:8BDAH         LINE#         614
  C:8BDAH         LINE#         615
  C:8BE5H         LINE#         616
  C:8BE7H         LINE#         617
  C:8BE7H         LINE#         618
  C:8BF5H         LINE#         619
  C:8BF5H         LINE#         620
  C:8BF5H         LINE#         621
  C:8BF5H         LINE#         622
BL51 BANKED LINKER/LOCATER V6.22                                                      06/21/2023  15:37:55  PAGE 197


  C:8BF5H         LINE#         638
  C:8C04H         LINE#         639
  C:8C04H         LINE#         640
  C:8C12H         LINE#         641
  C:8C12H         LINE#         642
  -------         ENDPROC       _MOD_HDMITX_COLORDEPTHCAL
  -------         ENDMOD        MODSYSTEM

  -------         MODULE        MODTMDSRX
  C:0000H         SYMBOL        _ICE_DUMMY_
  D:00C8H         PUBLIC        T2CON
  -------         ENDMOD        MODTMDSRX

  -------         MODULE        MODTXBASICTYPEC
  C:0000H         SYMBOL        _ICE_DUMMY_
  D:00C8H         PUBLIC        T2CON
  -------         ENDMOD        MODTXBASICTYPEC

  -------         MODULE        MODTXMSGTYPEC
  C:0000H         SYMBOL        _ICE_DUMMY_
  D:00C8H         PUBLIC        T2CON
  -------         ENDMOD        MODTXMSGTYPEC

  -------         MODULE        MODTXTYPEC
  C:0000H         SYMBOL        _ICE_DUMMY_
  C:AEA7H         PUBLIC        Mod_CCTx_Loop
  D:00C8H         PUBLIC        T2CON
  -------         PROC          MOD_CCTX_LOOP
  C:AEA7H         LINE#         10
  C:AEA7H         LINE#         11
  C:AEA7H         LINE#         13
  -------         ENDPROC       MOD_CCTX_LOOP
  -------         ENDMOD        MODTXTYPEC

  -------         MODULE        DRVAUDIO
  C:0000H         SYMBOL        _ICE_DUMMY_
  C:AE95H         PUBLIC        Drv_Audio_AcrMute
  C:AEA8H         PUBLIC        Drv_Audio_I2sInInit
  C:AEABH         PUBLIC        Drv_Audio_I2sOutInit
  C:AEAAH         PUBLIC        Drv_Audio_SpdifInInit
  C:AEADH         PUBLIC        Drv_Audio_SpdifOutInit
  C:AEAEH         PUBLIC        Drv_Audio_eArcOutInit
  C:A631H         PUBLIC        _Drv_Audio_HdmiNctsValueSet
  C:AEA9H         PUBLIC        Drv_Audio_HdmiInInit
  C:9CF7H         PUBLIC        Drv_Audio_HdmiOutInit
  C:AE3AH         PUBLIC        Drv_Audio_AcrPllInit
  C:A22AH         PUBLIC        _Drv_Audio_OutEn
  C:AE12H         PUBLIC        Drv_Audio_DpInInit
  D:00C8H         PUBLIC        T2CON
  C:AEACH         PUBLIC        Drv_Audio_DpOutInit
  C:A8B3H         PUBLIC        Drv_Audio_Init
  -------         PROC          DRV_AUDIO_I2SININIT
  C:AEA8H         LINE#         11
  C:AEA8H         LINE#         12
  C:AEA8H         LINE#         30
  -------         ENDPROC       DRV_AUDIO_I2SININIT
  -------         PROC          DRV_AUDIO_HDMIININIT
BL51 BANKED LINKER/LOCATER V6.22                                                      06/21/2023  15:37:55  PAGE 198


  C:AEA9H         LINE#         32
  C:AEA9H         LINE#         33
  C:AEA9H         LINE#         43
  -------         ENDPROC       DRV_AUDIO_HDMIININIT
  -------         PROC          DRV_AUDIO_DPININIT
  C:AE12H         LINE#         45
  C:AE12H         LINE#         46
  C:AE12H         LINE#         51
  C:AE19H         LINE#         55
  -------         ENDPROC       DRV_AUDIO_DPININIT
  -------         PROC          DRV_AUDIO_SPDIFININIT
  C:AEAAH         LINE#         57
  C:AEAAH         LINE#         58
  C:AEAAH         LINE#         70
  -------         ENDPROC       DRV_AUDIO_SPDIFININIT
  -------         PROC          DRV_AUDIO_I2SOUTINIT
  C:AEABH         LINE#         72
  C:AEABH         LINE#         73
  C:AEABH         LINE#         78
  -------         ENDPROC       DRV_AUDIO_I2SOUTINIT
  -------         PROC          DRV_AUDIO_HDMIOUTINIT
  C:9CF7H         LINE#         81
  C:9CF7H         LINE#         82
  C:9CF7H         LINE#         139
  C:9CFEH         LINE#         140
  C:9D01H         LINE#         143
  C:9D08H         LINE#         147
  C:9D0BH         LINE#         149
  C:9D12H         LINE#         150
  C:9D15H         LINE#         152
  C:9D1CH         LINE#         158
  C:9D23H         LINE#         159
  C:9D2AH         LINE#         160
  C:9D31H         LINE#         162
  -------         ENDPROC       DRV_AUDIO_HDMIOUTINIT
  -------         PROC          DRV_AUDIO_DPOUTINIT
  C:AEACH         LINE#         164
  C:AEACH         LINE#         165
  C:AEACH         LINE#         224
  -------         ENDPROC       DRV_AUDIO_DPOUTINIT
  -------         PROC          DRV_AUDIO_SPDIFOUTINIT
  C:AEADH         LINE#         226
  C:AEADH         LINE#         227
  C:AEADH         LINE#         233
  -------         ENDPROC       DRV_AUDIO_SPDIFOUTINIT
  -------         PROC          DRV_AUDIO_EARCOUTINIT
  C:AEAEH         LINE#         235
  C:AEAEH         LINE#         236
  C:AEAEH         LINE#         253
  -------         ENDPROC       DRV_AUDIO_EARCOUTINIT
  -------         PROC          DRV_AUDIO_ACRPLLINIT
  C:AE3AH         LINE#         256
  C:AE3AH         LINE#         257
  C:AE3AH         LINE#         258
  C:AE40H         LINE#         259
  -------         ENDPROC       DRV_AUDIO_ACRPLLINIT
  -------         PROC          DRV_AUDIO_INIT
BL51 BANKED LINKER/LOCATER V6.22                                                      06/21/2023  15:37:55  PAGE 199


  C:A8B3H         LINE#         261
  C:A8B3H         LINE#         262
  C:A8B3H         LINE#         264
  C:A8B6H         LINE#         265
  C:A8B9H         LINE#         266
  C:A8BCH         LINE#         267
  C:A8BFH         LINE#         268
  C:A8C2H         LINE#         270
  C:A8C5H         LINE#         271
  C:A8C8H         LINE#         272
  C:A8CBH         LINE#         273
  C:A8CEH         LINE#         274
  -------         ENDPROC       DRV_AUDIO_INIT
  -------         PROC          _DRV_AUDIO_HDMINCTSVALUESET
  D:0007H         SYMBOL        IsHdmi21
  C:A631H         LINE#         277
  C:A631H         LINE#         278
  C:A631H         LINE#         280
  C:A638H         LINE#         281
  C:A638H         LINE#         282
  C:A63CH         LINE#         283
  C:A63FH         LINE#         284
  C:A646H         LINE#         285
  C:A647H         LINE#         287
  C:A647H         LINE#         288
  C:A64BH         LINE#         289
  C:A64EH         LINE#         290
  C:A655H         LINE#         291
  C:A655H         LINE#         295
  -------         ENDPROC       _DRV_AUDIO_HDMINCTSVALUESET
  -------         PROC          _DRV_AUDIO_OUTEN
  D:0007H         SYMBOL        ucOpt
  C:A22AH         LINE#         297
  C:A22AH         LINE#         298
  C:A22AH         LINE#         302
  C:A231H         LINE#         303
  C:A231H         LINE#         304
  C:A235H         LINE#         305
  C:A23CH         LINE#         306
  C:A243H         LINE#         307
  C:A244H         LINE#         309
  C:A244H         LINE#         310
  C:A248H         LINE#         311
  C:A24FH         LINE#         312
  C:A256H         LINE#         313
  C:A256H         LINE#         338
  -------         ENDPROC       _DRV_AUDIO_OUTEN
  -------         PROC          DRV_AUDIO_ACRMUTE
  C:AE95H         LINE#         340
  C:AE95H         LINE#         341
  C:AE95H         LINE#         343
  C:AE97H         LINE#         347
  -------         ENDPROC       DRV_AUDIO_ACRMUTE
  -------         ENDMOD        DRVAUDIO

  -------         MODULE        DRVBILLBOARD
  C:0000H         SYMBOL        _ICE_DUMMY_
BL51 BANKED LINKER/LOCATER V6.22                                                      06/21/2023  15:37:55  PAGE 200


  D:00C8H         PUBLIC        T2CON
  -------         ENDMOD        DRVBILLBOARD

  -------         MODULE        DRVCEC
  C:0000H         SYMBOL        _ICE_DUMMY_
  D:00C8H         PUBLIC        T2CON
  -------         ENDMOD        DRVCEC

  -------         MODULE        DRVCSC
  C:0000H         SYMBOL        _ICE_DUMMY_
  D:00C8H         PUBLIC        T2CON
  -------         ENDMOD        DRVCSC

  -------         MODULE        DRVDDCMAST
  C:0000H         SYMBOL        _ICE_DUMMY_
  C:AA31H         PUBLIC        _Drv_HdmiTx_ReadI2CByte
  C:883BH         PUBLIC        _Drv_HdmiTx_WriteI2CByte
  C:59ECH         PUBLIC        _Drv_HdmiTx_ReadI2CByteN
  D:00C8H         PUBLIC        T2CON
  C:A460H         PUBLIC        _Drv_HdmiTx_DdcSoftMode
  -------         PROC          _DRV_HDMITX_DDCSOFTMODE
  D:0007H         SYMBOL        b1IsSoftEn
  C:A460H         LINE#         12
  C:A460H         LINE#         13
  C:A460H         LINE#         14
  C:A464H         LINE#         15
  C:A464H         LINE#         16
  C:A46BH         LINE#         17
  C:A472H         LINE#         18
  C:A473H         LINE#         20
  C:A473H         LINE#         21
  C:A47AH         LINE#         22
  C:A481H         LINE#         23
  C:A488H         LINE#         24
  C:A488H         LINE#         25
  -------         ENDPROC       _DRV_HDMITX_DDCSOFTMODE
  -------         PROC          _DRV_HDMITX_WRITEI2CBYTE
  X:04C1H         SYMBOL        usRegAddr
  X:04C3H         SYMBOL        ucValue
  -------         DO            
  X:04C4H         SYMBOL        ucDelay
  -------         ENDDO         
  C:883BH         LINE#         26
  C:8846H         LINE#         27
  C:8846H         LINE#         30
  C:884BH         LINE#         31
  C:8858H         LINE#         32
  C:885DH         LINE#         33
  C:8863H         LINE#         34
  C:886BH         LINE#         35
  C:8871H         LINE#         36
  C:8876H         LINE#         37
  C:8886H         LINE#         38
  C:8886H         LINE#         39
  C:888DH         LINE#         40
  C:8893H         LINE#         41
  C:8895H         LINE#         42
BL51 BANKED LINKER/LOCATER V6.22                                                      06/21/2023  15:37:55  PAGE 201


  C:889BH         LINE#         43
  -------         ENDPROC       _DRV_HDMITX_WRITEI2CBYTE
  -------         PROC          _DRV_HDMITX_READI2CBYTEN
  X:04C2H         SYMBOL        ucSegmentAddr
  X:04C3H         SYMBOL        usRegAddr
  X:04C5H         SYMBOL        pucValue
  X:04C8H         SYMBOL        ucNum
  -------         DO            
  X:04C9H         SYMBOL        b1Vaule
  D:0007H         SYMBOL        ucReadCnt
  X:04CAH         SYMBOL        usDelay
  -------         ENDDO         
  C:59ECH         LINE#         46
  C:59FBH         LINE#         47
  C:59FBH         LINE#         52
  C:5A00H         LINE#         54
  C:5A08H         LINE#         55
  C:5A0DH         LINE#         56
  C:5A14H         LINE#         58
  C:5A21H         LINE#         59
  C:5A34H         LINE#         60
  C:5A39H         LINE#         61
  C:5A41H         LINE#         62
  C:5A50H         LINE#         63
  C:5A55H         LINE#         64
  C:5A5BH         LINE#         65
  C:5A71H         LINE#         66
  C:5A71H         LINE#         67
  C:5A78H         LINE#         68
  C:5A82H         LINE#         69
  C:5A84H         LINE#         70
  C:5A8BH         LINE#         71
  C:5A8BH         LINE#         72
  C:5A90H         LINE#         73
  C:5A9BH         LINE#         74
  C:5A9DH         LINE#         76
  C:5A9DH         LINE#         77
  C:5AA4H         LINE#         78
  C:5AB0H         LINE#         79
  C:5AB0H         LINE#         80
  C:5AB5H         LINE#         81
  C:5AC4H         LINE#         82
  C:5ACEH         LINE#         83
  C:5AD1H         LINE#         84
  C:5AD7H         LINE#         85
  C:5AD7H         LINE#         86
  C:5ADDH         LINE#         87
  C:5AE2H         LINE#         88
  C:5AE9H         LINE#         89
  C:5AEEH         LINE#         91
  C:5AF3H         LINE#         92
  -------         ENDPROC       _DRV_HDMITX_READI2CBYTEN
  -------         PROC          _DRV_HDMITX_READI2CBYTE
  D:0006H         SYMBOL        usRegAddr
  -------         DO            
  X:04C1H         SYMBOL        ucVaule
  -------         ENDDO         
BL51 BANKED LINKER/LOCATER V6.22                                                      06/21/2023  15:37:55  PAGE 202


  C:AA31H         LINE#         94
  C:AA31H         LINE#         95
  C:AA31H         LINE#         97
  C:AA46H         LINE#         98
  C:AA4BH         LINE#         99
  -------         ENDPROC       _DRV_HDMITX_READI2CBYTE
  -------         ENDMOD        DRVDDCMAST

  -------         MODULE        DRVDPRX
  C:0000H         SYMBOL        _ICE_DUMMY_
  C:6DCCH         PUBLIC        szDpRxEqConfig
  C:5CFCH         PUBLIC        Drv_DpRx_DpcdInit
  C:9E7EH         PUBLIC        Drv_DpRx_MainLink
  C:8189H         PUBLIC        Drv_DpRx_RtermCal
  C:A795H         PUBLIC        _CHIP_USB3Gen1_Mux
  C:A144H         PUBLIC        _Drv_DpRx_CrLockThresholdSet
  C:A084H         PUBLIC        Drv_DpRx_FreqIntg
  C:AB8CH         PUBLIC        Drv_DpRx_PpsInfoCheck
  C:90E8H         PUBLIC        _Drv_DpRx_AudioInfoGet
  C:9FEFH         PUBLIC        DRV_DpRx_VideoStreamFlag
  C:ABFCH         PUBLIC        Drv_DpRx_MsaPktDetEn
  C:A8D1H         PUBLIC        Drv_DpRx_DeSkewCheck
  C:AE98H         PUBLIC        Drv_DpRx_DscDecState
  C:9285H         PUBLIC        _Drv_DpRx_CtleSet
  C:AEAFH         PUBLIC        Drv_DpRx_TimingHBE
  C:8708H         PUBLIC        Drv_DpRx_PcrInit
  C:AC31H         PUBLIC        _Drv_DpRx_EqMode
  C:A257H         PUBLIC        Drv_DpRx_VscPktCheck
  C:A2DDH         PUBLIC        Drv_DpRx_AuxInit
  C:ABA0H         PUBLIC        _Drv_DpRx_CdrSet
  C:A309H         PUBLIC        Drv_DpRx_PhyInit
  C:99C9H         PUBLIC        _Drv_DpRx_HpdSet
  C:AD9EH         PUBLIC        Drv_DpRx_ErrClr
  C:AC20H         PUBLIC        _Drv_DpRx_AuxSwap
  C:9F1FH         PUBLIC        _Drv_DpRx_LinkClkSel
  C:AD05H         PUBLIC        _Drv_DpRx_DivSet
  C:918FH         PUBLIC        _Drv_DpRx_Cp2520KeyCodeSet
  C:9FBCH         PUBLIC        Drv_DpRx_ClkMux
  C:75ABH         PUBLIC        _Drv_DpRx_VidColorInfoGet
  C:7502H         PUBLIC        _Drv_DpRx_SscJudgeByRxFm
  C:4CA1H         PUBLIC        _Drv_DpRx_RxTimingGet
  C:AA15H         PUBLIC        Drv_DpRx_DigitalInit
  C:8114H         PUBLIC        _Drv_DpRx_ChannelSwap
  C:63CCH         PUBLIC        _Drv_DpRx_PcrModeSet
  C:A750H         PUBLIC        Drv_DpRx_PowerOnInit
  C:A501H         PUBLIC        Drv_DpRx_PcrPllInit
  C:88A0H         PUBLIC        _Drv_DpRx_AnaCdrRst
  C:9A0CH         PUBLIC        _Drv_DpRx_PiSet
  C:9094H         PUBLIC        _Drv_DpRx_RxPllBand
  C:A56BH         PUBLIC        _Drv_DpRx_Dpcd_ValueWrite
  C:AD93H         PUBLIC        _Drv_DpRx_Dpcd_HighAddrWrite
  C:3BD7H         PUBLIC        Drv_DpRx_RxPllCali
  C:A576H         PUBLIC        Drv_DpRx_HwResetSet
  C:AC52H         PUBLIC        Drv_DpRx_AuxDcDet
  D:00C8H         PUBLIC        T2CON
  C:9669H         PUBLIC        Drv_DpRx_SettingInit
  C:AEB0H         PUBLIC        Drv_DpRx_TimingFifoReset
BL51 BANKED LINKER/LOCATER V6.22                                                      06/21/2023  15:37:55  PAGE 203


  C:AB39H         PUBLIC        Drv_DpRx_EccErrorCheck
  C:ACBFH         PUBLIC        _Drv_DpRx_PiEnable
  C:9746H         PUBLIC        _Drv_DpRx_Reset
  -------         PROC          _CHIP_USB3GEN1_MUX
  D:0007H         SYMBOL        IsFlip
  D:0005H         SYMBOL        MaxLane
  C:A795H         LINE#         29
  C:A795H         LINE#         30
  C:A795H         LINE#         31
  C:A799H         LINE#         32
  C:A799H         LINE#         33
  C:A7A2H         LINE#         34
  C:A7A2H         LINE#         35
  C:A7A5H         LINE#         36
  C:A7A6H         LINE#         43
  C:A7A6H         LINE#         44
  C:A7AFH         LINE#         45
  C:A7AFH         LINE#         46
  C:A7B2H         LINE#         47
  C:A7B3H         LINE#         49
  C:A7B3H         LINE#         50
  C:A7B6H         LINE#         51
  C:A7B6H         LINE#         52
  C:A7B6H         LINE#         53
  -------         ENDPROC       _CHIP_USB3GEN1_MUX
  -------         PROC          DRV_DPRX_AUXINIT
  C:A2DDH         LINE#         55
  C:A2DDH         LINE#         56
  C:A2DDH         LINE#         63
  C:A2E3H         LINE#         66
  C:A2EAH         LINE#         67
  C:A2F1H         LINE#         68
  C:A2F4H         LINE#         69
  C:A2F7H         LINE#         71
  C:A2FEH         LINE#         72
  C:A301H         LINE#         73
  C:A308H         LINE#         74
  -------         ENDPROC       DRV_DPRX_AUXINIT
  -------         PROC          _DRV_DPRX_AUXSWAP
  D:0007H         SYMBOL        b1SwapEn
  C:AC20H         LINE#         77
  C:AC20H         LINE#         78
  C:AC20H         LINE#         79
  C:AC27H         LINE#         80
  C:AC27H         LINE#         81
  C:AC2BH         LINE#         82
  C:AC2CH         LINE#         84
  C:AC2CH         LINE#         85
  C:AC30H         LINE#         86
  C:AC30H         LINE#         87
  -------         ENDPROC       _DRV_DPRX_AUXSWAP
  -------         PROC          DRV_DPRX_AUXDCDET
  C:AC52H         LINE#         98
  C:AC52H         LINE#         99
  C:AC52H         LINE#         100
  C:AC5CH         LINE#         101
  C:AC5CH         LINE#         102
BL51 BANKED LINKER/LOCATER V6.22                                                      06/21/2023  15:37:55  PAGE 204


  C:AC5FH         LINE#         103
  C:AC5FH         LINE#         105
  C:AC5FH         LINE#         106
  C:AC61H         LINE#         107
  C:AC61H         LINE#         108
  -------         ENDPROC       DRV_DPRX_AUXDCDET
  -------         PROC          _DRV_DPRX_HPDSET
  D:0007H         SYMBOL        b1IsHigh
  D:0005H         SYMBOL        b1IsIrqHigh
  C:99C9H         LINE#         111
  C:99C9H         LINE#         112
  C:99C9H         LINE#         113
  C:99CEH         LINE#         114
  C:99CEH         LINE#         115
  C:99D4H         LINE#         116
  C:99D4H         LINE#         117
  C:99DDH         LINE#         118
  C:99E4H         LINE#         119
  C:99E7H         LINE#         120
  C:99E8H         LINE#         122
  C:99E8H         LINE#         123
  C:99F1H         LINE#         124
  C:99F8H         LINE#         125
  C:99F8H         LINE#         126
  C:99F9H         LINE#         128
  C:99F9H         LINE#         129
  C:9A04H         LINE#         130
  C:9A0BH         LINE#         131
  C:9A0BH         LINE#         132
  -------         ENDPROC       _DRV_DPRX_HPDSET
  -------         PROC          _DRV_DPRX_DPCD_HIGHADDRWRITE
  D:0007H         SYMBOL        ucAddr15_8
  C:AD93H         LINE#         135
  C:AD93H         LINE#         136
  C:AD93H         LINE#         137
  C:AD98H         LINE#         138
  C:AD9DH         LINE#         139
  -------         ENDPROC       _DRV_DPRX_DPCD_HIGHADDRWRITE
  C:A562H         SYMBOL        L?0213
  -------         PROC          L?0212
  -------         ENDPROC       L?0212
  C:A562H         SYMBOL        L?0213
  -------         PROC          _DRV_DPRX_DPCD_VALUEWRITE
  D:0007H         SYMBOL        ucAddr7_0
  D:0005H         SYMBOL        ucValue
  C:A56BH         LINE#         148
  C:A56BH         LINE#         149
  C:A56BH         LINE#         150
  C:A570H         LINE#         151
  C:A575H         LINE#         152
  -------         ENDPROC       _DRV_DPRX_DPCD_VALUEWRITE
  -------         PROC          DRV_DPRX_DPCDINIT
  X:04B1H         SYMBOL        pstDpRx
  -------         DO            
  D:0004H         SYMBOL        ucTps3Support
  D:0003H         SYMBOL        ucTps4Support
  D:0006H         SYMBOL        ucSscCap
BL51 BANKED LINKER/LOCATER V6.22                                                      06/21/2023  15:37:55  PAGE 205


  -------         ENDDO         
  C:5CFCH         LINE#         162
  C:5CFCH         LINE#         163
  C:5CFCH         LINE#         166
  C:5D0AH         LINE#         167
  C:5D18H         LINE#         168
  C:5D26H         LINE#         170
  C:5D2BH         LINE#         171
  C:5D30H         LINE#         172
  C:5D38H         LINE#         173
  C:5D38H         LINE#         174
  C:5D3BH         LINE#         175
  C:5D3DH         LINE#         177
  C:5D3DH         LINE#         178
  C:5D44H         LINE#         179
  C:5D44H         LINE#         180
  C:5D4FH         LINE#         181
  C:5D56H         LINE#         182
  C:5D5CH         LINE#         183
  C:5D62H         LINE#         184
  C:5D68H         LINE#         187
  C:5D6EH         LINE#         193
  C:5D70H         LINE#         198
  C:5D70H         LINE#         199
  C:5D70H         LINE#         200
  C:5D70H         LINE#         201
  C:5D70H         LINE#         202
  C:5D73H         LINE#         203
  C:5D79H         LINE#         208
  C:5D7CH         LINE#         210
  C:5D7CH         LINE#         211
  C:5D7FH         LINE#         232
  C:5D86H         LINE#         237
  C:5D8DH         LINE#         240
  C:5D92H         LINE#         241
  C:5D97H         LINE#         243
  C:5D9CH         LINE#         247
  C:5DA2H         LINE#         266
  C:5DA7H         LINE#         267
  C:5DAEH         LINE#         268
  C:5DB7H         LINE#         269
  C:5DC1H         LINE#         270
  C:5DCBH         LINE#         271
  C:5DD1H         LINE#         272
  C:5DD7H         LINE#         274
  C:5DDDH         LINE#         277
  C:5DE3H         LINE#         282
  C:5DE5H         LINE#         283
  C:5DE5H         LINE#         284
  C:5DE5H         LINE#         285
  C:5DE5H         LINE#         286
  C:5DE5H         LINE#         287
  C:5DE8H         LINE#         288
  C:5DEEH         LINE#         289
  C:5DF5H         LINE#         292
  -------         ENDPROC       DRV_DPRX_DPCDINIT
  -------         PROC          DRV_DPRX_PHYINIT
BL51 BANKED LINKER/LOCATER V6.22                                                      06/21/2023  15:37:55  PAGE 206


  C:A309H         LINE#         308
  C:A309H         LINE#         309
  C:A309H         LINE#         310
  C:A30FH         LINE#         315
  C:A315H         LINE#         317
  C:A31BH         LINE#         319
  C:A321H         LINE#         321
  C:A327H         LINE#         322
  C:A32DH         LINE#         331
  C:A334H         LINE#         335
  -------         ENDPROC       DRV_DPRX_PHYINIT
  -------         PROC          DRV_DPRX_RTERMCAL
  -------         DO            
  X:04B1H         SYMBOL        ucIndex
  X:04B2H         SYMBOL        ucResult
  -------         ENDDO         
  C:8189H         LINE#         337
  C:8189H         LINE#         338
  C:8189H         LINE#         340
  C:818EH         LINE#         342
  C:8195H         LINE#         343
  C:819BH         LINE#         344
  C:81A5H         LINE#         345
  C:81A5H         LINE#         346
  C:81ACH         LINE#         347
  C:81B3H         LINE#         348
  C:81BAH         LINE#         349
  C:81C1H         LINE#         350
  C:81CBH         LINE#         351
  C:81CBH         LINE#         352
  C:81D1H         LINE#         353
  C:81D1H         LINE#         354
  C:81D1H         LINE#         355
  C:81D1H         LINE#         356
  C:81E4H         LINE#         357
  C:81EDH         LINE#         358
  C:81EDH         LINE#         359
  C:81F1H         LINE#         360
  C:81F3H         LINE#         362
  C:81F3H         LINE#         363
  C:81FCH         LINE#         364
  C:81FCH         LINE#         365
  -------         ENDPROC       DRV_DPRX_RTERMCAL
  -------         PROC          _DRV_DPRX_CRLOCKTHRESHOLDSET
  D:0007H         SYMBOL        b1IsLock
  C:A144H         LINE#         377
  C:A144H         LINE#         378
  C:A144H         LINE#         379
  C:A148H         LINE#         380
  C:A148H         LINE#         381
  C:A14DH         LINE#         382
  C:A151H         LINE#         383
  C:A157H         LINE#         384
  C:A15DH         LINE#         385
  C:A15EH         LINE#         387
  C:A15EH         LINE#         388
  C:A163H         LINE#         389
BL51 BANKED LINKER/LOCATER V6.22                                                      06/21/2023  15:37:55  PAGE 207


  C:A169H         LINE#         390
  C:A16EH         LINE#         391
  C:A172H         LINE#         392
  C:A172H         LINE#         393
  -------         ENDPROC       _DRV_DPRX_CRLOCKTHRESHOLDSET
  -------         PROC          _DRV_DPRX_PIENABLE
  D:0007H         SYMBOL        ucOpt
  C:ACBFH         LINE#         395
  C:ACBFH         LINE#         396
  C:ACBFH         LINE#         397
  C:ACC6H         LINE#         398
  C:ACC6H         LINE#         399
  C:ACC9H         LINE#         401
  C:ACCAH         LINE#         403
  C:ACCAH         LINE#         404
  C:ACCDH         LINE#         406
  C:ACCDH         LINE#         407
  -------         ENDPROC       _DRV_DPRX_PIENABLE
  -------         PROC          _DRV_DPRX_PISET
  D:0007H         SYMBOL        ucLinkRate
  C:9A0CH         LINE#         409
  C:9A0CH         LINE#         410
  C:9A0CH         LINE#         411
  C:9A1DH         LINE#         412
  C:9A1DH         LINE#         413
  C:9A1DH         LINE#         422
  C:9A1DH         LINE#         423
  C:9A1DH         LINE#         425
  C:9A1FH         LINE#         426
  C:9A1FH         LINE#         433
  C:9A1FH         LINE#         434
  C:9A1FH         LINE#         436
  C:9A1FH         LINE#         437
  C:9A25H         LINE#         445
  C:9A29H         LINE#         447
  C:9A2AH         LINE#         448
  C:9A2AH         LINE#         449
  C:9A30H         LINE#         450
  C:9A35H         LINE#         451
  C:9A35H         LINE#         452
  C:9A35H         LINE#         455
  C:9A37H         LINE#         456
  C:9A37H         LINE#         457
  C:9A3DH         LINE#         458
  C:9A43H         LINE#         459
  C:9A47H         LINE#         460
  C:9A4DH         LINE#         461
  C:9A4DH         LINE#         462
  C:9A4DH         LINE#         463
  -------         ENDPROC       _DRV_DPRX_PISET
  -------         PROC          DRV_DPRX_FREQINTG
  C:A084H         LINE#         465
  C:A084H         LINE#         466
  C:A084H         LINE#         467
  C:A08AH         LINE#         468
  C:A090H         LINE#         469
  C:A096H         LINE#         470
BL51 BANKED LINKER/LOCATER V6.22                                                      06/21/2023  15:37:55  PAGE 208


  C:A09CH         LINE#         471
  C:A0A2H         LINE#         472
  C:A0A8H         LINE#         473
  C:A0AEH         LINE#         474
  C:A0B4H         LINE#         475
  -------         ENDPROC       DRV_DPRX_FREQINTG
  -------         PROC          _DRV_DPRX_ANACDRRST
  X:05B0H         SYMBOL        ucLinkRate
  C:88A0H         LINE#         485
  C:88A5H         LINE#         486
  C:88A5H         LINE#         487
  C:88ABH         LINE#         489
  C:88B2H         LINE#         490
  C:88B6H         LINE#         491
  C:88BDH         LINE#         492
  C:88C4H         LINE#         493
  C:88CBH         LINE#         494
  C:88D2H         LINE#         495
  C:88E4H         LINE#         496
  C:88EAH         LINE#         498
  C:88F1H         LINE#         499
  C:88F8H         LINE#         500
  C:88FFH         LINE#         502
  C:8904H         LINE#         503
  -------         ENDPROC       _DRV_DPRX_ANACDRRST
  -------         PROC          _DRV_DPRX_CDRSET
  D:0007H         SYMBOL        b1SscEnable
  D:0005H         SYMBOL        ucLinkRate
  C:ABA0H         LINE#         526
  C:ABA0H         LINE#         527
  C:ABA0H         LINE#         529
  C:ABA5H         LINE#         531
  C:ABB2H         LINE#         532
  C:ABB2H         LINE#         533
  C:ABB2H         LINE#         534
  C:ABB2H         LINE#         535
  C:ABB2H         LINE#         536
  C:ABB2H         LINE#         537
  C:ABB2H         LINE#         538
  C:ABB2H         LINE#         539
  C:ABB2H         LINE#         540
  C:ABB2H         LINE#         541
  C:ABB2H         LINE#         542
  C:ABB2H         LINE#         543
  C:ABB2H         LINE#         544
  C:ABB2H         LINE#         577
  -------         ENDPROC       _DRV_DPRX_CDRSET
  -------         PROC          _DRV_DPRX_DIVSET
  D:0007H         SYMBOL        ucLinkRate
  C:AD05H         LINE#         579
  C:AD05H         LINE#         580
  C:AD05H         LINE#         583
  C:AD0BH         LINE#         584
  C:AD11H         LINE#         585
  C:AD11H         LINE#         586
  C:AD11H         LINE#         587
  C:AD11H         LINE#         588
BL51 BANKED LINKER/LOCATER V6.22                                                      06/21/2023  15:37:55  PAGE 209


  C:AD11H         LINE#         589
  C:AD11H         LINE#         590
  C:AD11H         LINE#         591
  C:AD11H         LINE#         592
  C:AD11H         LINE#         593
  C:AD11H         LINE#         594
  C:AD11H         LINE#         595
  C:AD11H         LINE#         596
  C:AD11H         LINE#         597
  C:AD11H         LINE#         642
  -------         ENDPROC       _DRV_DPRX_DIVSET
  -------         PROC          DRV_DPRX_PCRPLLINIT
  C:A501H         LINE#         644
  C:A501H         LINE#         645
  C:A501H         LINE#         646
  C:A508H         LINE#         647
  C:A50BH         LINE#         648
  C:A511H         LINE#         649
  C:A516H         LINE#         650
  C:A51BH         LINE#         651
  C:A51FH         LINE#         653
  C:A525H         LINE#         655
  C:A528H         LINE#         656
  -------         ENDPROC       DRV_DPRX_PCRPLLINIT
  -------         PROC          DRV_DPRX_CLKMUX
  C:9FBCH         LINE#         659
  C:9FBCH         LINE#         660
  C:9FBCH         LINE#         662
  C:9FC2H         LINE#         665
  C:9FC7H         LINE#         668
  C:9FCBH         LINE#         671
  C:9FD0H         LINE#         673
  C:9FD6H         LINE#         675
  C:9FDCH         LINE#         676
  C:9FE2H         LINE#         678
  C:9FE8H         LINE#         679
  C:9FEEH         LINE#         681
  -------         ENDPROC       DRV_DPRX_CLKMUX
  -------         PROC          _DRV_DPRX_RXPLLBAND
  D:0007H         SYMBOL        ucLinkRate
  C:9094H         LINE#         684
  C:9094H         LINE#         685
  C:9094H         LINE#         687
  C:90A5H         LINE#         688
  C:90A5H         LINE#         689
  C:90A5H         LINE#         690
  C:90A5H         LINE#         691
  C:90AAH         LINE#         692
  C:90B0H         LINE#         693
  C:90B5H         LINE#         694
  C:90B5H         LINE#         695
  C:90B7H         LINE#         696
  C:90B7H         LINE#         697
  C:90BCH         LINE#         698
  C:90C2H         LINE#         699
  C:90C8H         LINE#         700
  C:90CEH         LINE#         701
BL51 BANKED LINKER/LOCATER V6.22                                                      06/21/2023  15:37:55  PAGE 210


  C:90CFH         LINE#         702
  C:90CFH         LINE#         703
  C:90D5H         LINE#         704
  C:90DBH         LINE#         705
  C:90E1H         LINE#         706
  C:90E7H         LINE#         707
  C:90E7H         LINE#         708
  C:90E7H         LINE#         709
  C:90E7H         LINE#         711
  C:90E7H         LINE#         756
  -------         ENDPROC       _DRV_DPRX_RXPLLBAND
  -------         PROC          DRV_DPRX_RXPLLCALI
  -------         DO            
  X:04B1H         SYMBOL        ucCnt
  X:04B2H         SYMBOL        ucloop_rxpll_cal
  -------         ENDDO         
  C:3BD7H         LINE#         758
  C:3BD7H         LINE#         759
  C:3BD7H         LINE#         763
  C:3BDEH         LINE#         764
  C:3BE1H         LINE#         765
  C:3BE4H         LINE#         766
  C:3BE7H         LINE#         769
  C:3BEDH         LINE#         770
  C:3BF1H         LINE#         771
  C:3BF7H         LINE#         773
  C:3BFBH         LINE#         775
  C:3C02H         LINE#         776
  C:3C08H         LINE#         778
  C:3C0EH         LINE#         781
  C:3C14H         LINE#         782
  C:3C19H         LINE#         783
  C:3C1FH         LINE#         785
  C:3C25H         LINE#         788
  C:3C2BH         LINE#         790
  C:3C32H         LINE#         792
  C:3C44H         LINE#         793
  C:3C44H         LINE#         803
  C:3C53H         LINE#         805
  C:3C5AH         LINE#         806
  C:3C6BH         LINE#         807
  C:3C6BH         LINE#         808
  C:3C6BH         LINE#         809
  C:3C70H         LINE#         810
  C:3C72H         LINE#         811
  C:3C72H         LINE#         812
  C:3C79H         LINE#         813
  C:3C7BH         LINE#         814
  C:3C7BH         LINE#         815
  C:3C82H         LINE#         816
  C:3C84H         LINE#         817
  C:3C84H         LINE#         818
  C:3C8BH         LINE#         819
  C:3C8BH         LINE#         820
  C:3C8BH         LINE#         821
  C:3C8BH         LINE#         822
  C:3C8BH         LINE#         823
BL51 BANKED LINKER/LOCATER V6.22                                                      06/21/2023  15:37:55  PAGE 211


  C:3C91H         LINE#         824
  C:3C9BH         LINE#         825
  C:3C9BH         LINE#         826
  C:3CA2H         LINE#         827
  C:3CA9H         LINE#         828
  C:3CB0H         LINE#         829
  C:3CB7H         LINE#         830
  C:3CBEH         LINE#         831
  C:3CC5H         LINE#         832
  C:3CCCH         LINE#         833
  C:3CD3H         LINE#         834
  C:3CDDH         LINE#         835
  C:3CDDH         LINE#         836
  C:3CDDH         LINE#         837
  C:3CDDH         LINE#         839
  C:3CEEH         LINE#         840
  C:3CEEH         LINE#         841
  C:3CEEH         LINE#         842
  C:3CF6H         LINE#         843
  C:3CF8H         LINE#         844
  C:3CF8H         LINE#         845
  C:3D00H         LINE#         846
  C:3D02H         LINE#         847
  C:3D02H         LINE#         848
  C:3D0AH         LINE#         849
  C:3D0CH         LINE#         850
  C:3D0CH         LINE#         851
  C:3D14H         LINE#         852
  C:3D14H         LINE#         853
  C:3D14H         LINE#         854
  C:3D14H         LINE#         855
  C:3D14H         LINE#         856
  C:3D1DH         LINE#         857
  C:3D48H         LINE#         858
  C:3D4FH         LINE#         859
  C:3D55H         LINE#         861
  C:3D5CH         LINE#         862
  -------         ENDPROC       DRV_DPRX_RXPLLCALI
  -------         PROC          _DRV_DPRX_LINKCLKSEL
  D:0005H         SYMBOL        uclinkClk
  C:9F1FH         LINE#         865
  C:9F1FH         LINE#         866
  C:9F1FH         LINE#         867
  C:9F26H         LINE#         868
  C:9F34H         LINE#         869
  C:9F34H         LINE#         870
  C:9F34H         LINE#         871
  C:9F3BH         LINE#         872
  C:9F3CH         LINE#         873
  C:9F3CH         LINE#         874
  C:9F43H         LINE#         875
  C:9F44H         LINE#         876
  C:9F44H         LINE#         877
  C:9F4BH         LINE#         878
  C:9F4CH         LINE#         879
  C:9F4CH         LINE#         880
  C:9F53H         LINE#         881
BL51 BANKED LINKER/LOCATER V6.22                                                      06/21/2023  15:37:55  PAGE 212


  C:9F53H         LINE#         882
  C:9F53H         LINE#         883
  C:9F53H         LINE#         884
  C:9F53H         LINE#         886
  -------         ENDPROC       _DRV_DPRX_LINKCLKSEL
  -------         PROC          _DRV_DPRX_CTLESET
  D:0007H         SYMBOL        ucLinkRate
  C:9285H         LINE#         888
  C:9285H         LINE#         889
  C:9285H         LINE#         890
  C:9296H         LINE#         891
  C:9296H         LINE#         892
  C:9296H         LINE#         893
  C:92A2H         LINE#         894
  C:92A4H         LINE#         895
  C:92A4H         LINE#         896
  C:92B0H         LINE#         897
  C:92B2H         LINE#         898
  C:92B2H         LINE#         899
  C:92BEH         LINE#         900
  C:92C0H         LINE#         901
  C:92C0H         LINE#         902
  C:92D3H         LINE#         903
  C:92D3H         LINE#         904
  C:92D3H         LINE#         905
  C:92D3H         LINE#         906
  C:92D3H         LINE#         907
  -------         ENDPROC       _DRV_DPRX_CTLESET
  -------         PROC          _DRV_DPRX_CHANNELSWAP
  D:0005H         SYMBOL        ucInputSel
  C:8114H         LINE#         909
  C:8114H         LINE#         910
  C:8114H         LINE#         912
  C:811BH         LINE#         914
  C:8129H         LINE#         915
  C:8129H         LINE#         916
  C:8129H         LINE#         917
  C:8129H         LINE#         918
  C:8130H         LINE#         919
  C:8136H         LINE#         921
  C:813CH         LINE#         924
  C:8143H         LINE#         926
  C:8145H         LINE#         928
  C:8145H         LINE#         929
  C:814CH         LINE#         930
  C:814FH         LINE#         931
  C:8155H         LINE#         933
  C:815BH         LINE#         937
  C:8162H         LINE#         939
  C:8164H         LINE#         940
  C:8164H         LINE#         941
  C:816BH         LINE#         942
  C:816EH         LINE#         943
  C:8174H         LINE#         945
  C:817AH         LINE#         948
  C:8181H         LINE#         950
  C:8181H         LINE#         951
BL51 BANKED LINKER/LOCATER V6.22                                                      06/21/2023  15:37:55  PAGE 213


  C:8181H         LINE#         952
  C:8181H         LINE#         953
  C:8181H         LINE#         954
  C:8188H         LINE#         955
  -------         ENDPROC       _DRV_DPRX_CHANNELSWAP
  -------         PROC          _DRV_DPRX_EQMODE
  D:0007H         SYMBOL        ucEqMode
  C:AC31H         LINE#         957
  C:AC31H         LINE#         958
  C:AC31H         LINE#         959
  C:AC38H         LINE#         960
  C:AC38H         LINE#         961
  C:AC3CH         LINE#         962
  C:AC3DH         LINE#         964
  C:AC3DH         LINE#         965
  C:AC41H         LINE#         966
  C:AC41H         LINE#         967
  -------         ENDPROC       _DRV_DPRX_EQMODE
  -------         PROC          DRV_DPRX_DIGITALINIT
  C:AA15H         LINE#         976
  C:AA15H         LINE#         977
  C:AA15H         LINE#         978
  C:AA1CH         LINE#         980
  C:AA23H         LINE#         982
  C:AA29H         LINE#         986
  C:AA30H         LINE#         988
  -------         ENDPROC       DRV_DPRX_DIGITALINIT
  -------         PROC          DRV_DPRX_HWRESETSET
  C:A576H         LINE#         990
  C:A576H         LINE#         991
  C:A576H         LINE#         992
  C:A57DH         LINE#         993
  C:A580H         LINE#         995
  C:A587H         LINE#         996
  C:A58AH         LINE#         998
  C:A591H         LINE#         999
  C:A594H         LINE#         1002
  C:A59BH         LINE#         1003
  -------         ENDPROC       DRV_DPRX_HWRESETSET
  -------         PROC          DRV_DPRX_MAINLINK
  C:9E7EH         LINE#         1012
  C:9E7EH         LINE#         1013
  C:9E7EH         LINE#         1015
  C:9E84H         LINE#         1016
  C:9E8AH         LINE#         1017
  C:9E90H         LINE#         1018
  C:9E97H         LINE#         1019
  C:9E9DH         LINE#         1021
  C:9EA3H         LINE#         1041
  C:9EA9H         LINE#         1044
  C:9EB0H         LINE#         1045
  C:9EB3H         LINE#         1047
  -------         ENDPROC       DRV_DPRX_MAINLINK
  -------         PROC          _DRV_DPRX_RESET
  D:0007H         SYMBOL        ucOpt
  C:9746H         LINE#         1049
  C:9746H         LINE#         1050
BL51 BANKED LINKER/LOCATER V6.22                                                      06/21/2023  15:37:55  PAGE 214


  C:9746H         LINE#         1051
  C:9758H         LINE#         1052
  C:9758H         LINE#         1053
  C:9758H         LINE#         1054
  C:975FH         LINE#         1055
  C:9762H         LINE#         1056
  C:9763H         LINE#         1057
  C:9763H         LINE#         1058
  C:976AH         LINE#         1059
  C:976DH         LINE#         1060
  C:976EH         LINE#         1061
  C:976EH         LINE#         1062
  C:9775H         LINE#         1063
  C:9778H         LINE#         1064
  C:9779H         LINE#         1065
  C:9779H         LINE#         1066
  C:9780H         LINE#         1067
  C:9783H         LINE#         1068
  C:9784H         LINE#         1069
  C:9784H         LINE#         1070
  C:978BH         LINE#         1071
  C:978EH         LINE#         1072
  C:978EH         LINE#         1073
  C:978EH         LINE#         1074
  C:978EH         LINE#         1075
  C:978EH         LINE#         1076
  -------         ENDPROC       _DRV_DPRX_RESET
  -------         PROC          DRV_DPRX_PCRINIT
  C:8708H         LINE#         1085
  C:8708H         LINE#         1086
  C:8708H         LINE#         1087
  C:870EH         LINE#         1088
  C:8714H         LINE#         1091
  C:871BH         LINE#         1093
  C:8721H         LINE#         1094
  C:8727H         LINE#         1096
  C:872DH         LINE#         1097
  C:8733H         LINE#         1098
  C:8739H         LINE#         1099
  C:873EH         LINE#         1101
  C:8744H         LINE#         1102
  C:874AH         LINE#         1104
  C:8750H         LINE#         1105
  C:8756H         LINE#         1106
  C:875CH         LINE#         1108
  C:8762H         LINE#         1110
  C:8768H         LINE#         1111
  C:876EH         LINE#         1112
  -------         ENDPROC       DRV_DPRX_PCRINIT
  -------         PROC          _DRV_DPRX_PCRMODESET
  X:04B1H         SYMBOL        ucOpt
  C:63CCH         LINE#         1115
  C:63D1H         LINE#         1116
  C:63D1H         LINE#         1117
  C:63D5H         LINE#         1118
  C:63D5H         LINE#         1119
  C:63DBH         LINE#         1120
BL51 BANKED LINKER/LOCATER V6.22                                                      06/21/2023  15:37:55  PAGE 215


  C:63E2H         LINE#         1121
  C:63E9H         LINE#         1122
  C:63F0H         LINE#         1124
  C:63F6H         LINE#         1125
  C:63FAH         LINE#         1126
  C:63FEH         LINE#         1127
  C:6403H         LINE#         1128
  C:6409H         LINE#         1129
  C:640FH         LINE#         1130
  C:6415H         LINE#         1131
  C:641BH         LINE#         1133
  C:6421H         LINE#         1134
  C:6427H         LINE#         1135
  C:642DH         LINE#         1136
  C:6433H         LINE#         1137
  C:6439H         LINE#         1139
  C:643FH         LINE#         1140
  C:6445H         LINE#         1141
  C:6447H         LINE#         1142
  C:644DH         LINE#         1143
  C:644DH         LINE#         1145
  C:6453H         LINE#         1146
  C:645AH         LINE#         1147
  C:6461H         LINE#         1148
  C:6468H         LINE#         1151
  C:646EH         LINE#         1152
  C:6474H         LINE#         1153
  C:6479H         LINE#         1154
  C:647DH         LINE#         1155
  C:6483H         LINE#         1156
  C:6489H         LINE#         1157
  C:648EH         LINE#         1158
  C:6492H         LINE#         1160
  C:6496H         LINE#         1161
  C:649CH         LINE#         1162
  C:64A2H         LINE#         1163
  C:64A7H         LINE#         1164
  C:64ADH         LINE#         1166
  C:64B3H         LINE#         1167
  C:64BEH         LINE#         1168
  C:64BEH         LINE#         1169
  -------         ENDPROC       _DRV_DPRX_PCRMODESET
  -------         PROC          DRV_DPRX_DESKEWCHECK
  C:A8D1H         LINE#         1171
  C:A8D1H         LINE#         1172
  C:A8D1H         LINE#         1173
  C:A8D8H         LINE#         1174
  C:A8DBH         LINE#         1175
  C:A8E2H         LINE#         1176
  C:A8E9H         LINE#         1177
  C:A8E9H         LINE#         1178
  C:A8ECH         LINE#         1179
  C:A8ECH         LINE#         1180
  C:A8EEH         LINE#         1181
  -------         ENDPROC       DRV_DPRX_DESKEWCHECK
  -------         PROC          _DRV_DPRX_CP2520KEYCODESET
  D:0005H         SYMBOL        ucPtnMode
BL51 BANKED LINKER/LOCATER V6.22                                                      06/21/2023  15:37:55  PAGE 216


  C:918FH         LINE#         1183
  C:918FH         LINE#         1184
  C:918FH         LINE#         1185
  C:9196H         LINE#         1186
  C:91A5H         LINE#         1187
  C:91A5H         LINE#         1188
  C:91A5H         LINE#         1189
  C:91ABH         LINE#         1190
  C:91ABH         LINE#         1191
  C:91ADH         LINE#         1192
  C:91ADH         LINE#         1193
  C:91B3H         LINE#         1194
  C:91B3H         LINE#         1195
  C:91B5H         LINE#         1196
  C:91B5H         LINE#         1197
  C:91BBH         LINE#         1198
  C:91BBH         LINE#         1199
  C:91BDH         LINE#         1200
  C:91BDH         LINE#         1201
  C:91C4H         LINE#         1202
  C:91CBH         LINE#         1203
  C:91CCH         LINE#         1204
  C:91CCH         LINE#         1205
  C:91D3H         LINE#         1206
  C:91DAH         LINE#         1207
  C:91E1H         LINE#         1208
  C:91E1H         LINE#         1209
  C:91E1H         LINE#         1211
  -------         ENDPROC       _DRV_DPRX_CP2520KEYCODESET
  -------         PROC          DRV_DPRX_ERRCLR
  C:AD9EH         LINE#         1213
  C:AD9EH         LINE#         1214
  C:AD9EH         LINE#         1215
  C:ADA5H         LINE#         1216
  C:ADA8H         LINE#         1217
  -------         ENDPROC       DRV_DPRX_ERRCLR
  -------         PROC          DRV_DPRX_ECCERRORCHECK
  C:AB39H         LINE#         1227
  C:AB39H         LINE#         1228
  C:AB39H         LINE#         1229
  C:AB3FH         LINE#         1230
  C:AB3FH         LINE#         1231
  C:AB46H         LINE#         1232
  C:AB49H         LINE#         1233
  C:AB4CH         LINE#         1234
  C:AB4CH         LINE#         1235
  C:AB4EH         LINE#         1236
  -------         ENDPROC       DRV_DPRX_ECCERRORCHECK
  -------         PROC          DRV_DPRX_MSAPKTDETEN
  C:ABFCH         LINE#         1238
  C:ABFCH         LINE#         1239
  C:ABFCH         LINE#         1240
  C:AC03H         LINE#         1242
  C:AC0AH         LINE#         1243
  C:AC0DH         LINE#         1244
  -------         ENDPROC       DRV_DPRX_MSAPKTDETEN
  -------         PROC          DRV_DPRX_VSCPKTCHECK
BL51 BANKED LINKER/LOCATER V6.22                                                      06/21/2023  15:37:55  PAGE 217


  C:A257H         LINE#         1255
  C:A257H         LINE#         1256
  C:A257H         LINE#         1257
  C:A27EH         LINE#         1258
  C:A27EH         LINE#         1259
  C:A281H         LINE#         1260
  C:A281H         LINE#         1261
  C:A283H         LINE#         1262
  -------         ENDPROC       DRV_DPRX_VSCPKTCHECK
  -------         PROC          _DRV_DPRX_VIDCOLORINFOGET
  D:0001H         SYMBOL        pstInfo
  C:75ABH         LINE#         1264
  C:75ABH         LINE#         1265
  C:75ABH         LINE#         1266
  C:75B3H         LINE#         1267
  C:75B3H         LINE#         1268
  C:75B7H         LINE#         1269
  C:75C8H         LINE#         1270
  C:75D6H         LINE#         1272
  C:75E0H         LINE#         1273
  C:75E0H         LINE#         1274
  C:75E5H         LINE#         1275
  C:75E7H         LINE#         1276
  C:75EBH         LINE#         1277
  C:75EBH         LINE#         1278
  C:75F3H         LINE#         1279
  C:75F3H         LINE#         1281
  C:75FCH         LINE#         1282
  C:75FDH         LINE#         1283
  C:75FFH         LINE#         1285
  C:75FFH         LINE#         1286
  C:7603H         LINE#         1287
  C:7616H         LINE#         1288
  C:7621H         LINE#         1290
  C:762AH         LINE#         1291
  C:762AH         LINE#         1292
  C:7632H         LINE#         1293
  C:7632H         LINE#         1295
  C:7640H         LINE#         1296
  C:764BH         LINE#         1297
  C:764BH         LINE#         1298
  -------         ENDPROC       _DRV_DPRX_VIDCOLORINFOGET
  -------         PROC          _DRV_DPRX_RXTIMINGGET
  D:0001H         SYMBOL        pstTiming
  -------         DO            
  X:066BH         SYMBOL        usStart
  -------         ENDDO         
  C:4CA1H         LINE#         1300
  C:4CA1H         LINE#         1301
  C:4CA1H         LINE#         1304
  C:4CB9H         LINE#         1305
  C:4CD1H         LINE#         1306
  C:4CE7H         LINE#         1307
  C:4CFAH         LINE#         1308
  C:4D10H         LINE#         1309
  C:4D3CH         LINE#         1312
  C:4D54H         LINE#         1313
BL51 BANKED LINKER/LOCATER V6.22                                                      06/21/2023  15:37:55  PAGE 218


  C:4D6CH         LINE#         1314
  C:4D82H         LINE#         1315
  C:4D98H         LINE#         1316
  C:4DAEH         LINE#         1317
  -------         ENDPROC       _DRV_DPRX_RXTIMINGGET
  -------         PROC          _DRV_DPRX_AUDIOINFOGET
  D:0001H         SYMBOL        pstInfo
  C:90E8H         LINE#         1320
  C:90E8H         LINE#         1321
  C:90E8H         LINE#         1322
  C:90F2H         LINE#         1324
  C:90FEH         LINE#         1325
  C:910AH         LINE#         1326
  C:9114H         LINE#         1327
  C:911EH         LINE#         1328
  C:9128H         LINE#         1329
  C:9132H         LINE#         1330
  -------         ENDPROC       _DRV_DPRX_AUDIOINFOGET
  -------         PROC          _DRV_DPRX_SSCJUDGEBYRXFM
  D:0005H         SYMBOL        ucLinkRate
  -------         DO            
  D:0004H         SYMBOL        b1IsSscFlag
  D:0006H         SYMBOL        usLinkClk
  -------         ENDDO         
  C:7502H         LINE#         1333
  C:7504H         LINE#         1334
  C:7504H         LINE#         1337
  C:7506H         LINE#         1338
  C:750DH         LINE#         1339
  C:751EH         LINE#         1340
  C:752FH         LINE#         1341
  C:752FH         LINE#         1342
  C:752FH         LINE#         1343
  C:7539H         LINE#         1344
  C:7539H         LINE#         1345
  C:754AH         LINE#         1346
  C:754AH         LINE#         1347
  C:754CH         LINE#         1348
  C:754CH         LINE#         1349
  C:7556H         LINE#         1350
  C:7556H         LINE#         1351
  C:7567H         LINE#         1352
  C:7567H         LINE#         1353
  C:7569H         LINE#         1354
  C:7569H         LINE#         1355
  C:7573H         LINE#         1356
  C:7573H         LINE#         1357
  C:7584H         LINE#         1358
  C:7584H         LINE#         1359
  C:7586H         LINE#         1360
  C:7586H         LINE#         1361
  C:7590H         LINE#         1362
  C:7590H         LINE#         1363
  C:75A1H         LINE#         1364
  C:75A1H         LINE#         1365
  C:75A1H         LINE#         1366
  C:75A1H         LINE#         1367
BL51 BANKED LINKER/LOCATER V6.22                                                      06/21/2023  15:37:55  PAGE 219


  C:75A1H         LINE#         1368
  C:75A1H         LINE#         1369
  C:75A8H         LINE#         1370
  C:75AAH         LINE#         1371
  -------         ENDPROC       _DRV_DPRX_SSCJUDGEBYRXFM
  -------         PROC          DRV_DPRX_VIDEOSTREAMFLAG
  -------         DO            
  X:066FH         SYMBOL        ucNovideoFlagCnt
  -------         ENDDO         
  C:9FEFH         LINE#         1384
  C:9FEFH         LINE#         1385
  C:9FEFH         LINE#         1388
  C:A00BH         LINE#         1389
  C:A00BH         LINE#         1390
  C:A011H         LINE#         1391
  C:A015H         LINE#         1392
  C:A015H         LINE#         1393
  C:A017H         LINE#         1394
  C:A01AH         LINE#         1395
  C:A01AH         LINE#         1396
  C:A01AH         LINE#         1398
  C:A01AH         LINE#         1399
  C:A01FH         LINE#         1400
  C:A01FH         LINE#         1401
  C:A021H         LINE#         1402
  -------         ENDPROC       DRV_DPRX_VIDEOSTREAMFLAG
  -------         PROC          DRV_DPRX_TIMINGHBE
  C:AEAFH         LINE#         1406
  C:AEAFH         LINE#         1407
  C:AEAFH         LINE#         1409
  -------         ENDPROC       DRV_DPRX_TIMINGHBE
  -------         PROC          DRV_DPRX_TIMINGFIFORESET
  C:AEB0H         LINE#         1411
  C:AEB0H         LINE#         1412
  C:AEB0H         LINE#         1414
  -------         ENDPROC       DRV_DPRX_TIMINGFIFORESET
  -------         PROC          DRV_DPRX_DSCDECSTATE
  C:AE98H         LINE#         1460
  C:AE98H         LINE#         1461
  C:AE98H         LINE#         1469
  C:AE98H         LINE#         1470
  C:AE9AH         LINE#         1471
  C:AE9AH         LINE#         1472
  -------         ENDPROC       DRV_DPRX_DSCDECSTATE
  -------         PROC          DRV_DPRX_PPSINFOCHECK
  C:AB8CH         LINE#         1474
  C:AB8CH         LINE#         1475
  C:AB8CH         LINE#         1477
  C:AB9AH         LINE#         1478
  C:AB9AH         LINE#         1479
  C:AB9DH         LINE#         1480
  C:AB9DH         LINE#         1482
  C:AB9DH         LINE#         1483
  C:AB9FH         LINE#         1484
  C:AB9FH         LINE#         1485
  -------         ENDPROC       DRV_DPRX_PPSINFOCHECK
  -------         PROC          DRV_DPRX_POWERONINIT
BL51 BANKED LINKER/LOCATER V6.22                                                      06/21/2023  15:37:55  PAGE 220


  C:A750H         LINE#         1515
  C:A750H         LINE#         1516
  C:A750H         LINE#         1518
  C:A753H         LINE#         1519
  C:A756H         LINE#         1520
  C:A759H         LINE#         1521
  C:A75EH         LINE#         1522
  C:A761H         LINE#         1523
  C:A764H         LINE#         1526
  C:A767H         LINE#         1527
  C:A76AH         LINE#         1528
  C:A76DH         LINE#         1529
  C:A770H         LINE#         1530
  -------         ENDPROC       DRV_DPRX_POWERONINIT
  -------         PROC          DRV_DPRX_SETTINGINIT
  C:9669H         LINE#         1546
  C:9669H         LINE#         1547
  C:9669H         LINE#         1548
  C:967FH         LINE#         1549
  C:9682H         LINE#         1551
  C:9687H         LINE#         1552
  C:968CH         LINE#         1553
  C:9690H         LINE#         1554
  C:9694H         LINE#         1558
  C:969BH         LINE#         1563
  C:96A2H         LINE#         1564
  C:96A7H         LINE#         1565
  C:96AEH         LINE#         1566
  -------         ENDPROC       DRV_DPRX_SETTINGINIT
  -------         ENDMOD        DRVDPRX

  -------         MODULE        DRVDPRXDSCBYPASS
  C:0000H         SYMBOL        _ICE_DUMMY_
  D:00C8H         PUBLIC        T2CON
  -------         ENDMOD        DRVDPRXDSCBYPASS

  -------         MODULE        DRVDPRXDSCDEC
  C:0000H         SYMBOL        _ICE_DUMMY_
  D:00C8H         PUBLIC        T2CON
  -------         ENDMOD        DRVDPRXDSCDEC

  -------         MODULE        DRVDPTX
  C:0000H         SYMBOL        _ICE_DUMMY_
  D:00C8H         PUBLIC        T2CON
  -------         ENDMOD        DRVDPTX

  -------         MODULE        DRVDPTXDSCBYPASS
  C:0000H         SYMBOL        _ICE_DUMMY_
  D:00C8H         PUBLIC        T2CON
  -------         ENDMOD        DRVDPTXDSCBYPASS

  -------         MODULE        DRVDPTXDSCENC
  C:0000H         SYMBOL        _ICE_DUMMY_
  D:00C8H         PUBLIC        T2CON
  -------         ENDMOD        DRVDPTXDSCENC

  -------         MODULE        DRVGPIO
BL51 BANKED LINKER/LOCATER V6.22                                                      06/21/2023  15:37:55  PAGE 221


  C:0000H         SYMBOL        _ICE_DUMMY_
  C:A284H         PUBLIC        _Drv_GetIO_State
  C:8CD1H         PUBLIC        _Drv_Gpio_ModeSet
  C:AEB1H         PUBLIC        _Drv_Gpio_OutSignalSet
  C:9EB4H         PUBLIC        _Drv_IOSoftLevel_Set
  C:AC62H         PUBLIC        Drv_IO_UartSet
  D:00C8H         PUBLIC        T2CON
  -------         PROC          _DRV_GPIO_OUTSIGNALSET
  D:0007H         SYMBOL        GpioN
  D:0005H         SYMBOL        Function
  C:AEB1H         LINE#         9
  C:AEB1H         LINE#         10
  C:AEB1H         LINE#         11
  C:AEB1H         LINE#         12
  C:AEB1H         LINE#         97
  C:AEB1H         LINE#         98
  C:AEB1H         LINE#         99
  C:AEB1H         LINE#         100
  C:AEB1H         LINE#         101
  -------         ENDPROC       _DRV_GPIO_OUTSIGNALSET
  -------         PROC          _DRV_GPIO_MODESET
  D:0007H         SYMBOL        GpioN
  D:0005H         SYMBOL        Mode
  D:0003H         SYMBOL        Vth
  C:8CD1H         LINE#         112
  C:8CD1H         LINE#         113
  C:8CD1H         LINE#         114
  C:8CDEH         LINE#         115
  C:8CDEH         LINE#         159
  C:8CDEH         LINE#         160
  C:8CE5H         LINE#         161
  C:8CE7H         LINE#         162
  C:8CF2H         LINE#         163
  C:8CF4H         LINE#         164
  C:8CF4H         LINE#         165
  C:8CFCH         LINE#         166
  C:8D02H         LINE#         167
  C:8D0CH         LINE#         168
  C:8D0EH         LINE#         181
  C:8D0EH         LINE#         182
  C:8D16H         LINE#         183
  C:8D1EH         LINE#         184
  C:8D2CH         LINE#         185
  C:8D2CH         LINE#         237
  C:8D2CH         LINE#         238
  C:8D2CH         LINE#         239
  C:8D2CH         LINE#         240
  -------         ENDPROC       _DRV_GPIO_MODESET
  -------         PROC          _DRV_IOSOFTLEVEL_SET
  D:0007H         SYMBOL        GpioN
  D:0005H         SYMBOL        Softlevel
  C:9EB4H         LINE#         242
  C:9EB4H         LINE#         243
  C:9EB4H         LINE#         244
  C:9EBCH         LINE#         245
  C:9EBCH         LINE#         282
  C:9EBCH         LINE#         283
BL51 BANKED LINKER/LOCATER V6.22                                                      06/21/2023  15:37:55  PAGE 222


  C:9EC3H         LINE#         284
  C:9ED2H         LINE#         285
  C:9ED3H         LINE#         286
  C:9ED3H         LINE#         287
  C:9EDAH         LINE#         288
  C:9EE9H         LINE#         289
  C:9EE9H         LINE#         355
  C:9EE9H         LINE#         356
  C:9EE9H         LINE#         357
  C:9EE9H         LINE#         358
  -------         ENDPROC       _DRV_IOSOFTLEVEL_SET
  -------         PROC          _DRV_GETIO_STATE
  D:0007H         SYMBOL        ucGpioN
  -------         DO            
  D:0006H         SYMBOL        ucIOValue
  -------         ENDDO         
  C:A284H         LINE#         360
  C:A284H         LINE#         361
  C:A284H         LINE#         363
  C:A293H         LINE#         364
  C:A293H         LINE#         371
  C:A293H         LINE#         372
  C:A296H         LINE#         373
  C:A298H         LINE#         404
  C:A298H         LINE#         405
  C:A29FH         LINE#         406
  C:A2A1H         LINE#         407
  C:A2A1H         LINE#         408
  C:A2A1H         LINE#         410
  C:A2A1H         LINE#         411
  C:A2A8H         LINE#         412
  C:A2A8H         LINE#         446
  C:A2A8H         LINE#         447
  C:A2A8H         LINE#         448
  C:A2A8H         LINE#         449
  C:A2ABH         LINE#         450
  C:A2ABH         LINE#         451
  C:A2AEH         LINE#         452
  C:A2AEH         LINE#         454
  C:A2AEH         LINE#         455
  C:A2B0H         LINE#         456
  C:A2B0H         LINE#         457
  -------         ENDPROC       _DRV_GETIO_STATE
  -------         PROC          DRV_IO_UARTSET
  C:AC62H         LINE#         459
  C:AC62H         LINE#         460
  C:AC62H         LINE#         462
  C:AC6BH         LINE#         463
  -------         ENDPROC       DRV_IO_UARTSET
  -------         ENDMOD        DRVGPIO

  -------         MODULE        DRVHDCPRX
  C:0000H         SYMBOL        _ICE_DUMMY_
  C:AE1AH         PUBLIC        _Drv_HdcpRx_Enable
  C:AE9BH         PUBLIC        Drv_HdcpRx_VerGet
  C:AEB2H         PUBLIC        Drv_HdcpRx_StateClear
  D:00C8H         PUBLIC        T2CON
BL51 BANKED LINKER/LOCATER V6.22                                                      06/21/2023  15:37:55  PAGE 223


  -------         PROC          _DRV_HDCPRX_ENABLE
  D:0005H         SYMBOL        ucOpt
  C:AE1AH         LINE#         16
  C:AE1AH         LINE#         17
  C:AE1AH         LINE#         66
  C:AE21H         LINE#         67
  C:AE21H         LINE#         131
  -------         ENDPROC       _DRV_HDCPRX_ENABLE
  -------         PROC          DRV_HDCPRX_VERGET
  C:AE9BH         LINE#         140
  C:AE9BH         LINE#         141
  C:AE9BH         LINE#         168
  C:AE9BH         LINE#         169
  C:AE9DH         LINE#         170
  C:AE9DH         LINE#         192
  -------         ENDPROC       DRV_HDCPRX_VERGET
  -------         PROC          DRV_HDCPRX_STATECLEAR
  C:AEB2H         LINE#         194
  C:AEB2H         LINE#         195
  C:AEB2H         LINE#         215
  -------         ENDPROC       DRV_HDCPRX_STATECLEAR
  -------         ENDMOD        DRVHDCPRX

  -------         MODULE        DRVHDCPTX
  C:0000H         SYMBOL        _ICE_DUMMY_
  C:8C72H         PUBLIC        _Drv_HdcpTx_Enable
  C:940EH         PUBLIC        Drv_HdcpTx_HdcpInit
  D:00C8H         PUBLIC        T2CON
  -------         PROC          DRV_HDCPTX_HDCPINIT
  C:940EH         LINE#         9
  C:940EH         LINE#         10
  C:940EH         LINE#         22
  C:9414H         LINE#         23
  C:941AH         LINE#         25
  C:9420H         LINE#         26
  C:9426H         LINE#         58
  C:942DH         LINE#         59
  C:9433H         LINE#         60
  C:9439H         LINE#         61
  C:9440H         LINE#         62
  C:9447H         LINE#         63
  C:944EH         LINE#         65
  C:9454H         LINE#         66
  C:945AH         LINE#         69
  -------         ENDPROC       DRV_HDCPTX_HDCPINIT
  -------         PROC          _DRV_HDCPTX_ENABLE
  X:04B2H         SYMBOL        ucOpt
  C:8C72H         LINE#         78
  C:8C77H         LINE#         79
  C:8C77H         LINE#         111
  C:8C7AH         LINE#         112
  C:8C7AH         LINE#         113
  C:8C81H         LINE#         114
  C:8C88H         LINE#         115
  C:8C8FH         LINE#         116
  C:8C95H         LINE#         117
  C:8C97H         LINE#         118
BL51 BANKED LINKER/LOCATER V6.22                                                      06/21/2023  15:37:55  PAGE 224


  C:8CA1H         LINE#         119
  C:8CA1H         LINE#         120
  C:8CA5H         LINE#         121
  C:8CACH         LINE#         122
  C:8CB7H         LINE#         123
  C:8CB7H         LINE#         125
  C:8CB7H         LINE#         126
  C:8CBBH         LINE#         127
  C:8CC2H         LINE#         128
  C:8CC9H         LINE#         129
  C:8CD0H         LINE#         130
  C:8CD0H         LINE#         142
  -------         ENDPROC       _DRV_HDCPTX_ENABLE
  -------         ENDMOD        DRVHDCPTX

  -------         MODULE        DRVHDMIRX
  C:0000H         SYMBOL        _ICE_DUMMY_
  D:00C8H         PUBLIC        T2CON
  -------         ENDMOD        DRVHDMIRX

  -------         MODULE        DRVHDMIRXDSCBYPASS
  C:0000H         SYMBOL        _ICE_DUMMY_
  D:00C8H         PUBLIC        T2CON
  -------         ENDMOD        DRVHDMIRXDSCBYPASS

  -------         MODULE        DRVHDMIRXDSCDEC
  C:0000H         SYMBOL        _ICE_DUMMY_
  D:00C8H         PUBLIC        T2CON
  -------         ENDMOD        DRVHDMIRXDSCDEC

  -------         MODULE        DRVHDMITX
  C:0000H         SYMBOL        _ICE_DUMMY_
  C:AE22H         PUBLIC        Drv_HdmiTx_DcDet
  C:7EA2H         PUBLIC        _Drv_HdmiTx_TmdsSet
  C:A9DBH         PUBLIC        _Drv_HdmiTx_TxpllDivCal
  C:A7D8H         PUBLIC        Drv_HdmiTx_TmdsVideoOn
  C:856AH         PUBLIC        _Drv_HdmiTx_FrlTxPhySet
  C:9B8CH         PUBLIC        Drv_HdmiTx_PhyDis
  C:AA97H         PUBLIC        Drv_HdmiTx_StaticHdrEnable
  C:A8EFH         PUBLIC        Drv_HdmiTx_DebounceSet
  C:A92BH         PUBLIC        Mod_HmdiTx_PowerOnInit
  C:4A1FH         PUBLIC        _Drv_HdmiTx_PhySet
  C:AAAFH         PUBLIC        Drv_HdmiTx_DymicHdrEnable
  C:AA7FH         PUBLIC        Drv_HdmiTx_DoblyHdrEnable
  C:9A8FH         PUBLIC        _Drv_HdmiTx_FrlDigSet
  C:AE41H         PUBLIC        Drv_HdmiTx_PpsSramSet
  C:AE2AH         PUBLIC        Drv_HdmiTx_FrlVidSet
  C:1979H         PUBLIC        _Drv_HdmiTx_FrlFecLinClkCal
  C:8A30H         PUBLIC        Drv_HdmiTx_RtermCali
  C:A9BEH         PUBLIC        Drv_HdmiTx_TxPllInit
  C:ABB3H         PUBLIC        Drv_HdmiTx_TmdsDivLinkClkSet
  C:AD1FH         PUBLIC        Drv_HdmiTx_DataSel
  C:A6C3H         PUBLIC        Drv_HdmiTx_DdcInit
  C:2C4AH         PUBLIC        _Drv_HdmiTx_TmdsTxPllCal
  C:A90DH         PUBLIC        Drv_HdmiTx_EncPath
  D:00C8H         PUBLIC        T2CON
  C:A857H         PUBLIC        _Drv_HdmiTx_FrlTxRst
BL51 BANKED LINKER/LOCATER V6.22                                                      06/21/2023  15:37:55  PAGE 225


  C:3D5DH         PUBLIC        _Drv_HdmiTx_FrlTxPllCal
  C:AD12H         PUBLIC        Drv_HdmiTx_HpdDet
  -------         PROC          DRV_HDMITX_DDCINIT
  C:A6C3H         LINE#         12
  C:A6C3H         LINE#         13
  C:A6C3H         LINE#         14
  C:A6C9H         LINE#         15
  C:A6D0H         LINE#         18
  C:A6D3H         LINE#         19
  C:A6D6H         LINE#         20
  C:A6D9H         LINE#         23
  C:A6E0H         LINE#         25
  C:A6E6H         LINE#         31
  -------         ENDPROC       DRV_HDMITX_DDCINIT
  -------         PROC          DRV_HDMITX_DEBOUNCESET
  C:A8EFH         LINE#         33
  C:A8EFH         LINE#         34
  C:A8EFH         LINE#         35
  C:A8F6H         LINE#         36
  C:A8F9H         LINE#         37
  C:A900H         LINE#         40
  C:A906H         LINE#         41
  C:A90CH         LINE#         48
  -------         ENDPROC       DRV_HDMITX_DEBOUNCESET
  -------         PROC          DRV_HDMITX_DCDET
  C:AE22H         LINE#         50
  C:AE22H         LINE#         51
  C:AE22H         LINE#         52
  C:AE29H         LINE#         53
  -------         ENDPROC       DRV_HDMITX_DCDET
  -------         PROC          DRV_HDMITX_HPDDET
  C:AD12H         LINE#         55
  C:AD12H         LINE#         56
  C:AD12H         LINE#         57
  C:AD19H         LINE#         58
  C:AD19H         LINE#         59
  C:AD1CH         LINE#         60
  C:AD1CH         LINE#         62
  C:AD1CH         LINE#         63
  C:AD1EH         LINE#         64
  C:AD1EH         LINE#         65
  -------         ENDPROC       DRV_HDMITX_HPDDET
  -------         PROC          DRV_HDMITX_RTERMCALI
  -------         DO            
  X:04B2H         SYMBOL        ucNum
  X:04B3H         SYMBOL        ucRterm_Cali_Cnt
  -------         ENDDO         
  C:8A30H         LINE#         67
  C:8A30H         LINE#         68
  C:8A30H         LINE#         71
  C:8A37H         LINE#         72
  C:8A37H         LINE#         74
  C:8A37H         LINE#         76
  C:8A3EH         LINE#         77
  C:8A44H         LINE#         78
  C:8A49H         LINE#         80
  C:8A49H         LINE#         81
BL51 BANKED LINKER/LOCATER V6.22                                                      06/21/2023  15:37:55  PAGE 226


  C:8A50H         LINE#         82
  C:8A53H         LINE#         83
  C:8A58H         LINE#         84
  C:8A61H         LINE#         85
  C:8A61H         LINE#         86
  C:8A64H         LINE#         87
  C:8A6BH         LINE#         88
  C:8A72H         LINE#         89
  C:8A72H         LINE#         90
  C:8A85H         LINE#         91
  C:8A85H         LINE#         92
  C:8A85H         LINE#         93
  C:8A85H         LINE#         94
  C:8A8BH         LINE#         95
  C:8A91H         LINE#         96
  -------         ENDPROC       DRV_HDMITX_RTERMCALI
  -------         PROC          DRV_HDMITX_DATASEL
  C:AD1FH         LINE#         98
  C:AD1FH         LINE#         99
  C:AD1FH         LINE#         100
  C:AD25H         LINE#         101
  C:AD2BH         LINE#         102
  -------         ENDPROC       DRV_HDMITX_DATASEL
  -------         PROC          DRV_HDMITX_PHYDIS
  C:9B8CH         LINE#         104
  C:9B8CH         LINE#         105
  C:9B8CH         LINE#         106
  C:9B91H         LINE#         107
  C:9B95H         LINE#         108
  C:9B99H         LINE#         111
  C:9BA0H         LINE#         112
  C:9BA7H         LINE#         115
  C:9BACH         LINE#         116
  C:9BB0H         LINE#         118
  C:9BB4H         LINE#         119
  C:9BB8H         LINE#         121
  C:9BC0H         LINE#         122
  -------         ENDPROC       DRV_HDMITX_PHYDIS
  -------         PROC          DRV_HDMITX_TXPLLINIT
  C:A9BEH         LINE#         125
  C:A9BEH         LINE#         126
  C:A9BEH         LINE#         127
  C:A9C4H         LINE#         132
  C:A9CAH         LINE#         133
  C:A9CFH         LINE#         136
  C:A9D5H         LINE#         137
  C:A9DAH         LINE#         139
  -------         ENDPROC       DRV_HDMITX_TXPLLINIT
  -------         PROC          DRV_HDMITX_TMDSDIVLINKCLKSET
  C:ABB3H         LINE#         141
  C:ABB3H         LINE#         142
  C:ABB3H         LINE#         144
  C:ABB9H         LINE#         145
  C:ABC0H         LINE#         146
  C:ABC5H         LINE#         147
  -------         ENDPROC       DRV_HDMITX_TMDSDIVLINKCLKSET
  -------         PROC          _DRV_HDMITX_TMDSSET
BL51 BANKED LINKER/LOCATER V6.22                                                      06/21/2023  15:37:55  PAGE 227


  D:0001H         SYMBOL        pstHdmiTx
  -------         DO            
  D:0007H         SYMBOL        b1IsHdmiMode
  D:0006H         SYMBOL        ucVersion
  X:04B2H         SYMBOL        ucColorDepth
  D:0005H         SYMBOL        ucTxPixelEncoding
  -------         ENDDO         
  C:7EA2H         LINE#         149
  C:7EA2H         LINE#         150
  C:7EA2H         LINE#         153
  C:7EA9H         LINE#         154
  C:7EB0H         LINE#         155
  C:7EBAH         LINE#         156
  C:7EC1H         LINE#         157
  C:7EC5H         LINE#         158
  C:7EC5H         LINE#         159
  C:7ECCH         LINE#         160
  C:7ECEH         LINE#         161
  C:7ED1H         LINE#         162
  C:7ED1H         LINE#         163
  C:7ED8H         LINE#         164
  C:7ED8H         LINE#         166
  C:7EDBH         LINE#         167
  C:7EDBH         LINE#         168
  C:7EE2H         LINE#         169
  C:7EE5H         LINE#         170
  C:7EE7H         LINE#         171
  C:7EEBH         LINE#         172
  C:7EEBH         LINE#         173
  C:7EF2H         LINE#         174
  C:7EF5H         LINE#         175
  C:7EFBH         LINE#         176
  C:7EFBH         LINE#         177
  C:7EFFH         LINE#         178
  C:7EFFH         LINE#         179
  C:7F05H         LINE#         180
  C:7F06H         LINE#         182
  C:7F06H         LINE#         183
  C:7F12H         LINE#         184
  C:7F12H         LINE#         185
  C:7F12H         LINE#         186
  C:7F18H         LINE#         187
  C:7F19H         LINE#         188
  C:7F19H         LINE#         189
  C:7F1FH         LINE#         190
  C:7F20H         LINE#         191
  C:7F20H         LINE#         192
  C:7F20H         LINE#         193
  C:7F25H         LINE#         194
  C:7F25H         LINE#         195
  C:7F25H         LINE#         196
  C:7F25H         LINE#         197
  -------         ENDPROC       _DRV_HDMITX_TMDSSET
  -------         PROC          _DRV_HDMITX_PHYSET
  D:0001H         SYMBOL        pstHdmiTx
  -------         DO            
  X:04B2H         SYMBOL        ucVersion
BL51 BANKED LINKER/LOCATER V6.22                                                      06/21/2023  15:37:55  PAGE 228


  -------         ENDDO         
  C:4A1FH         LINE#         199
  C:4A1FH         LINE#         200
  C:4A1FH         LINE#         202
  C:4A29H         LINE#         204
  C:4A2EH         LINE#         205
  C:4A2EH         LINE#         206
  C:4A35H         LINE#         207
  C:4A38H         LINE#         208
  C:4A3CH         LINE#         209
  C:4A43H         LINE#         211
  C:4A49H         LINE#         212
  C:4A4FH         LINE#         213
  C:4A53H         LINE#         215
  C:4A59H         LINE#         216
  C:4A5FH         LINE#         217
  C:4A65H         LINE#         219
  C:4A6BH         LINE#         220
  C:4A71H         LINE#         221
  C:4A77H         LINE#         223
  C:4A7DH         LINE#         224
  C:4A83H         LINE#         225
  C:4A89H         LINE#         227
  C:4A8FH         LINE#         228
  C:4A95H         LINE#         229
  C:4A9BH         LINE#         231
  C:4AA2H         LINE#         233
  C:4AABH         LINE#         234
  C:4AB1H         LINE#         235
  C:4AB4H         LINE#         236
  C:4ABFH         LINE#         237
  C:4ABFH         LINE#         238
  C:4AC6H         LINE#         239
  C:4AC9H         LINE#         240
  C:4ACDH         LINE#         241
  C:4AD4H         LINE#         243
  C:4ADAH         LINE#         244
  C:4AE0H         LINE#         245
  C:4AE4H         LINE#         247
  C:4AEAH         LINE#         248
  C:4AF0H         LINE#         249
  C:4AF6H         LINE#         251
  C:4AFCH         LINE#         252
  C:4B02H         LINE#         253
  C:4B08H         LINE#         255
  C:4B0EH         LINE#         256
  C:4B14H         LINE#         257
  C:4B1AH         LINE#         259
  C:4B20H         LINE#         260
  C:4B26H         LINE#         261
  C:4B2CH         LINE#         263
  C:4B33H         LINE#         265
  C:4B3CH         LINE#         266
  C:4B43H         LINE#         267
  C:4B4FH         LINE#         268
  C:4B4FH         LINE#         269
  C:4B58H         LINE#         270
BL51 BANKED LINKER/LOCATER V6.22                                                      06/21/2023  15:37:55  PAGE 229


  C:4B58H         LINE#         271
  C:4B63H         LINE#         272
  C:4B63H         LINE#         273
  -------         ENDPROC       _DRV_HDMITX_PHYSET
  -------         PROC          _DRV_HDMITX_TXPLLDIVCAL
  D:0007H         SYMBOL        ucDiv
  -------         DO            
  D:0006H         SYMBOL        ucValue
  -------         ENDDO         
  C:A9DBH         LINE#         274
  C:A9DBH         LINE#         275
  C:A9DBH         LINE#         276
  C:A9DDH         LINE#         277
  C:A9E1H         LINE#         278
  C:A9E1H         LINE#         279
  C:A9E3H         LINE#         280
  C:A9E3H         LINE#         281
  C:A9E7H         LINE#         282
  C:A9E7H         LINE#         283
  C:A9E9H         LINE#         284
  C:A9E9H         LINE#         285
  C:A9EDH         LINE#         286
  C:A9EDH         LINE#         287
  C:A9EFH         LINE#         288
  C:A9EFH         LINE#         289
  C:A9F3H         LINE#         290
  C:A9F3H         LINE#         291
  C:A9F5H         LINE#         292
  C:A9F5H         LINE#         293
  C:A9F7H         LINE#         294
  -------         ENDPROC       _DRV_HDMITX_TXPLLDIVCAL
  -------         PROC          _DRV_HDMITX_TMDSTXPLLCAL
  D:0001H         SYMBOL        pstHdmiTx
  -------         DO            
  X:04B2H         SYMBOL        ucColorDepth
  X:04B3H         SYMBOL        ucCalCnt
  X:04B4H         SYMBOL        ucLockCnt
  X:04B5H         SYMBOL        ucDivN1
  X:04B6H         SYMBOL        ucDivM1
  X:04B7H         SYMBOL        ucDivM2
  X:04B8H         SYMBOL        ucDivM3
  X:04B9H         SYMBOL        ucDivM4
  X:04BAH         SYMBOL        ulTmdsCharacterRate
  -------         ENDDO         
  C:2C4AH         LINE#         296
  C:2C4AH         LINE#         297
  C:2C4AH         LINE#         302
  C:2C54H         LINE#         303
  C:2C65H         LINE#         304
  C:2C7CH         LINE#         305
  C:2C83H         LINE#         306
  C:2C86H         LINE#         307
  C:2C8DH         LINE#         309
  C:2C94H         LINE#         310
  C:2C97H         LINE#         315
  C:2CABH         LINE#         316
  C:2CABH         LINE#         317
BL51 BANKED LINKER/LOCATER V6.22                                                      06/21/2023  15:37:55  PAGE 230


  C:2CB1H         LINE#         318
  C:2CB7H         LINE#         319
  C:2CB9H         LINE#         320
  C:2CCFH         LINE#         321
  C:2CCFH         LINE#         322
  C:2CD2H         LINE#         323
  C:2CD6H         LINE#         324
  C:2CD8H         LINE#         326
  C:2CD8H         LINE#         327
  C:2CDBH         LINE#         328
  C:2CE1H         LINE#         329
  C:2CE1H         LINE#         336
  C:2D03H         LINE#         337
  C:2D03H         LINE#         338
  C:2D09H         LINE#         339
  C:2D0FH         LINE#         340
  C:2D11H         LINE#         342
  C:2D11H         LINE#         343
  C:2D15H         LINE#         344
  C:2D1DH         LINE#         345
  C:2D1DH         LINE#         347
  C:2D25H         LINE#         348
  C:2D25H         LINE#         349
  C:2D2BH         LINE#         350
  C:2D2DH         LINE#         351
  C:2D31H         LINE#         352
  C:2D31H         LINE#         353
  C:2D37H         LINE#         354
  C:2D4BH         LINE#         356
  C:2D4DH         LINE#         357
  C:2D54H         LINE#         358
  C:2D54H         LINE#         359
  C:2D5AH         LINE#         360
  C:2D5AH         LINE#         363
  C:2D8DH         LINE#         364
  C:2D97H         LINE#         365
  C:2DA1H         LINE#         366
  C:2DA6H         LINE#         368
  C:2DA6H         LINE#         369
  C:2DABH         LINE#         370
  C:2DAFH         LINE#         371
  C:2DB3H         LINE#         372
  C:2DB7H         LINE#         373
  C:2DBDH         LINE#         375
  C:2DCAH         LINE#         376
  C:2DD6H         LINE#         378
  C:2DE0H         LINE#         379
  C:2DE7H         LINE#         380
  C:2DF3H         LINE#         381
  C:2DFBH         LINE#         382
  C:2E00H         LINE#         384
  C:2E00H         LINE#         385
  C:2E07H         LINE#         388
  C:2E0EH         LINE#         389
  C:2E15H         LINE#         390
  C:2E1CH         LINE#         391
  C:2E23H         LINE#         392
BL51 BANKED LINKER/LOCATER V6.22                                                      06/21/2023  15:37:55  PAGE 231


  C:2E2AH         LINE#         393
  C:2E31H         LINE#         394
  C:2E38H         LINE#         395
  C:2E3EH         LINE#         396
  C:2E3EH         LINE#         397
  C:2E4EH         LINE#         398
  C:2E55H         LINE#         399
  C:2E68H         LINE#         400
  C:2E6EH         LINE#         401
  C:2E7EH         LINE#         403
  C:2E87H         LINE#         404
  C:2E87H         LINE#         405
  C:2E8BH         LINE#         406
  C:2E8DH         LINE#         408
  C:2E8DH         LINE#         409
  C:2E96H         LINE#         410
  C:2E96H         LINE#         411
  -------         ENDPROC       _DRV_HDMITX_TMDSTXPLLCAL
  -------         PROC          _DRV_HDMITX_FRLTXPHYSET
  D:0005H         SYMBOL        ucFrlRate
  C:856AH         LINE#         413
  C:856AH         LINE#         414
  C:856AH         LINE#         415
  C:8571H         LINE#         416
  C:8574H         LINE#         417
  C:8577H         LINE#         418
  C:8581H         LINE#         419
  C:8581H         LINE#         420
  C:8584H         LINE#         421
  C:8586H         LINE#         423
  C:8586H         LINE#         424
  C:8589H         LINE#         425
  C:8589H         LINE#         426
  C:858FH         LINE#         427
  C:8595H         LINE#         428
  C:8599H         LINE#         430
  C:859EH         LINE#         431
  C:85A2H         LINE#         432
  C:85A6H         LINE#         434
  C:85AAH         LINE#         435
  C:85AEH         LINE#         436
  C:85B2H         LINE#         438
  C:85B6H         LINE#         439
  C:85BAH         LINE#         440
  C:85BEH         LINE#         442
  C:85C2H         LINE#         443
  C:85C6H         LINE#         444
  C:85CAH         LINE#         446
  C:85D1H         LINE#         447
  -------         ENDPROC       _DRV_HDMITX_FRLTXPHYSET
  -------         PROC          _DRV_HDMITX_FRLTXPLLCAL
  X:04B4H         SYMBOL        ucFrlRate
  -------         DO            
  X:04B5H         SYMBOL        ucCalCnt
  X:04B6H         SYMBOL        ucLockCnt
  -------         ENDDO         
  C:3D5DH         LINE#         450
BL51 BANKED LINKER/LOCATER V6.22                                                      06/21/2023  15:37:55  PAGE 232


  C:3D62H         LINE#         451
  C:3D62H         LINE#         453
  C:3D69H         LINE#         455
  C:3D69H         LINE#         456
  C:3D6EH         LINE#         457
  C:3D72H         LINE#         458
  C:3D76H         LINE#         459
  C:3D7AH         LINE#         460
  C:3D80H         LINE#         461
  C:3D9EH         LINE#         462
  C:3D9EH         LINE#         463
  C:3D9EH         LINE#         464
  C:3DA5H         LINE#         465
  C:3DABH         LINE#         466
  C:3DB1H         LINE#         467
  C:3DB6H         LINE#         468
  C:3DB6H         LINE#         469
  C:3DB6H         LINE#         470
  C:3DB9H         LINE#         471
  C:3DB9H         LINE#         472
  C:3DB9H         LINE#         473
  C:3DC0H         LINE#         474
  C:3DC6H         LINE#         475
  C:3DCCH         LINE#         476
  C:3DD2H         LINE#         477
  C:3DD3H         LINE#         478
  C:3DD3H         LINE#         479
  C:3DD5H         LINE#         480
  C:3DD5H         LINE#         481
  C:3DDCH         LINE#         482
  C:3DE2H         LINE#         483
  C:3DE8H         LINE#         484
  C:3DEEH         LINE#         485
  C:3DF3H         LINE#         486
  C:3DF9H         LINE#         487
  C:3DFBH         LINE#         488
  C:3DFBH         LINE#         489
  C:3E02H         LINE#         490
  C:3E08H         LINE#         491
  C:3E0EH         LINE#         492
  C:3E14H         LINE#         493
  C:3E19H         LINE#         494
  C:3E1FH         LINE#         495
  C:3E21H         LINE#         496
  C:3E21H         LINE#         497
  C:3E28H         LINE#         498
  C:3E2EH         LINE#         499
  C:3E34H         LINE#         500
  C:3E3AH         LINE#         501
  C:3E3FH         LINE#         502
  C:3E45H         LINE#         503
  C:3E45H         LINE#         504
  C:3E45H         LINE#         505
  C:3E45H         LINE#         506
  C:3E45H         LINE#         507
  C:3E4CH         LINE#         508
  C:3E53H         LINE#         510
BL51 BANKED LINKER/LOCATER V6.22                                                      06/21/2023  15:37:55  PAGE 233


  C:3E5AH         LINE#         511
  C:3E61H         LINE#         512
  C:3E66H         LINE#         514
  C:3E66H         LINE#         515
  C:3E6DH         LINE#         518
  C:3E74H         LINE#         519
  C:3E7BH         LINE#         520
  C:3E82H         LINE#         521
  C:3E89H         LINE#         522
  C:3E90H         LINE#         523
  C:3E97H         LINE#         524
  C:3E9EH         LINE#         525
  C:3EA4H         LINE#         526
  C:3EB4H         LINE#         527
  C:3EBBH         LINE#         528
  C:3ECEH         LINE#         529
  C:3EE1H         LINE#         530
  -------         ENDPROC       _DRV_HDMITX_FRLTXPLLCAL
  -------         PROC          _DRV_HDMITX_FRLDIGSET
  D:0001H         SYMBOL        pstHdmiTx
  -------         DO            
  D:0007H         SYMBOL        ucColorDepth
  D:0006H         SYMBOL        ucTxPixelEncoding
  -------         ENDDO         
  C:9A8FH         LINE#         532
  C:9A8FH         LINE#         533
  C:9A8FH         LINE#         535
  C:9A96H         LINE#         536
  C:9A9DH         LINE#         538
  C:9AA3H         LINE#         539
  C:9AA9H         LINE#         540
  C:9AACH         LINE#         541
  C:9AACH         LINE#         542
  C:9AB2H         LINE#         543
  C:9AB3H         LINE#         545
  C:9AB3H         LINE#         546
  C:9ABCH         LINE#         547
  C:9ABCH         LINE#         548
  C:9ABCH         LINE#         549
  C:9AC2H         LINE#         550
  C:9AC3H         LINE#         551
  C:9AC3H         LINE#         552
  C:9AC9H         LINE#         553
  C:9ACAH         LINE#         554
  C:9ACAH         LINE#         555
  C:9ACAH         LINE#         556
  C:9ACFH         LINE#         557
  C:9ACFH         LINE#         558
  C:9ACFH         LINE#         559
  C:9ACFH         LINE#         560
  -------         ENDPROC       _DRV_HDMITX_FRLDIGSET
  -------         PROC          _DRV_HDMITX_FRLFECLINCLKCAL
  D:0001H         SYMBOL        pstHdmiTx
  -------         DO            
  X:04B4H         SYMBOL        ucFecCalCnt
  X:04B5H         SYMBOL        ucFecLockCnt
  X:04B6H         SYMBOL        ucColorDepth
BL51 BANKED LINKER/LOCATER V6.22                                                      06/21/2023  15:37:55  PAGE 234


  X:04B7H         SYMBOL        ulHalfPixelClk
  -------         ENDDO         
  C:1979H         LINE#         563
  C:1979H         LINE#         564
  C:1979H         LINE#         568
  C:1983H         LINE#         569
  C:1994H         LINE#         570
  C:19ABH         LINE#         571
  C:19B1H         LINE#         572
  C:19B7H         LINE#         574
  C:19BEH         LINE#         575
  C:19C4H         LINE#         576
  C:19C9H         LINE#         577
  C:19CFH         LINE#         578
  C:19D2H         LINE#         580
  C:19E4H         LINE#         581
  C:19E4H         LINE#         582
  C:19E4H         LINE#         583
  C:19EAH         LINE#         584
  C:19FDH         LINE#         585
  C:19FDH         LINE#         586
  C:1A04H         LINE#         587
  C:1A0BH         LINE#         588
  C:1A11H         LINE#         589
  C:1A16H         LINE#         590
  C:1A16H         LINE#         591
  C:1A19H         LINE#         592
  C:1A2CH         LINE#         593
  C:1A2CH         LINE#         594
  C:1A33H         LINE#         595
  C:1A3AH         LINE#         596
  C:1A40H         LINE#         597
  C:1A45H         LINE#         598
  C:1A45H         LINE#         599
  C:1A47H         LINE#         600
  C:1A5AH         LINE#         601
  C:1A5AH         LINE#         602
  C:1A61H         LINE#         603
  C:1A68H         LINE#         604
  C:1A6EH         LINE#         605
  C:1A73H         LINE#         606
  C:1A73H         LINE#         607
  C:1A75H         LINE#         608
  C:1A89H         LINE#         609
  C:1A89H         LINE#         610
  C:1A90H         LINE#         611
  C:1A97H         LINE#         612
  C:1A9DH         LINE#         613
  C:1AA3H         LINE#         614
  C:1AA6H         LINE#         615
  C:1AA9H         LINE#         616
  C:1ABDH         LINE#         617
  C:1ABDH         LINE#         618
  C:1AC4H         LINE#         619
  C:1ACBH         LINE#         620
  C:1AD1H         LINE#         621
  C:1AD6H         LINE#         622
BL51 BANKED LINKER/LOCATER V6.22                                                      06/21/2023  15:37:55  PAGE 235


  C:1AD9H         LINE#         623
  C:1ADCH         LINE#         624
  C:1AF0H         LINE#         625
  C:1AF0H         LINE#         626
  C:1AF7H         LINE#         627
  C:1AFEH         LINE#         628
  C:1B03H         LINE#         629
  C:1B03H         LINE#         630
  C:1B03H         LINE#         631
  C:1B06H         LINE#         632
  C:1B1EH         LINE#         633
  C:1B1EH         LINE#         634
  C:1B21H         LINE#         635
  C:1B28H         LINE#         636
  C:1B2DH         LINE#         637
  C:1B2DH         LINE#         638
  C:1B2DH         LINE#         639
  C:1B30H         LINE#         641
  C:1B30H         LINE#         642
  C:1B33H         LINE#         643
  C:1B3AH         LINE#         644
  C:1B3FH         LINE#         645
  C:1B3FH         LINE#         646
  C:1B3FH         LINE#         647
  C:1B3FH         LINE#         648
  C:1B42H         LINE#         649
  C:1B42H         LINE#         650
  C:1B48H         LINE#         651
  C:1B5BH         LINE#         652
  C:1B5BH         LINE#         653
  C:1B62H         LINE#         654
  C:1B69H         LINE#         655
  C:1B6FH         LINE#         656
  C:1B74H         LINE#         657
  C:1B74H         LINE#         658
  C:1B77H         LINE#         659
  C:1B8AH         LINE#         660
  C:1B8AH         LINE#         661
  C:1B91H         LINE#         662
  C:1B98H         LINE#         663
  C:1B9EH         LINE#         664
  C:1BA3H         LINE#         665
  C:1BA3H         LINE#         666
  C:1BA5H         LINE#         667
  C:1BB9H         LINE#         668
  C:1BB9H         LINE#         669
  C:1BC0H         LINE#         670
  C:1BC7H         LINE#         671
  C:1BCDH         LINE#         672
  C:1BD2H         LINE#         673
  C:1BD2H         LINE#         674
  C:1BD4H         LINE#         675
  C:1BE8H         LINE#         676
  C:1BE8H         LINE#         677
  C:1BEFH         LINE#         678
  C:1BF6H         LINE#         679
  C:1BFCH         LINE#         680
BL51 BANKED LINKER/LOCATER V6.22                                                      06/21/2023  15:37:55  PAGE 236


  C:1C02H         LINE#         681
  C:1C05H         LINE#         682
  C:1C08H         LINE#         683
  C:1C1CH         LINE#         684
  C:1C1CH         LINE#         685
  C:1C23H         LINE#         686
  C:1C2AH         LINE#         687
  C:1C30H         LINE#         688
  C:1C35H         LINE#         689
  C:1C38H         LINE#         690
  C:1C3AH         LINE#         691
  C:1C52H         LINE#         692
  C:1C52H         LINE#         693
  C:1C55H         LINE#         694
  C:1C5CH         LINE#         695
  C:1C62H         LINE#         696
  C:1C67H         LINE#         697
  C:1C69H         LINE#         698
  C:1C6BH         LINE#         700
  C:1C6BH         LINE#         701
  C:1C6EH         LINE#         702
  C:1C75H         LINE#         703
  C:1C7BH         LINE#         704
  C:1C80H         LINE#         705
  C:1C81H         LINE#         706
  C:1C81H         LINE#         707
  C:1C83H         LINE#         708
  C:1C83H         LINE#         709
  C:1C83H         LINE#         710
  C:1C8AH         LINE#         711
  C:1C8FH         LINE#         712
  C:1C96H         LINE#         713
  C:1C9BH         LINE#         714
  C:1C9FH         LINE#         715
  C:1C9FH         LINE#         716
  C:1C9FH         LINE#         717
  C:1CABH         LINE#         718
  C:1CABH         LINE#         719
  C:1CB0H         LINE#         721
  C:1CB0H         LINE#         722
  C:1CB7H         LINE#         725
  C:1CBEH         LINE#         726
  C:1CC5H         LINE#         727
  C:1CCCH         LINE#         728
  C:1CD3H         LINE#         731
  C:1CDAH         LINE#         732
  C:1CE1H         LINE#         733
  C:1CE8H         LINE#         734
  C:1CEFH         LINE#         735
  C:1CF5H         LINE#         736
  C:1D05H         LINE#         737
  C:1D18H         LINE#         738
  C:1D1DH         LINE#         739
  C:1D2DH         LINE#         740
  C:1D2DH         LINE#         741
  C:1D30H         LINE#         742
  C:1D37H         LINE#         743
BL51 BANKED LINKER/LOCATER V6.22                                                      06/21/2023  15:37:55  PAGE 237


  C:1D39H         LINE#         744
  C:1D39H         LINE#         745
  -------         ENDPROC       _DRV_HDMITX_FRLFECLINCLKCAL
  -------         PROC          _DRV_HDMITX_FRLTXRST
  D:0007H         SYMBOL        b1ResetEn
  C:A857H         LINE#         747
  C:A857H         LINE#         748
  C:A857H         LINE#         749
  C:A85EH         LINE#         750
  C:A85EH         LINE#         751
  C:A862H         LINE#         752
  C:A869H         LINE#         753
  C:A86AH         LINE#         755
  C:A86AH         LINE#         756
  C:A86EH         LINE#         757
  C:A875H         LINE#         758
  C:A875H         LINE#         759
  -------         ENDPROC       _DRV_HDMITX_FRLTXRST
  -------         PROC          DRV_HDMITX_FRLVIDSET
  C:AE2AH         LINE#         761
  C:AE2AH         LINE#         762
  C:AE2AH         LINE#         763
  C:AE31H         LINE#         764
  -------         ENDPROC       DRV_HDMITX_FRLVIDSET
  -------         PROC          DRV_HDMITX_PPSSRAMSET
  C:AE41H         LINE#         766
  C:AE41H         LINE#         767
  C:AE41H         LINE#         769
  C:AE47H         LINE#         774
  -------         ENDPROC       DRV_HDMITX_PPSSRAMSET
  -------         PROC          DRV_HDMITX_ENCPATH
  C:A90DH         LINE#         776
  C:A90DH         LINE#         777
  C:A90DH         LINE#         779
  C:A913H         LINE#         780
  C:A919H         LINE#         781
  C:A91EH         LINE#         782
  C:A924H         LINE#         783
  C:A92AH         LINE#         793
  -------         ENDPROC       DRV_HDMITX_ENCPATH
  -------         PROC          DRV_HDMITX_DOBLYHDRENABLE
  -------         DO            
  D:0007H         SYMBOL        ucSaveReg
  -------         ENDDO         
  C:AA7FH         LINE#         795
  C:AA7FH         LINE#         796
  C:AA7FH         LINE#         801
  C:AA85H         LINE#         802
  C:AA87H         LINE#         803
  C:AA88H         LINE#         804
  C:AA8FH         LINE#         805
  C:AA96H         LINE#         816
  -------         ENDPROC       DRV_HDMITX_DOBLYHDRENABLE
  -------         PROC          DRV_HDMITX_STATICHDRENABLE
  -------         DO            
  D:0007H         SYMBOL        ucSaveReg
  -------         ENDDO         
BL51 BANKED LINKER/LOCATER V6.22                                                      06/21/2023  15:37:55  PAGE 238


  C:AA97H         LINE#         818
  C:AA97H         LINE#         819
  C:AA97H         LINE#         824
  C:AA9DH         LINE#         825
  C:AA9FH         LINE#         826
  C:AAA0H         LINE#         827
  C:AAA7H         LINE#         828
  C:AAAEH         LINE#         839
  -------         ENDPROC       DRV_HDMITX_STATICHDRENABLE
  -------         PROC          DRV_HDMITX_DYMICHDRENABLE
  -------         DO            
  D:0007H         SYMBOL        ucSaveReg
  -------         ENDDO         
  C:AAAFH         LINE#         841
  C:AAAFH         LINE#         842
  C:AAAFH         LINE#         847
  C:AAB5H         LINE#         848
  C:AAB7H         LINE#         849
  C:AAB8H         LINE#         850
  C:AABFH         LINE#         851
  C:AAC6H         LINE#         862
  -------         ENDPROC       DRV_HDMITX_DYMICHDRENABLE
  -------         PROC          MOD_HMDITX_POWERONINIT
  C:A92BH         LINE#         864
  C:A92BH         LINE#         865
  C:A92BH         LINE#         866
  C:A92EH         LINE#         867
  C:A931H         LINE#         868
  C:A934H         LINE#         869
  C:A937H         LINE#         870
  C:A93AH         LINE#         871
  C:A93DH         LINE#         872
  C:A940H         LINE#         873
  C:A943H         LINE#         874
  C:A946H         LINE#         875
  -------         ENDPROC       MOD_HMDITX_POWERONINIT
  -------         PROC          DRV_HDMITX_TMDSVIDEOON
  C:A7D8H         LINE#         878
  C:A7D8H         LINE#         879
  C:A7D8H         LINE#         880
  C:A7E0H         LINE#         881
  C:A7E0H         LINE#         883
  C:A7E0H         LINE#         884
  C:A7E3H         LINE#         885
  C:A7ECH         LINE#         886
  C:A7F5H         LINE#         887
  C:A7F8H         LINE#         888
  -------         ENDPROC       DRV_HDMITX_TMDSVIDEOON
  -------         ENDMOD        DRVHDMITX

  -------         MODULE        DRVHDMITXDSCBYPASS
  C:0000H         SYMBOL        _ICE_DUMMY_
  D:00C8H         PUBLIC        T2CON
  -------         ENDMOD        DRVHDMITXDSCBYPASS

  -------         MODULE        DRVHDMITXDSCENC
  C:0000H         SYMBOL        _ICE_DUMMY_
BL51 BANKED LINKER/LOCATER V6.22                                                      06/21/2023  15:37:55  PAGE 239


  D:00C8H         PUBLIC        T2CON
  -------         ENDMOD        DRVHDMITXDSCENC

  -------         MODULE        DRVI2CMAST
  C:0000H         SYMBOL        _ICE_DUMMY_
  D:00C8H         PUBLIC        T2CON
  -------         ENDMOD        DRVI2CMAST

  -------         MODULE        DRVLVDSTX
  C:0000H         SYMBOL        _ICE_DUMMY_
  D:00C8H         PUBLIC        T2CON
  -------         ENDMOD        DRVLVDSTX

  -------         MODULE        DRVMIPIDSCENCTX
  C:0000H         SYMBOL        _ICE_DUMMY_
  D:00C8H         PUBLIC        T2CON
  -------         ENDMOD        DRVMIPIDSCENCTX

  -------         MODULE        DRVMIPITX
  C:0000H         SYMBOL        _ICE_DUMMY_
  D:00C8H         PUBLIC        T2CON
  -------         ENDMOD        DRVMIPITX

  -------         MODULE        DRVRXTYPEC
  C:0000H         SYMBOL        _ICE_DUMMY_
  D:00C8H         PUBLIC        T2CON
  C:AEB3H         PUBLIC        Drv_CCRx_PHYDigSet
  -------         PROC          DRV_CCRX_PHYDIGSET
  C:AEB3H         LINE#         12
  C:AEB3H         LINE#         13
  C:AEB3H         LINE#         15
  -------         ENDPROC       DRV_CCRX_PHYDIGSET
  -------         ENDMOD        DRVRXTYPEC

  -------         MODULE        DRVSYSTEM
  C:0000H         SYMBOL        _ICE_DUMMY_
  C:9BC9H         PUBLIC        _Drv_Sys_DecPowerDomain
  C:9C06H         PUBLIC        _Drv_Sys_EncPowerDomain
  C:94A7H         PUBLIC        _Drv_System_PktDataChk
  C:78B3H         PUBLIC        Drv_System_XtalSet
  C:A335H         PUBLIC        _Drv_System_IntFlagGet
  C:9984H         PUBLIC        _Drv_Sys_LmtxPowerDomain
  C:A876H         PUBLIC        _Drv_System_IntClr
  C:AEB4H         PUBLIC        _Drv_System_PktHeadSet
  C:3A3AH         PUBLIC        _Drv_System_FmGet
  C:ADC9H         PUBLIC        _Drv_Sys_ChipRxSrcSel
  C:A1A1H         PUBLIC        _Drv_System_IntSet
  C:9DA2H         PUBLIC        _Drv_System_FmSet
  C:94F3H         PUBLIC        _Drv_System_VidChkStateGet
  C:8905H         PUBLIC        Drv_Sys_HdcpKeyLoad
  C:A656H         PUBLIC        _Drv_System_VidChkSet
  D:00C8H         PUBLIC        T2CON
  C:A3E2H         PUBLIC        _Drv_System_IntSrcGet
  C:89CDH         PUBLIC        _Drv_Sys_DHRxPowerDomain
  C:98F7H         PUBLIC        _Drv_Sys_DHTxPowerDomain
  C:903FH         PUBLIC        _Drv_System_FmStbGet
  C:AE7AH         PUBLIC        _Drv_Sys_DhTxSrcSel
BL51 BANKED LINKER/LOCATER V6.22                                                      06/21/2023  15:37:55  PAGE 240


  -------         PROC          DRV_SYSTEM_XTALSET
  -------         DO            
  X:04B1H         SYMBOL        ucSyspll_Cnt
  -------         ENDDO         
  C:78B3H         LINE#         26
  C:78B3H         LINE#         27
  C:78B3H         LINE#         30
  C:78BBH         LINE#         31
  C:78C2H         LINE#         33
  C:78C9H         LINE#         34
  C:78CFH         LINE#         35
  C:78D4H         LINE#         37
  C:78D4H         LINE#         38
  C:78DCH         LINE#         39
  C:78E3H         LINE#         40
  C:78E6H         LINE#         41
  C:78EDH         LINE#         42
  C:78F4H         LINE#         43
  C:7904H         LINE#         44
  C:790BH         LINE#         62
  C:7912H         LINE#         64
  C:7918H         LINE#         65
  C:791EH         LINE#         67
  C:7924H         LINE#         68
  C:792AH         LINE#         70
  C:7930H         LINE#         71
  C:7936H         LINE#         73
  C:793CH         LINE#         74
  C:7942H         LINE#         76
  -------         ENDPROC       DRV_SYSTEM_XTALSET
  -------         PROC          _DRV_SYSTEM_INTSET
  D:0007H         SYMBOL        ucIntType
  D:0005H         SYMBOL        b1IsOn
  C:A1A1H         LINE#         85
  C:A1A1H         LINE#         86
  C:A1A1H         LINE#         87
  C:A1AEH         LINE#         88
  C:A1AEH         LINE#         89
  C:A1AEH         LINE#         90
  C:A1AEH         LINE#         93
  C:A1AEH         LINE#         94
  C:A1BDH         LINE#         95
  C:A1BEH         LINE#         97
  C:A1BEH         LINE#         98
  C:A1CDH         LINE#         99
  C:A1CEH         LINE#         139
  C:A1CEH         LINE#         140
  C:A1CEH         LINE#         141
  C:A1CEH         LINE#         142
  C:A1CEH         LINE#         143
  -------         ENDPROC       _DRV_SYSTEM_INTSET
  -------         PROC          _DRV_SYSTEM_INTSRCGET
  D:0007H         SYMBOL        ucIntType
  -------         DO            
  D:0006H         SYMBOL        ucRtn
  -------         ENDDO         
  C:A3E2H         LINE#         145
BL51 BANKED LINKER/LOCATER V6.22                                                      06/21/2023  15:37:55  PAGE 241


  C:A3E2H         LINE#         146
  C:A3E2H         LINE#         149
  C:A3EAH         LINE#         150
  C:A3EAH         LINE#         151
  C:A3EAH         LINE#         152
  C:A3F9H         LINE#         153
  C:A3FBH         LINE#         154
  C:A3FBH         LINE#         155
  C:A40AH         LINE#         156
  C:A40AH         LINE#         157
  C:A40AH         LINE#         158
  C:A40AH         LINE#         159
  C:A40AH         LINE#         160
  C:A40CH         LINE#         161
  -------         ENDPROC       _DRV_SYSTEM_INTSRCGET
  -------         PROC          _DRV_SYSTEM_INTFLAGGET
  D:0007H         SYMBOL        ucIntType
  -------         DO            
  D:0006H         SYMBOL        ucRtn
  -------         ENDDO         
  C:A335H         LINE#         163
  C:A335H         LINE#         164
  C:A335H         LINE#         167
  C:A33EH         LINE#         168
  C:A33EH         LINE#         170
  C:A33EH         LINE#         171
  C:A34DH         LINE#         172
  C:A34FH         LINE#         174
  C:A34FH         LINE#         175
  C:A35EH         LINE#         218
  C:A35EH         LINE#         219
  C:A35EH         LINE#         220
  C:A35EH         LINE#         221
  C:A360H         LINE#         222
  -------         ENDPROC       _DRV_SYSTEM_INTFLAGGET
  -------         PROC          _DRV_SYSTEM_INTCLR
  D:0007H         SYMBOL        ucIntType
  C:A876H         LINE#         231
  C:A876H         LINE#         232
  C:A876H         LINE#         233
  C:A87FH         LINE#         234
  C:A87FH         LINE#         236
  C:A87FH         LINE#         237
  C:A886H         LINE#         238
  C:A889H         LINE#         239
  C:A88AH         LINE#         241
  C:A88AH         LINE#         242
  C:A891H         LINE#         243
  C:A894H         LINE#         295
  C:A894H         LINE#         296
  C:A894H         LINE#         297
  C:A894H         LINE#         298
  -------         ENDPROC       _DRV_SYSTEM_INTCLR
  -------         PROC          _DRV_SYSTEM_FMSET
  D:0007H         SYMBOL        emType
  X:04B3H         SYMBOL        ucSrc
  C:9DA2H         LINE#         300
BL51 BANKED LINKER/LOCATER V6.22                                                      06/21/2023  15:37:55  PAGE 242


  C:9DA7H         LINE#         301
  C:9DA7H         LINE#         302
  C:9DB5H         LINE#         303
  C:9DB5H         LINE#         304
  C:9DB5H         LINE#         305
  C:9DBDH         LINE#         306
  C:9DBEH         LINE#         308
  C:9DBEH         LINE#         309
  C:9DC4H         LINE#         310
  C:9DC6H         LINE#         312
  C:9DC6H         LINE#         313
  C:9DD1H         LINE#         314
  C:9DD1H         LINE#         316
  C:9DD1H         LINE#         317
  C:9DD9H         LINE#         318
  C:9DD9H         LINE#         320
  C:9DD9H         LINE#         321
  C:9DD9H         LINE#         322
  C:9DD9H         LINE#         323
  -------         ENDPROC       _DRV_SYSTEM_FMSET
  -------         PROC          _DRV_SYSTEM_FMSTBGET
  D:0007H         SYMBOL        emType
  -------         DO            
  D:0006H         SYMBOL        ucRtn
  -------         ENDDO         
  C:903FH         LINE#         325
  C:903FH         LINE#         326
  C:903FH         LINE#         327
  C:9041H         LINE#         329
  C:904FH         LINE#         330
  C:904FH         LINE#         331
  C:904FH         LINE#         332
  C:905EH         LINE#         333
  C:9060H         LINE#         335
  C:9060H         LINE#         336
  C:906FH         LINE#         337
  C:9071H         LINE#         339
  C:9071H         LINE#         340
  C:9080H         LINE#         341
  C:9082H         LINE#         343
  C:9082H         LINE#         345
  C:9091H         LINE#         346
  C:9091H         LINE#         348
  C:9091H         LINE#         349
  C:9091H         LINE#         350
  C:9091H         LINE#         352
  C:9093H         LINE#         353
  -------         ENDPROC       _DRV_SYSTEM_FMSTBGET
  -------         PROC          _DRV_SYSTEM_FMGET
  D:0007H         SYMBOL        emType
  X:04B3H         SYMBOL        ucOpt
  -------         DO            
  X:04B4H         SYMBOL        ulRtn
  -------         ENDDO         
  C:3A3AH         LINE#         363
  C:3A3FH         LINE#         364
  C:3A3FH         LINE#         366
BL51 BANKED LINKER/LOCATER V6.22                                                      06/21/2023  15:37:55  PAGE 243


  C:3A56H         LINE#         367
  C:3A56H         LINE#         368
  C:3A56H         LINE#         369
  C:3A5DH         LINE#         370
  C:3AA8H         LINE#         371
  C:3AABH         LINE#         372
  C:3AAEH         LINE#         374
  C:3AAEH         LINE#         375
  C:3AF9H         LINE#         376
  C:3AFCH         LINE#         378
  C:3AFCH         LINE#         379
  C:3B03H         LINE#         380
  C:3B4EH         LINE#         381
  C:3B55H         LINE#         382
  C:3B57H         LINE#         384
  C:3B57H         LINE#         385
  C:3B5EH         LINE#         386
  C:3BA9H         LINE#         387
  C:3BB0H         LINE#         388
  C:3BB2H         LINE#         390
  C:3BB2H         LINE#         391
  C:3BBDH         LINE#         392
  C:3BBDH         LINE#         393
  C:3BBDH         LINE#         395
  C:3BD0H         LINE#         396
  C:3BD6H         LINE#         397
  -------         ENDPROC       _DRV_SYSTEM_FMGET
  -------         PROC          _DRV_SYSTEM_PKTHEADSET
  D:0007H         SYMBOL        ucType
  C:AEB4H         LINE#         399
  C:AEB4H         LINE#         400
  C:AEB4H         LINE#         401
  C:AEB4H         LINE#         402
  C:AEB4H         LINE#         403
  C:AEB4H         LINE#         404
  C:AEB4H         LINE#         405
  C:AEB4H         LINE#         406
  C:AEB4H         LINE#         407
  C:AEB4H         LINE#         408
  -------         ENDPROC       _DRV_SYSTEM_PKTHEADSET
  -------         PROC          _DRV_SYSTEM_PKTDATACHK
  D:0007H         SYMBOL        ucType
  -------         DO            
  D:0006H         SYMBOL        ucRtn
  -------         ENDDO         
  C:94A7H         LINE#         410
  C:94A7H         LINE#         411
  C:94A7H         LINE#         412
  C:94A9H         LINE#         414
  C:94B1H         LINE#         415
  C:94B1H         LINE#         416
  C:94B1H         LINE#         417
  C:94B1H         LINE#         418
  C:94B1H         LINE#         419
  C:94CFH         LINE#         420
  C:94CFH         LINE#         421
  C:94D1H         LINE#         422
BL51 BANKED LINKER/LOCATER V6.22                                                      06/21/2023  15:37:55  PAGE 244


  C:94D1H         LINE#         423
  C:94D3H         LINE#         424
  C:94D3H         LINE#         425
  C:94EEH         LINE#         428
  C:94EEH         LINE#         429
  C:94F0H         LINE#         430
  C:94F0H         LINE#         431
  C:94F0H         LINE#         433
  C:94F0H         LINE#         434
  C:94F0H         LINE#         435
  C:94F0H         LINE#         437
  C:94F2H         LINE#         438
  -------         ENDPROC       _DRV_SYSTEM_PKTDATACHK
  -------         PROC          _DRV_SYSTEM_VIDCHKSET
  D:0007H         SYMBOL        ucSrc
  C:A656H         LINE#         440
  C:A656H         LINE#         441
  C:A656H         LINE#         442
  C:A659H         LINE#         443
  C:A659H         LINE#         444
  C:A660H         LINE#         445
  C:A667H         LINE#         446
  C:A668H         LINE#         447
  C:A66CH         LINE#         448
  C:A66CH         LINE#         449
  C:A673H         LINE#         450
  C:A67AH         LINE#         451
  C:A67AH         LINE#         452
  -------         ENDPROC       _DRV_SYSTEM_VIDCHKSET
  -------         PROC          _DRV_SYSTEM_VIDCHKSTATEGET
  D:0007H         SYMBOL        b1GetEnable
  -------         DO            
  X:0670H         SYMBOL        ucVidChk_Scan_Cnt
  -------         ENDDO         
  C:94F3H         LINE#         454
  C:94F3H         LINE#         455
  C:94F3H         LINE#         457
  C:94F6H         LINE#         458
  C:94F6H         LINE#         459
  C:94FAH         LINE#         460
  C:94FCH         LINE#         462
  C:94FCH         LINE#         463
  C:9503H         LINE#         464
  C:950BH         LINE#         465
  C:950BH         LINE#         466
  C:9511H         LINE#         467
  C:9513H         LINE#         468
  C:951FH         LINE#         469
  C:951FH         LINE#         470
  C:9526H         LINE#         471
  C:9529H         LINE#         472
  C:952EH         LINE#         473
  C:9530H         LINE#         474
  C:9530H         LINE#         475
  C:9539H         LINE#         476
  C:9539H         LINE#         477
  C:953CH         LINE#         478
BL51 BANKED LINKER/LOCATER V6.22                                                      06/21/2023  15:37:55  PAGE 245


  C:953CH         LINE#         479
  C:953CH         LINE#         480
  C:953EH         LINE#         481
  -------         ENDPROC       _DRV_SYSTEM_VIDCHKSTATEGET
  -------         PROC          _DRV_SYS_CHIPRXSRCSEL
  D:0007H         SYMBOL        ucSel
  C:ADC9H         LINE#         483
  C:ADC9H         LINE#         484
  C:ADC9H         LINE#         485
  C:ADD0H         LINE#         486
  C:ADD2H         LINE#         487
  -------         ENDPROC       _DRV_SYS_CHIPRXSRCSEL
  -------         PROC          DRV_SYS_HDCPKEYLOAD
  -------         DO            
  X:0671H         SYMBOL        loadkey_cnt
  -------         ENDDO         
  C:8905H         LINE#         496
  C:8905H         LINE#         497
  C:8905H         LINE#         500
  C:890CH         LINE#         501
  C:890FH         LINE#         504
  C:8915H         LINE#         505
  C:891AH         LINE#         506
  C:891EH         LINE#         509
  C:8922H         LINE#         510
  C:8928H         LINE#         511
  C:892DH         LINE#         513
  C:8934H         LINE#         515
  C:8934H         LINE#         516
  C:893AH         LINE#         517
  C:8941H         LINE#         518
  C:8949H         LINE#         519
  C:8949H         LINE#         520
  C:8949H         LINE#         521
  C:8949H         LINE#         522
  C:8952H         LINE#         523
  C:8962H         LINE#         524
  C:8969H         LINE#         525
  -------         ENDPROC       DRV_SYS_HDCPKEYLOAD
  -------         PROC          _DRV_SYS_DHRXPOWERDOMAIN
  D:0007H         SYMBOL        b1IsPowerOn
  C:89CDH         LINE#         527
  C:89CDH         LINE#         528
  C:89CDH         LINE#         529
  C:89D2H         LINE#         530
  C:89D2H         LINE#         531
  C:89D6H         LINE#         532
  C:89DAH         LINE#         533
  C:89DEH         LINE#         534
  C:89E2H         LINE#         535
  C:89E6H         LINE#         536
  C:89EEH         LINE#         537
  C:89F5H         LINE#         538
  C:89FCH         LINE#         539
  C:89FDH         LINE#         541
  C:89FDH         LINE#         542
  C:8A05H         LINE#         543
BL51 BANKED LINKER/LOCATER V6.22                                                      06/21/2023  15:37:55  PAGE 246


  C:8A0CH         LINE#         544
  C:8A13H         LINE#         545
  C:8A19H         LINE#         546
  C:8A1FH         LINE#         547
  C:8A25H         LINE#         548
  C:8A29H         LINE#         549
  C:8A2FH         LINE#         550
  C:8A2FH         LINE#         551
  -------         ENDPROC       _DRV_SYS_DHRXPOWERDOMAIN
  -------         PROC          _DRV_SYS_DHTXPOWERDOMAIN
  D:0007H         SYMBOL        b1IsPowerOn
  C:98F7H         LINE#         553
  C:98F7H         LINE#         554
  C:98F7H         LINE#         555
  C:98FBH         LINE#         556
  C:98FBH         LINE#         557
  C:9900H         LINE#         558
  C:9904H         LINE#         559
  C:990CH         LINE#         560
  C:9913H         LINE#         561
  C:991AH         LINE#         562
  C:991BH         LINE#         564
  C:991BH         LINE#         565
  C:9923H         LINE#         566
  C:992AH         LINE#         567
  C:9931H         LINE#         568
  C:9937H         LINE#         569
  C:993DH         LINE#         570
  C:993DH         LINE#         571
  -------         ENDPROC       _DRV_SYS_DHTXPOWERDOMAIN
  -------         PROC          _DRV_SYS_LMTXPOWERDOMAIN
  D:0007H         SYMBOL        b1IsPowerOn
  C:9984H         LINE#         573
  C:9984H         LINE#         574
  C:9984H         LINE#         575
  C:9988H         LINE#         576
  C:9988H         LINE#         577
  C:998DH         LINE#         578
  C:9991H         LINE#         579
  C:9999H         LINE#         580
  C:99A0H         LINE#         581
  C:99A7H         LINE#         582
  C:99A8H         LINE#         584
  C:99A8H         LINE#         585
  C:99B0H         LINE#         586
  C:99B7H         LINE#         587
  C:99BEH         LINE#         588
  C:99C4H         LINE#         589
  C:99C8H         LINE#         590
  C:99C8H         LINE#         591
  -------         ENDPROC       _DRV_SYS_LMTXPOWERDOMAIN
  -------         PROC          _DRV_SYS_DECPOWERDOMAIN
  D:0007H         SYMBOL        b1IsPowerOn
  C:9BC9H         LINE#         592
  C:9BC9H         LINE#         593
  C:9BC9H         LINE#         594
  C:9BCDH         LINE#         595
BL51 BANKED LINKER/LOCATER V6.22                                                      06/21/2023  15:37:55  PAGE 247


  C:9BCDH         LINE#         596
  C:9BD2H         LINE#         597
  C:9BDAH         LINE#         598
  C:9BE1H         LINE#         599
  C:9BE8H         LINE#         600
  C:9BE9H         LINE#         602
  C:9BE9H         LINE#         603
  C:9BF1H         LINE#         604
  C:9BF8H         LINE#         605
  C:9BFFH         LINE#         606
  C:9C05H         LINE#         607
  C:9C05H         LINE#         608
  -------         ENDPROC       _DRV_SYS_DECPOWERDOMAIN
  -------         PROC          _DRV_SYS_ENCPOWERDOMAIN
  D:0007H         SYMBOL        b1IsPowerOn
  C:9C06H         LINE#         610
  C:9C06H         LINE#         611
  C:9C06H         LINE#         612
  C:9C0AH         LINE#         613
  C:9C0AH         LINE#         614
  C:9C0FH         LINE#         615
  C:9C17H         LINE#         616
  C:9C1EH         LINE#         617
  C:9C25H         LINE#         618
  C:9C26H         LINE#         620
  C:9C26H         LINE#         621
  C:9C2EH         LINE#         622
  C:9C35H         LINE#         623
  C:9C3CH         LINE#         624
  C:9C42H         LINE#         625
  C:9C42H         LINE#         626
  -------         ENDPROC       _DRV_SYS_ENCPOWERDOMAIN
  -------         PROC          _DRV_SYS_DHTXSRCSEL
  D:0007H         SYMBOL        ucSel
  C:AE7AH         LINE#         629
  C:AE7AH         LINE#         630
  C:AE7AH         LINE#         631
  C:AE7FH         LINE#         632
  -------         ENDPROC       _DRV_SYS_DHTXSRCSEL
  -------         ENDMOD        DRVSYSTEM

  -------         MODULE        DRVTXTYPEC
  C:0000H         SYMBOL        _ICE_DUMMY_
  D:00C8H         PUBLIC        T2CON
  C:AEB5H         PUBLIC        Drv_CCTx_PHYDigSet
  -------         PROC          DRV_CCTX_PHYDIGSET
  C:AEB5H         LINE#         14
  C:AEB5H         LINE#         15
  C:AEB5H         LINE#         17
  -------         ENDPROC       DRV_CCTX_PHYDIGSET
  -------         ENDMOD        DRVTXTYPEC

  -------         MODULE        DRVTYPECDCC
  C:0000H         SYMBOL        _ICE_DUMMY_
  C:9323H         PUBLIC        _DRV_PowerRole_Set
  C:AC72H         PUBLIC        DRV_FrTrig_Send
  C:9F54H         PUBLIC        CHIP_Ucc_RpOnScan
BL51 BANKED LINKER/LOCATER V6.22                                                      06/21/2023  15:37:55  PAGE 248


  C:9234H         PUBLIC        _DRV_CCDebounce_Set
  C:9B10H         PUBLIC        _DRV_CCRXRate_Set
  C:92D4H         PUBLIC        _DRV_CCTXRate_Set
  C:85D2H         PUBLIC        _DRV_CCRxPHY_Set
  C:6AD2H         PUBLIC        _DRV_CCRterm_Cali
  C:002EH         PUBLIC        _DRV_RpCur_Sel
  C:A9F8H         PUBLIC        _DRV_CC_LogicRst
  C:9F88H         PUBLIC        Chip_Ucc_RdOnScan
  C:AC0EH         PUBLIC        _DRV_HardReset_Set
  D:00C8H         PUBLIC        T2CON
  C:A1CFH         PUBLIC        DRV_CCPHY_DigSet
  C:764CH         PUBLIC        _DRV_CCInt_Init
  -------         PROC          _DRV_CCRXRATE_SET
  D:0007H         SYMBOL        UCC_DCC
  C:9B10H         LINE#         12
  C:9B10H         LINE#         13
  C:9B10H         LINE#         14
  C:9B13H         LINE#         15
  C:9B13H         LINE#         40
  C:9B19H         LINE#         41
  C:9B1DH         LINE#         42
  C:9B23H         LINE#         43
  C:9B29H         LINE#         44
  C:9B2CH         LINE#         45
  C:9B2EH         LINE#         46
  C:9B32H         LINE#         47
  C:9B32H         LINE#         65
  C:9B38H         LINE#         66
  C:9B3CH         LINE#         67
  C:9B42H         LINE#         68
  C:9B48H         LINE#         69
  C:9B4EH         LINE#         70
  C:9B4EH         LINE#         71
  -------         ENDPROC       _DRV_CCRXRATE_SET
  -------         PROC          _DRV_CCTXRATE_SET
  D:0007H         SYMBOL        UCC_DCC
  C:92D4H         LINE#         72
  C:92D4H         LINE#         73
  C:92D4H         LINE#         74
  C:92D7H         LINE#         75
  C:92D7H         LINE#         85
  C:92DDH         LINE#         86
  C:92E3H         LINE#         88
  C:92E9H         LINE#         89
  C:92EFH         LINE#         90
  C:92F5H         LINE#         91
  C:92F8H         LINE#         101
  C:92FAH         LINE#         102
  C:92FEH         LINE#         103
  C:92FEH         LINE#         113
  C:9304H         LINE#         114
  C:930AH         LINE#         116
  C:9310H         LINE#         117
  C:9316H         LINE#         118
  C:931CH         LINE#         119
  C:9322H         LINE#         129
  C:9322H         LINE#         130
BL51 BANKED LINKER/LOCATER V6.22                                                      06/21/2023  15:37:55  PAGE 249


  -------         ENDPROC       _DRV_CCTXRATE_SET
  -------         PROC          _DRV_CCINT_INIT
  D:0007H         SYMBOL        UCC_DCC
  C:764CH         LINE#         133
  C:764CH         LINE#         134
  C:764CH         LINE#         135
  C:764FH         LINE#         136
  C:764FH         LINE#         153
  C:7656H         LINE#         154
  C:765DH         LINE#         155
  C:7660H         LINE#         156
  C:7666H         LINE#         157
  C:766CH         LINE#         158
  C:7671H         LINE#         160
  C:7677H         LINE#         162
  C:767DH         LINE#         163
  C:7683H         LINE#         164
  C:7689H         LINE#         166
  C:768CH         LINE#         167
  C:768EH         LINE#         168
  C:7693H         LINE#         169
  C:7693H         LINE#         203
  C:769AH         LINE#         204
  C:76A1H         LINE#         205
  C:76A4H         LINE#         214
  C:76AAH         LINE#         215
  C:76B0H         LINE#         216
  C:76B6H         LINE#         218
  C:76BCH         LINE#         219
  C:76C2H         LINE#         220
  C:76C8H         LINE#         221
  C:76CEH         LINE#         228
  C:76D4H         LINE#         229
  C:76DAH         LINE#         232
  C:76E0H         LINE#         233
  C:76E6H         LINE#         234
  C:76ECH         LINE#         235
  C:76ECH         LINE#         236
  -------         ENDPROC       _DRV_CCINT_INIT
  -------         PROC          _DRV_CCDEBOUNCE_SET
  D:0007H         SYMBOL        UCC_DCC
  C:9234H         LINE#         238
  C:9234H         LINE#         239
  C:9234H         LINE#         240
  C:9237H         LINE#         241
  C:9237H         LINE#         242
  C:923DH         LINE#         246
  C:9243H         LINE#         247
  C:9249H         LINE#         252
  C:924FH         LINE#         253
  C:9255H         LINE#         256
  C:9258H         LINE#         258
  C:925DH         LINE#         259
  C:925EH         LINE#         260
  C:9262H         LINE#         261
  C:9262H         LINE#         263
  C:9268H         LINE#         265
BL51 BANKED LINKER/LOCATER V6.22                                                      06/21/2023  15:37:55  PAGE 250


  C:926EH         LINE#         266
  C:9273H         LINE#         270
  C:9279H         LINE#         271
  C:927FH         LINE#         272
  C:9284H         LINE#         274
  C:9284H         LINE#         275
  -------         ENDPROC       _DRV_CCDEBOUNCE_SET
  -------         PROC          _DRV_CCRXPHY_SET
  D:0007H         SYMBOL        UCC_DCC
  C:85D2H         LINE#         276
  C:85D2H         LINE#         277
  C:85D2H         LINE#         278
  C:85D5H         LINE#         279
  C:85D5H         LINE#         289
  C:85DBH         LINE#         290
  C:85E1H         LINE#         291
  C:85E7H         LINE#         292
  C:85EDH         LINE#         294
  C:85F3H         LINE#         295
  C:85F9H         LINE#         297
  C:85FFH         LINE#         299
  C:8605H         LINE#         300
  C:8606H         LINE#         301
  C:860AH         LINE#         302
  C:860AH         LINE#         311
  C:8610H         LINE#         312
  C:8616H         LINE#         313
  C:861CH         LINE#         314
  C:8622H         LINE#         316
  C:8628H         LINE#         317
  C:862DH         LINE#         319
  C:8633H         LINE#         321
  C:8639H         LINE#         322
  C:8639H         LINE#         323
  -------         ENDPROC       _DRV_CCRXPHY_SET
  -------         PROC          _DRV_CC_LOGICRST
  D:0007H         SYMBOL        UCC_DCC
  C:A9F8H         LINE#         324
  C:A9F8H         LINE#         325
  C:A9F8H         LINE#         326
  C:A9FBH         LINE#         327
  C:A9FBH         LINE#         328
  C:AA02H         LINE#         329
  C:AA05H         LINE#         330
  C:AA06H         LINE#         331
  C:AA0AH         LINE#         332
  C:AA0AH         LINE#         333
  C:AA11H         LINE#         334
  C:AA14H         LINE#         335
  C:AA14H         LINE#         336
  -------         ENDPROC       _DRV_CC_LOGICRST
  -------         PROC          _DRV_HARDRESET_SET
  D:0007H         SYMBOL        UCC_DCC
  C:AC0EH         LINE#         339
  C:AC0EH         LINE#         340
  C:AC0EH         LINE#         341
  C:AC11H         LINE#         342
BL51 BANKED LINKER/LOCATER V6.22                                                      06/21/2023  15:37:55  PAGE 251


  C:AC11H         LINE#         343
  C:AC14H         LINE#         344
  C:AC14H         LINE#         345
  C:AC16H         LINE#         347
  C:AC16H         LINE#         348
  C:AC1CH         LINE#         349
  C:AC1FH         LINE#         350
  C:AC1FH         LINE#         351
  -------         ENDPROC       _DRV_HARDRESET_SET
  -------         PROC          _DRV_RPCUR_SEL
  D:0007H         SYMBOL        CC_Port
  D:0005H         SYMBOL        Rp_Cur
  -------         DO            
  D:0006H         SYMBOL        ucRpCur_Tmp
  -------         ENDDO         
  C:002EH         LINE#         406
  C:002EH         LINE#         407
  C:002EH         LINE#         408
  C:002EH         LINE#         409
  C:0031H         LINE#         410
  C:0031H         LINE#         411
  C:0034H         LINE#         412
  C:0034H         LINE#         413
  C:0034H         LINE#         414
  C:0034H         LINE#         415
  C:0036H         LINE#         416
  C:003AH         LINE#         417
  C:003AH         LINE#         418
  C:003EH         LINE#         419
  C:0040H         LINE#         420
  C:0041H         LINE#         421
  C:0042H         LINE#         422
  C:0042H         LINE#         423
  -------         ENDPROC       _DRV_RPCUR_SEL
  -------         PROC          _DRV_POWERROLE_SET
  D:0007H         SYMBOL        CC_Port
  D:0005H         SYMBOL        ucPow_Role
  C:9323H         LINE#         425
  C:9323H         LINE#         426
  C:9323H         LINE#         427
  C:9326H         LINE#         428
  C:9326H         LINE#         429
  C:932AH         LINE#         430
  C:932AH         LINE#         431
  C:9331H         LINE#         432
  C:9334H         LINE#         433
  C:9336H         LINE#         434
  C:933BH         LINE#         435
  C:933BH         LINE#         436
  C:9342H         LINE#         437
  C:9345H         LINE#         438
  C:9345H         LINE#         439
  C:9347H         LINE#         440
  C:934CH         LINE#         441
  C:934CH         LINE#         442
  C:9350H         LINE#         443
  C:9350H         LINE#         444
BL51 BANKED LINKER/LOCATER V6.22                                                      06/21/2023  15:37:55  PAGE 252


  C:9357H         LINE#         445
  C:935EH         LINE#         446
  C:935FH         LINE#         447
  C:9363H         LINE#         448
  C:9363H         LINE#         449
  C:936AH         LINE#         450
  C:9371H         LINE#         451
  C:9371H         LINE#         452
  C:9371H         LINE#         453
  -------         ENDPROC       _DRV_POWERROLE_SET
  -------         PROC          DRV_FRTRIG_SEND
  C:AC72H         LINE#         455
  C:AC72H         LINE#         456
  C:AC72H         LINE#         457
  C:AC79H         LINE#         458
  C:AC7FH         LINE#         459
  C:AC81H         LINE#         462
  -------         ENDPROC       DRV_FRTRIG_SEND
  -------         PROC          CHIP_UCC_RPONSCAN
  -------         DO            
  D:0007H         SYMBOL        CC_Connect_State
  X:05B8H         SYMBOL        CC_Connect_Loop
  -------         ENDDO         
  C:9F54H         LINE#         484
  C:9F54H         LINE#         485
  C:9F54H         LINE#         486
  C:9F55H         LINE#         488
  C:9F59H         LINE#         489
  C:9F59H         LINE#         491
  C:9F60H         LINE#         492
  C:9F60H         LINE#         493
  C:9F68H         LINE#         494
  C:9F68H         LINE#         495
  C:9F6AH         LINE#         496
  C:9F6CH         LINE#         497
  C:9F6CH         LINE#         499
  C:9F6CH         LINE#         500
  C:9F73H         LINE#         501
  C:9F75H         LINE#         502
  C:9F75H         LINE#         503
  C:9F77H         LINE#         505
  C:9F77H         LINE#         506
  C:9F79H         LINE#         507
  C:9F7BH         LINE#         508
  C:9F7BH         LINE#         509
  C:9F87H         LINE#         510
  C:9F87H         LINE#         511
  -------         ENDPROC       CHIP_UCC_RPONSCAN
  -------         PROC          CHIP_UCC_RDONSCAN
  -------         DO            
  D:0007H         SYMBOL        CC_Connect_State
  X:04B2H         SYMBOL        CC_Connect_Loop
  -------         ENDDO         
  C:9F88H         LINE#         512
  C:9F88H         LINE#         513
  C:9F88H         LINE#         514
  C:9F89H         LINE#         516
BL51 BANKED LINKER/LOCATER V6.22                                                      06/21/2023  15:37:55  PAGE 253


  C:9F8DH         LINE#         517
  C:9F8DH         LINE#         519
  C:9F94H         LINE#         520
  C:9F94H         LINE#         521
  C:9F9CH         LINE#         522
  C:9F9CH         LINE#         523
  C:9F9EH         LINE#         524
  C:9FA0H         LINE#         525
  C:9FA0H         LINE#         527
  C:9FA0H         LINE#         528
  C:9FA7H         LINE#         529
  C:9FA9H         LINE#         530
  C:9FA9H         LINE#         531
  C:9FABH         LINE#         533
  C:9FABH         LINE#         534
  C:9FADH         LINE#         535
  C:9FAFH         LINE#         536
  C:9FAFH         LINE#         537
  C:9FBBH         LINE#         538
  C:9FBBH         LINE#         539
  -------         ENDPROC       CHIP_UCC_RDONSCAN
  -------         PROC          _DRV_CCRTERM_CALI
  X:04B1H         SYMBOL        UCC_DCC
  -------         DO            
  X:04B2H         SYMBOL        CC_Cali_Cnt
  -------         ENDDO         
  C:6AD2H         LINE#         541
  C:6AD7H         LINE#         542
  C:6AD7H         LINE#         543
  C:6ADAH         LINE#         544
  C:6ADDH         LINE#         545
  C:6ADDH         LINE#         546
  C:6AE4H         LINE#         547
  C:6AE7H         LINE#         548
  C:6AECH         LINE#         549
  C:6AF2H         LINE#         550
  C:6AF8H         LINE#         551
  C:6AFEH         LINE#         552
  C:6B03H         LINE#         553
  C:6B03H         LINE#         554
  C:6B0AH         LINE#         555
  C:6B11H         LINE#         556
  C:6B18H         LINE#         557
  C:6B1FH         LINE#         558
  C:6B27H         LINE#         559
  C:6B27H         LINE#         561
  C:6B27H         LINE#         562
  C:6B2BH         LINE#         563
  C:6B2BH         LINE#         565
  C:6B2BH         LINE#         569
  C:6B2BH         LINE#         570
  C:6B38H         LINE#         571
  C:6B38H         LINE#         572
  C:6B40H         LINE#         573
  C:6B40H         LINE#         574
  C:6B47H         LINE#         575
  C:6B4AH         LINE#         576
BL51 BANKED LINKER/LOCATER V6.22                                                      06/21/2023  15:37:55  PAGE 254


  C:6B4FH         LINE#         577
  C:6B55H         LINE#         578
  C:6B5BH         LINE#         579
  C:6B61H         LINE#         580
  C:6B66H         LINE#         581
  C:6B66H         LINE#         582
  C:6B6DH         LINE#         583
  C:6B74H         LINE#         584
  C:6B7BH         LINE#         585
  C:6B82H         LINE#         586
  C:6B8AH         LINE#         587
  C:6B8AH         LINE#         589
  C:6B8AH         LINE#         590
  C:6B8EH         LINE#         591
  C:6B8EH         LINE#         593
  C:6B8EH         LINE#         597
  C:6B8EH         LINE#         598
  C:6B9AH         LINE#         599
  C:6B9AH         LINE#         600
  -------         ENDPROC       _DRV_CCRTERM_CALI
  -------         PROC          DRV_CCPHY_DIGSET
  C:A1CFH         LINE#         624
  C:A1CFH         LINE#         625
  C:A1CFH         LINE#         626
  C:A1D4H         LINE#         627
  C:A1D9H         LINE#         628
  C:A1DDH         LINE#         629
  C:A1E1H         LINE#         630
  C:A1E5H         LINE#         631
  C:A1E9H         LINE#         632
  C:A1EDH         LINE#         633
  C:A1F1H         LINE#         634
  C:A1F5H         LINE#         637
  C:A1F9H         LINE#         638
  -------         ENDPROC       DRV_CCPHY_DIGSET
  -------         ENDMOD        DRVTYPECDCC

  -------         MODULE        DRVTYPECUCC
  C:0000H         SYMBOL        _ICE_DUMMY_
  D:00C8H         PUBLIC        T2CON
  -------         ENDMOD        DRVTYPECUCC

  -------         MODULE        REGISTER
  C:0000H         SYMBOL        _ICE_DUMMY_
  X:A200H         PUBLIC        BKA2_00_REG
  X:A101H         PUBLIC        BKA1_01_REG
  X:A300H         PUBLIC        BKA3_00_REG
  X:A210H         PUBLIC        BKA2_10_REG
  X:A201H         PUBLIC        BKA2_01_REG
  X:A102H         PUBLIC        BKA1_02_REG
  X:A202H         PUBLIC        BKA2_02_REG
  X:A130H         PUBLIC        BKA1_30_REG
  X:A103H         PUBLIC        BKA1_03_REG
  X:A320H         PUBLIC        BKA3_20_REG
  X:A302H         PUBLIC        BKA3_02_REG
  X:A212H         PUBLIC        BKA2_12_REG
  X:A203H         PUBLIC        BKA2_03_REG
BL51 BANKED LINKER/LOCATER V6.22                                                      06/21/2023  15:37:55  PAGE 255


  X:A131H         PUBLIC        BKA1_31_REG
  X:A113H         PUBLIC        BKA1_13_REG
  X:A104H         PUBLIC        BKA1_04_REG
  X:F100H         PUBLIC        BKF1_00_REG
  X:E200H         PUBLIC        BKE2_00_REG
  X:D030H         PUBLIC        BKD0_30_REG
  X:A321H         PUBLIC        BKA3_21_REG
  X:A150H         PUBLIC        BKA1_50_REG
  X:A132H         PUBLIC        BKA1_32_REG
  X:A105H         PUBLIC        BKA1_05_REG
  X:E300H         PUBLIC        BKE3_00_REG
  X:E210H         PUBLIC        BKE2_10_REG
  X:E201H         PUBLIC        BKE2_01_REG
  X:E120H         PUBLIC        BKE1_20_REG
  X:A340H         PUBLIC        BKA3_40_REG
  X:A151H         PUBLIC        BKA1_51_REG
  X:A142H         PUBLIC        BKA1_42_REG
  X:A133H         PUBLIC        BKA1_33_REG
  X:A115H         PUBLIC        BKA1_15_REG
  X:A106H         PUBLIC        BKA1_06_REG
  X:F300H         PUBLIC        BKF3_00_REG
  X:F210H         PUBLIC        BKF2_10_REG
  X:F030H         PUBLIC        BKF0_30_REG
  X:E310H         PUBLIC        BKE3_10_REG
  X:E301H         PUBLIC        BKE3_01_REG
  X:E220H         PUBLIC        BKE2_20_REG
  X:E211H         PUBLIC        BKE2_11_REG
  X:E130H         PUBLIC        BKE1_30_REG
  X:E121H         PUBLIC        BKE1_21_REG
  X:E103H         PUBLIC        BKE1_03_REG
  X:C510H         PUBLIC        BKC5_10_REG
  X:C501H         PUBLIC        BKC5_01_REG
  X:A341H         PUBLIC        BKA3_41_REG
  X:A332H         PUBLIC        BKA3_32_REG
  X:A323H         PUBLIC        BKA3_23_REG
  X:A314H         PUBLIC        BKA3_14_REG
  X:A251H         PUBLIC        BKA2_51_REG
  X:A206H         PUBLIC        BKA2_06_REG
  X:A170H         PUBLIC        BKA1_70_REG
  X:A152H         PUBLIC        BKA1_52_REG
  X:A143H         PUBLIC        BKA1_43_REG
  X:A125H         PUBLIC        BKA1_25_REG
  X:A107H         PUBLIC        BKA1_07_REG
  X:F310H         PUBLIC        BKF3_10_REG
  X:F301H         PUBLIC        BKF3_01_REG
  X:F103H         PUBLIC        BKF1_03_REG
  X:E500H         PUBLIC        BKE5_00_REG
  X:E320H         PUBLIC        BKE3_20_REG
  X:E311H         PUBLIC        BKE3_11_REG
  X:E212H         PUBLIC        BKE2_12_REG
  X:E140H         PUBLIC        BKE1_40_REG
  X:E131H         PUBLIC        BKE1_31_REG
  X:E122H         PUBLIC        BKE1_22_REG
  X:C511H         PUBLIC        BKC5_11_REG
  X:C502H         PUBLIC        BKC5_02_REG
  X:A360H         PUBLIC        BKA3_60_REG
  X:A342H         PUBLIC        BKA3_42_REG
BL51 BANKED LINKER/LOCATER V6.22                                                      06/21/2023  15:37:55  PAGE 256


  X:A333H         PUBLIC        BKA3_33_REG
  X:A324H         PUBLIC        BKA3_24_REG
  X:A171H         PUBLIC        BKA1_71_REG
  X:A144H         PUBLIC        BKA1_44_REG
  X:A135H         PUBLIC        BKA1_35_REG
  X:A126H         PUBLIC        BKA1_26_REG
  X:A117H         PUBLIC        BKA1_17_REG
  X:A108H         PUBLIC        BKA1_08_REG
  X:F500H         PUBLIC        BKF5_00_REG
  X:F410H         PUBLIC        BKF4_10_REG
  X:F320H         PUBLIC        BKF3_20_REG
  X:F311H         PUBLIC        BKF3_11_REG
  X:F302H         PUBLIC        BKF3_02_REG
  X:F104H         PUBLIC        BKF1_04_REG
  X:E510H         PUBLIC        BKE5_10_REG
  X:E501H         PUBLIC        BKE5_01_REG
  X:E330H         PUBLIC        BKE3_30_REG
  X:E321H         PUBLIC        BKE3_21_REG
  X:E312H         PUBLIC        BKE3_12_REG
  X:E303H         PUBLIC        BKE3_03_REG
  X:E222H         PUBLIC        BKE2_22_REG
  X:E141H         PUBLIC        BKE1_41_REG
  X:E132H         PUBLIC        BKE1_32_REG
  X:E123H         PUBLIC        BKE1_23_REG
  X:E105H         PUBLIC        BKE1_05_REG
  X:E060H         PUBLIC        BKE0_60_REG
  X:C503H         PUBLIC        BKC5_03_REG
  X:A370H         PUBLIC        BKA3_70_REG
  X:A361H         PUBLIC        BKA3_61_REG
  X:A343H         PUBLIC        BKA3_43_REG
  X:A334H         PUBLIC        BKA3_34_REG
  X:A325H         PUBLIC        BKA3_25_REG
  X:A172H         PUBLIC        BKA1_72_REG
  X:A154H         PUBLIC        BKA1_54_REG
  X:A127H         PUBLIC        BKA1_27_REG
  X:A109H         PUBLIC        BKA1_09_REG
  X:F501H         PUBLIC        BKF5_01_REG
  X:F420H         PUBLIC        BKF4_20_REG
  X:F411H         PUBLIC        BKF4_11_REG
  X:F402H         PUBLIC        BKF4_02_REG
  X:F321H         PUBLIC        BKF3_21_REG
  X:F312H         PUBLIC        BKF3_12_REG
  X:F303H         PUBLIC        BKF3_03_REG
  X:F150H         PUBLIC        BKF1_50_REG
  X:F105H         PUBLIC        BKF1_05_REG
  X:E700H         PUBLIC        BKE7_00_REG
  X:E610H         PUBLIC        BKE6_10_REG
  X:E322H         PUBLIC        BKE3_22_REG
  X:E313H         PUBLIC        BKE3_13_REG
  X:E250H         PUBLIC        BKE2_50_REG
  X:E205H         PUBLIC        BKE2_05_REG
  X:E133H         PUBLIC        BKE1_33_REG
  X:E124H         PUBLIC        BKE1_24_REG
  X:E106H         PUBLIC        BKE1_06_REG
  X:C522H         PUBLIC        BKC5_22_REG
  X:C504H         PUBLIC        BKC5_04_REG
  X:A380H         PUBLIC        BKA3_80_REG
BL51 BANKED LINKER/LOCATER V6.22                                                      06/21/2023  15:37:55  PAGE 257


  X:A371H         PUBLIC        BKA3_71_REG
  X:A362H         PUBLIC        BKA3_62_REG
  X:A344H         PUBLIC        BKA3_44_REG
  X:A335H         PUBLIC        BKA3_35_REG
  X:A326H         PUBLIC        BKA3_26_REG
  X:A308H         PUBLIC        BKA3_08_REG
  X:A227H         PUBLIC        BKA2_27_REG
  X:A173H         PUBLIC        BKA1_73_REG
  X:A155H         PUBLIC        BKA1_55_REG
  X:A137H         PUBLIC        BKA1_37_REG
  X:A128H         PUBLIC        BKA1_28_REG
  X:A119H         PUBLIC        BKA1_19_REG
  X:F700H         PUBLIC        BKF7_00_REG
  X:F610H         PUBLIC        BKF6_10_REG
  X:F520H         PUBLIC        BKF5_20_REG
  X:F502H         PUBLIC        BKF5_02_REG
  X:F412H         PUBLIC        BKF4_12_REG
  X:F331H         PUBLIC        BKF3_31_REG
  X:F322H         PUBLIC        BKF3_22_REG
  X:F313H         PUBLIC        BKF3_13_REG
  X:F304H         PUBLIC        BKF3_04_REG
  X:F160H         PUBLIC        BKF1_60_REG
  X:F106H         PUBLIC        BKF1_06_REG
  X:F034H         PUBLIC        BKF0_34_REG
  X:E530H         PUBLIC        BKE5_30_REG
  X:E512H         PUBLIC        BKE5_12_REG
  X:E323H         PUBLIC        BKE3_23_REG
  X:E314H         PUBLIC        BKE3_14_REG
  X:E134H         PUBLIC        BKE1_34_REG
  X:E125H         PUBLIC        BKE1_25_REG
  X:E107H         PUBLIC        BKE1_07_REG
  X:E080H         PUBLIC        BKE0_80_REG
  X:C910H         PUBLIC        BKC9_10_REG
  X:C820H         PUBLIC        BKC8_20_REG
  X:C811H         PUBLIC        BKC8_11_REG
  X:A381H         PUBLIC        BKA3_81_REG
  X:A372H         PUBLIC        BKA3_72_REG
  X:A363H         PUBLIC        BKA3_63_REG
  X:A345H         PUBLIC        BKA3_45_REG
  X:A174H         PUBLIC        BKA1_74_REG
  X:A138H         PUBLIC        BKA1_38_REG
  X:F710H         PUBLIC        BKF7_10_REG
  X:F611H         PUBLIC        BKF6_11_REG
  X:F530H         PUBLIC        BKF5_30_REG
  X:F323H         PUBLIC        BKF3_23_REG
  X:F314H         PUBLIC        BKF3_14_REG
  X:F305H         PUBLIC        BKF3_05_REG
  X:F170H         PUBLIC        BKF1_70_REG
  X:F152H         PUBLIC        BKF1_52_REG
  X:F107H         PUBLIC        BKF1_07_REG
  X:E702H         PUBLIC        BKE7_02_REG
  X:E540H         PUBLIC        BKE5_40_REG
  X:E531H         PUBLIC        BKE5_31_REG
  X:E324H         PUBLIC        BKE3_24_REG
  X:E315H         PUBLIC        BKE3_15_REG
  X:E207H         PUBLIC        BKE2_07_REG
  X:E135H         PUBLIC        BKE1_35_REG
BL51 BANKED LINKER/LOCATER V6.22                                                      06/21/2023  15:37:55  PAGE 258


  X:E126H         PUBLIC        BKE1_26_REG
  X:E108H         PUBLIC        BKE1_08_REG
  X:E090H         PUBLIC        BKE0_90_REG
  X:E081H         PUBLIC        BKE0_81_REG
  X:C920H         PUBLIC        BKC9_20_REG
  X:C911H         PUBLIC        BKC9_11_REG
  X:C821H         PUBLIC        BKC8_21_REG
  X:C812H         PUBLIC        BKC8_12_REG
  X:C740H         PUBLIC        BKC7_40_REG
  X:A382H         PUBLIC        BKA3_82_REG
  X:A373H         PUBLIC        BKA3_73_REG
  X:A364H         PUBLIC        BKA3_64_REG
  X:A346H         PUBLIC        BKA3_46_REG
  X:A175H         PUBLIC        BKA1_75_REG
  X:A148H         PUBLIC        BKA1_48_REG
  X:F171H         PUBLIC        BKF1_71_REG
  X:F900H         PUBLIC        BKF9_00_REG
  X:F711H         PUBLIC        BKF7_11_REG
  X:F612H         PUBLIC        BKF6_12_REG
  X:F540H         PUBLIC        BKF5_40_REG
  X:F432H         PUBLIC        BKF4_32_REG
  X:F405H         PUBLIC        BKF4_05_REG
  X:F324H         PUBLIC        BKF3_24_REG
  X:F315H         PUBLIC        BKF3_15_REG
  X:F306H         PUBLIC        BKF3_06_REG
  X:F216H         PUBLIC        BKF2_16_REG
  X:F180H         PUBLIC        BKF1_80_REG
  X:F153H         PUBLIC        BKF1_53_REG
  X:E550H         PUBLIC        BKE5_50_REG
  X:E541H         PUBLIC        BKE5_41_REG
  X:E532H         PUBLIC        BKE5_32_REG
  X:E316H         PUBLIC        BKE3_16_REG
  X:E208H         PUBLIC        BKE2_08_REG
  X:E136H         PUBLIC        BKE1_36_REG
  X:E127H         PUBLIC        BKE1_27_REG
  X:E109H         PUBLIC        BKE1_09_REG
  X:E091H         PUBLIC        BKE0_91_REG
  X:E082H         PUBLIC        BKE0_82_REG
  X:C912H         PUBLIC        BKC9_12_REG
  X:C903H         PUBLIC        BKC9_03_REG
  X:C822H         PUBLIC        BKC8_22_REG
  X:A383H         PUBLIC        BKA3_83_REG
  X:A374H         PUBLIC        BKA3_74_REG
  X:A365H         PUBLIC        BKA3_65_REG
  X:A356H         PUBLIC        BKA3_56_REG
  X:A176H         PUBLIC        BKA1_76_REG
  X:A167H         PUBLIC        BKA1_67_REG
  X:A158H         PUBLIC        BKA1_58_REG
  X:A149H         PUBLIC        BKA1_49_REG
  X:F712H         PUBLIC        BKF7_12_REG
  X:F703H         PUBLIC        BKF7_03_REG
  X:F613H         PUBLIC        BKF6_13_REG
  X:F541H         PUBLIC        BKF5_41_REG
  X:F523H         PUBLIC        BKF5_23_REG
  X:F406H         PUBLIC        BKF4_06_REG
  X:F334H         PUBLIC        BKF3_34_REG
  X:F325H         PUBLIC        BKF3_25_REG
BL51 BANKED LINKER/LOCATER V6.22                                                      06/21/2023  15:37:55  PAGE 259


  X:F316H         PUBLIC        BKF3_16_REG
  X:F307H         PUBLIC        BKF3_07_REG
  X:F217H         PUBLIC        BKF2_17_REG
  X:F172H         PUBLIC        BKF1_72_REG
  X:F154H         PUBLIC        BKF1_54_REG
  X:E704H         PUBLIC        BKE7_04_REG
  X:E542H         PUBLIC        BKE5_42_REG
  X:E506H         PUBLIC        BKE5_06_REG
  X:E380H         PUBLIC        BKE3_80_REG
  X:E362H         PUBLIC        BKE3_62_REG
  X:E317H         PUBLIC        BKE3_17_REG
  X:E263H         PUBLIC        BKE2_63_REG
  X:E209H         PUBLIC        BKE2_09_REG
  X:E137H         PUBLIC        BKE1_37_REG
  X:E128H         PUBLIC        BKE1_28_REG
  X:E092H         PUBLIC        BKE0_92_REG
  X:E083H         PUBLIC        BKE0_83_REG
  X:E065H         PUBLIC        BKE0_65_REG
  X:D606H         PUBLIC        BKD6_06_REG
  X:C913H         PUBLIC        BKC9_13_REG
  X:C850H         PUBLIC        BKC8_50_REG
  X:C823H         PUBLIC        BKC8_23_REG
  X:C508H         PUBLIC        BKC5_08_REG
  X:A384H         PUBLIC        BKA3_84_REG
  X:A375H         PUBLIC        BKA3_75_REG
  X:A366H         PUBLIC        BKA3_66_REG
  X:A357H         PUBLIC        BKA3_57_REG
  X:A177H         PUBLIC        BKA1_77_REG
  X:A159H         PUBLIC        BKA1_59_REG
  X:F713H         PUBLIC        BKF7_13_REG
  X:F614H         PUBLIC        BKF6_14_REG
  X:F542H         PUBLIC        BKF5_42_REG
  X:F416H         PUBLIC        BKF4_16_REG
  X:F326H         PUBLIC        BKF3_26_REG
  X:F308H         PUBLIC        BKF3_08_REG
  X:F263H         PUBLIC        BKF2_63_REG
  X:F218H         PUBLIC        BKF2_18_REG
  X:F191H         PUBLIC        BKF1_91_REG
  X:F182H         PUBLIC        BKF1_82_REG
  X:F164H         PUBLIC        BKF1_64_REG
  X:F119H         PUBLIC        BKF1_19_REG
  X:E921H         PUBLIC        BKE9_21_REG
  X:E660H         PUBLIC        BKE6_60_REG
  X:E381H         PUBLIC        BKE3_81_REG
  X:E318H         PUBLIC        BKE3_18_REG
  X:E309H         PUBLIC        BKE3_09_REG
  X:E228H         PUBLIC        BKE2_28_REG
  X:E219H         PUBLIC        BKE2_19_REG
  X:E138H         PUBLIC        BKE1_38_REG
  X:E129H         PUBLIC        BKE1_29_REG
  X:E093H         PUBLIC        BKE0_93_REG
  X:E084H         PUBLIC        BKE0_84_REG
  X:E066H         PUBLIC        BKE0_66_REG
  X:C914H         PUBLIC        BKC9_14_REG
  X:C851H         PUBLIC        BKC8_51_REG
  X:C824H         PUBLIC        BKC8_24_REG
  X:A385H         PUBLIC        BKA3_85_REG
BL51 BANKED LINKER/LOCATER V6.22                                                      06/21/2023  15:37:55  PAGE 260


  X:A376H         PUBLIC        BKA3_76_REG
  X:A367H         PUBLIC        BKA3_67_REG
  X:A178H         PUBLIC        BKA1_78_REG
  X:F714H         PUBLIC        BKF7_14_REG
  X:F705H         PUBLIC        BKF7_05_REG
  X:F606H         PUBLIC        BKF6_06_REG
  X:F543H         PUBLIC        BKF5_43_REG
  X:F426H         PUBLIC        BKF4_26_REG
  X:F417H         PUBLIC        BKF4_17_REG
  X:F408H         PUBLIC        BKF4_08_REG
  X:F390H         PUBLIC        BKF3_90_REG
  X:F363H         PUBLIC        BKF3_63_REG
  X:F309H         PUBLIC        BKF3_09_REG
  X:F264H         PUBLIC        BKF2_64_REG
  X:F219H         PUBLIC        BKF2_19_REG
  X:F174H         PUBLIC        BKF1_74_REG
  X:E922H         PUBLIC        BKE9_22_REG
  X:E904H         PUBLIC        BKE9_04_REG
  X:E706H         PUBLIC        BKE7_06_REG
  X:E670H         PUBLIC        BKE6_70_REG
  X:E661H         PUBLIC        BKE6_61_REG
  X:E580H         PUBLIC        BKE5_80_REG
  X:E553H         PUBLIC        BKE5_53_REG
  X:E535H         PUBLIC        BKE5_35_REG
  X:E391H         PUBLIC        BKE3_91_REG
  X:E382H         PUBLIC        BKE3_82_REG
  X:E319H         PUBLIC        BKE3_19_REG
  X:E274H         PUBLIC        BKE2_74_REG
  X:E247H         PUBLIC        BKE2_47_REG
  X:E094H         PUBLIC        BKE0_94_REG
  X:E085H         PUBLIC        BKE0_85_REG
  X:E067H         PUBLIC        BKE0_67_REG
  X:E058H         PUBLIC        BKE0_58_REG
  X:C915H         PUBLIC        BKC9_15_REG
  X:C906H         PUBLIC        BKC9_06_REG
  X:C852H         PUBLIC        BKC8_52_REG
  X:C825H         PUBLIC        BKC8_25_REG
  X:A386H         PUBLIC        BKA3_86_REG
  X:A377H         PUBLIC        BKA3_77_REG
  X:A368H         PUBLIC        BKA3_68_REG
  X:A179H         PUBLIC        BKA1_79_REG
  X:F724H         PUBLIC        BKF7_24_REG
  X:F715H         PUBLIC        BKF7_15_REG
  X:F706H         PUBLIC        BKF7_06_REG
  X:F580H         PUBLIC        BKF5_80_REG
  X:F553H         PUBLIC        BKF5_53_REG
  X:F544H         PUBLIC        BKF5_44_REG
  X:F436H         PUBLIC        BKF4_36_REG
  X:F409H         PUBLIC        BKF4_09_REG
  X:F382H         PUBLIC        BKF3_82_REG
  X:F355H         PUBLIC        BKF3_55_REG
  X:F346H         PUBLIC        BKF3_46_REG
  X:F337H         PUBLIC        BKF3_37_REG
  X:F265H         PUBLIC        BKF2_65_REG
  X:F193H         PUBLIC        BKF1_93_REG
  X:F184H         PUBLIC        BKF1_84_REG
  X:F166H         PUBLIC        BKF1_66_REG
BL51 BANKED LINKER/LOCATER V6.22                                                      06/21/2023  15:37:55  PAGE 261


  X:E671H         PUBLIC        BKE6_71_REG
  X:E581H         PUBLIC        BKE5_81_REG
  X:E545H         PUBLIC        BKE5_45_REG
  X:E536H         PUBLIC        BKE5_36_REG
  X:E392H         PUBLIC        BKE3_92_REG
  X:E338H         PUBLIC        BKE3_38_REG
  X:E293H         PUBLIC        BKE2_93_REG
  X:E095H         PUBLIC        BKE0_95_REG
  X:E086H         PUBLIC        BKE0_86_REG
  X:E068H         PUBLIC        BKE0_68_REG
  X:E059H         PUBLIC        BKE0_59_REG
  X:D618H         PUBLIC        BKD6_18_REG
  X:C916H         PUBLIC        BKC9_16_REG
  X:C907H         PUBLIC        BKC9_07_REG
  X:C880H         PUBLIC        BKC8_80_REG
  X:C871H         PUBLIC        BKC8_71_REG
  X:C853H         PUBLIC        BKC8_53_REG
  X:C826H         PUBLIC        BKC8_26_REG
  X:C637H         PUBLIC        BKC6_37_REG
  X:A387H         PUBLIC        BKA3_87_REG
  X:A378H         PUBLIC        BKA3_78_REG
  X:A369H         PUBLIC        BKA3_69_REG
  X:A10AH         PUBLIC        BKA1_0A_REG
  X:F725H         PUBLIC        BKF7_25_REG
  X:F716H         PUBLIC        BKF7_16_REG
  X:F707H         PUBLIC        BKF7_07_REG
  X:F581H         PUBLIC        BKF5_81_REG
  X:F545H         PUBLIC        BKF5_45_REG
  X:F383H         PUBLIC        BKF3_83_REG
  X:F347H         PUBLIC        BKF3_47_REG
  X:F338H         PUBLIC        BKF3_38_REG
  X:F266H         PUBLIC        BKF2_66_REG
  X:F176H         PUBLIC        BKF1_76_REG
  X:E717H         PUBLIC        BKE7_17_REG
  X:E690H         PUBLIC        BKE6_90_REG
  X:E555H         PUBLIC        BKE5_55_REG
  X:E546H         PUBLIC        BKE5_46_REG
  X:E384H         PUBLIC        BKE3_84_REG
  X:E096H         PUBLIC        BKE0_96_REG
  X:E087H         PUBLIC        BKE0_87_REG
  X:E069H         PUBLIC        BKE0_69_REG
  X:CA00H         PUBLIC        BKCA_00_REG
  X:C917H         PUBLIC        BKC9_17_REG
  X:C908H         PUBLIC        BKC9_08_REG
  X:C854H         PUBLIC        BKC8_54_REG
  X:C827H         PUBLIC        BKC8_27_REG
  X:C746H         PUBLIC        BKC7_46_REG
  X:C638H         PUBLIC        BKC6_38_REG
  X:A388H         PUBLIC        BKA3_88_REG
  X:A379H         PUBLIC        BKA3_79_REG
  X:A298H         PUBLIC        BKA2_98_REG
  X:A20AH         PUBLIC        BKA2_0A_REG
  X:A10BH         PUBLIC        BKA1_0B_REG
  X:F726H         PUBLIC        BKF7_26_REG
  X:F717H         PUBLIC        BKF7_17_REG
  X:F708H         PUBLIC        BKF7_08_REG
  X:F690H         PUBLIC        BKF6_90_REG
BL51 BANKED LINKER/LOCATER V6.22                                                      06/21/2023  15:37:55  PAGE 262


  X:F591H         PUBLIC        BKF5_91_REG
  X:F555H         PUBLIC        BKF5_55_REG
  X:F546H         PUBLIC        BKF5_46_REG
  X:F438H         PUBLIC        BKF4_38_REG
  X:F348H         PUBLIC        BKF3_48_REG
  X:F267H         PUBLIC        BKF2_67_REG
  X:F195H         PUBLIC        BKF1_95_REG
  X:F168H         PUBLIC        BKF1_68_REG
  X:E925H         PUBLIC        BKE9_25_REG
  X:E916H         PUBLIC        BKE9_16_REG
  X:E907H         PUBLIC        BKE9_07_REG
  X:E556H         PUBLIC        BKE5_56_REG
  X:E385H         PUBLIC        BKE3_85_REG
  X:E358H         PUBLIC        BKE3_58_REG
  X:E097H         PUBLIC        BKE0_97_REG
  X:E088H         PUBLIC        BKE0_88_REG
  X:D737H         PUBLIC        BKD7_37_REG
  X:CA01H         PUBLIC        BKCA_01_REG
  X:C918H         PUBLIC        BKC9_18_REG
  X:C855H         PUBLIC        BKC8_55_REG
  X:C846H         PUBLIC        BKC8_46_REG
  X:C828H         PUBLIC        BKC8_28_REG
  X:C819H         PUBLIC        BKC8_19_REG
  X:C774H         PUBLIC        BKC7_74_REG
  X:C765H         PUBLIC        BKC7_65_REG
  X:C747H         PUBLIC        BKC7_47_REG
  X:C639H         PUBLIC        BKC6_39_REG
  X:A2B0H         PUBLIC        BKA2_B0_REG
  X:A11BH         PUBLIC        BKA1_1B_REG
  X:A10CH         PUBLIC        BKA1_0C_REG
  X:F727H         PUBLIC        BKF7_27_REG
  X:F718H         PUBLIC        BKF7_18_REG
  X:F709H         PUBLIC        BKF7_09_REG
  X:F691H         PUBLIC        BKF6_91_REG
  X:F547H         PUBLIC        BKF5_47_REG
  X:F439H         PUBLIC        BKF4_39_REG
  X:F349H         PUBLIC        BKF3_49_REG
  X:F178H         PUBLIC        BKF1_78_REG
  X:F169H         PUBLIC        BKF1_69_REG
  X:E908H         PUBLIC        BKE9_08_REG
  X:E0A0H         PUBLIC        BKE0_A0_REG
  X:E098H         PUBLIC        BKE0_98_REG
  X:E089H         PUBLIC        BKE0_89_REG
  X:D0B0H         PUBLIC        BKD0_B0_REG
  X:CC00H         PUBLIC        BKCC_00_REG
  X:CA11H         PUBLIC        BKCA_11_REG
  X:C919H         PUBLIC        BKC9_19_REG
  X:C856H         PUBLIC        BKC8_56_REG
  X:C847H         PUBLIC        BKC8_47_REG
  X:C775H         PUBLIC        BKC7_75_REG
  X:C766H         PUBLIC        BKC7_66_REG
  X:C748H         PUBLIC        BKC7_48_REG
  X:A2B1H         PUBLIC        BKA2_B1_REG
  X:A13AH         PUBLIC        BKA1_3A_REG
  X:A11CH         PUBLIC        BKA1_1C_REG
  X:A10DH         PUBLIC        BKA1_0D_REG
  X:F728H         PUBLIC        BKF7_28_REG
BL51 BANKED LINKER/LOCATER V6.22                                                      06/21/2023  15:37:55  PAGE 263


  X:F719H         PUBLIC        BKF7_19_REG
  X:F692H         PUBLIC        BKF6_92_REG
  X:F584H         PUBLIC        BKF5_84_REG
  X:F557H         PUBLIC        BKF5_57_REG
  X:F548H         PUBLIC        BKF5_48_REG
  X:F386H         PUBLIC        BKF3_86_REG
  X:F377H         PUBLIC        BKF3_77_REG
  X:F197H         PUBLIC        BKF1_97_REG
  X:EA01H         PUBLIC        BKEA_01_REG
  X:E990H         PUBLIC        BKE9_90_REG
  X:E981H         PUBLIC        BKE9_81_REG
  X:E387H         PUBLIC        BKE3_87_REG
  X:E10AH         PUBLIC        BKE1_0A_REG
  X:E0B0H         PUBLIC        BKE0_B0_REG
  X:E0A1H         PUBLIC        BKE0_A1_REG
  X:E099H         PUBLIC        BKE0_99_REG
  X:E00BH         PUBLIC        BKE0_0B_REG
  X:CD00H         PUBLIC        BKCD_00_REG
  X:CC10H         PUBLIC        BKCC_10_REG
  X:CA12H         PUBLIC        BKCA_12_REG
  X:CA03H         PUBLIC        BKCA_03_REG
  X:C857H         PUBLIC        BKC8_57_REG
  X:C848H         PUBLIC        BKC8_48_REG
  X:C767H         PUBLIC        BKC7_67_REG
  X:C758H         PUBLIC        BKC7_58_REG
  X:C749H         PUBLIC        BKC7_49_REG
  X:A32AH         PUBLIC        BKA3_2A_REG
  X:A2B2H         PUBLIC        BKA2_B2_REG
  X:A13BH         PUBLIC        BKA1_3B_REG
  X:A10EH         PUBLIC        BKA1_0E_REG
  X:F729H         PUBLIC        BKF7_29_REG
  X:F585H         PUBLIC        BKF5_85_REG
  X:F549H         PUBLIC        BKF5_49_REG
  X:F387H         PUBLIC        BKF3_87_REG
  X:F369H         PUBLIC        BKF3_69_REG
  X:E694H         PUBLIC        BKE6_94_REG
  X:E388H         PUBLIC        BKE3_88_REG
  X:E289H         PUBLIC        BKE2_89_REG
  X:E10BH         PUBLIC        BKE1_0B_REG
  X:E0A2H         PUBLIC        BKE0_A2_REG
  X:CD01H         PUBLIC        BKCD_01_REG
  X:CC20H         PUBLIC        BKCC_20_REG
  X:CA31H         PUBLIC        BKCA_31_REG
  X:C858H         PUBLIC        BKC8_58_REG
  X:C849H         PUBLIC        BKC8_49_REG
  X:C768H         PUBLIC        BKC7_68_REG
  X:C759H         PUBLIC        BKC7_59_REG
  X:A32BH         PUBLIC        BKA3_2B_REG
  X:A2B3H         PUBLIC        BKA2_B3_REG
  X:A15AH         PUBLIC        BKA1_5A_REG
  X:A14BH         PUBLIC        BKA1_4B_REG
  X:A13CH         PUBLIC        BKA1_3C_REG
  X:F586H         PUBLIC        BKF5_86_REG
  X:F388H         PUBLIC        BKF3_88_REG
  X:F379H         PUBLIC        BKF3_79_REG
  X:F11AH         PUBLIC        BKF1_1A_REG
  X:ED00H         PUBLIC        BKED_00_REG
BL51 BANKED LINKER/LOCATER V6.22                                                      06/21/2023  15:37:55  PAGE 264


  X:EB11H         PUBLIC        BKEB_11_REG
  X:EA30H         PUBLIC        BKEA_30_REG
  X:EA03H         PUBLIC        BKEA_03_REG
  X:E983H         PUBLIC        BKE9_83_REG
  X:E929H         PUBLIC        BKE9_29_REG
  X:E389H         PUBLIC        BKE3_89_REG
  X:E30AH         PUBLIC        BKE3_0A_REG
  X:E2A1H         PUBLIC        BKE2_A1_REG
  X:E12AH         PUBLIC        BKE1_2A_REG
  X:E10CH         PUBLIC        BKE1_0C_REG
  X:E0A3H         PUBLIC        BKE0_A3_REG
  X:CD02H         PUBLIC        BKCD_02_REG
  X:CC12H         PUBLIC        BKCC_12_REG
  X:CC03H         PUBLIC        BKCC_03_REG
  X:CB40H         PUBLIC        BKCB_40_REG
  X:CA14H         PUBLIC        BKCA_14_REG
  X:C859H         PUBLIC        BKC8_59_REG
  X:C50AH         PUBLIC        BKC5_0A_REG
  X:A2B4H         PUBLIC        BKA2_B4_REG
  X:A23CH         PUBLIC        BKA2_3C_REG
  X:A15BH         PUBLIC        BKA1_5B_REG
  X:A11FH         PUBLIC        BKA1_1F_REG
  X:F659H         PUBLIC        BKF6_59_REG
  X:F596H         PUBLIC        BKF5_96_REG
  X:F587H         PUBLIC        BKF5_87_REG
  X:F389H         PUBLIC        BKF3_89_REG
  X:F30AH         PUBLIC        BKF3_0A_REG
  X:F11BH         PUBLIC        BKF1_1B_REG
  X:EE00H         PUBLIC        BKEE_00_REG
  X:ED10H         PUBLIC        BKED_10_REG
  X:ED01H         PUBLIC        BKED_01_REG
  X:EA31H         PUBLIC        BKEA_31_REG
  X:EA04H         PUBLIC        BKEA_04_REG
  X:E984H         PUBLIC        BKE9_84_REG
  X:E696H         PUBLIC        BKE6_96_REG
  X:E588H         PUBLIC        BKE5_88_REG
  X:E31AH         PUBLIC        BKE3_1A_REG
  X:E30BH         PUBLIC        BKE3_0B_REG
  X:E2A2H         PUBLIC        BKE2_A2_REG
  X:E22AH         PUBLIC        BKE2_2A_REG
  X:E12BH         PUBLIC        BKE1_2B_REG
  X:E10DH         PUBLIC        BKE1_0D_REG
  X:E0A4H         PUBLIC        BKE0_A4_REG
  X:CD03H         PUBLIC        BKCD_03_REG
  X:CC40H         PUBLIC        BKCC_40_REG
  X:CC22H         PUBLIC        BKCC_22_REG
  X:CB41H         PUBLIC        BKCB_41_REG
  X:CA15H         PUBLIC        BKCA_15_REG
  X:CA06H         PUBLIC        BKCA_06_REG
  X:C60AH         PUBLIC        BKC6_0A_REG
  X:A33CH         PUBLIC        BKA3_3C_REG
  X:A2B5H         PUBLIC        BKA2_B5_REG
  X:A17AH         PUBLIC        BKA1_7A_REG
  X:A15CH         PUBLIC        BKA1_5C_REG
  X:A14DH         PUBLIC        BKA1_4D_REG
  X:A13EH         PUBLIC        BKA1_3E_REG
  X:F588H         PUBLIC        BKF5_88_REG
BL51 BANKED LINKER/LOCATER V6.22                                                      06/21/2023  15:37:55  PAGE 265


  X:F30BH         PUBLIC        BKF3_0B_REG
  X:F1D0H         PUBLIC        BKF1_D0_REG
  X:F10DH         PUBLIC        BKF1_0D_REG
  X:EF00H         PUBLIC        BKEF_00_REG
  X:ED20H         PUBLIC        BKED_20_REG
  X:ED11H         PUBLIC        BKED_11_REG
  X:ED02H         PUBLIC        BKED_02_REG
  X:EC03H         PUBLIC        BKEC_03_REG
  X:EA32H         PUBLIC        BKEA_32_REG
  X:EA05H         PUBLIC        BKEA_05_REG
  X:E994H         PUBLIC        BKE9_94_REG
  X:E985H         PUBLIC        BKE9_85_REG
  X:E697H         PUBLIC        BKE6_97_REG
  X:E5A0H         PUBLIC        BKE5_A0_REG
  X:E31BH         PUBLIC        BKE3_1B_REG
  X:E30CH         PUBLIC        BKE3_0C_REG
  X:E20DH         PUBLIC        BKE2_0D_REG
  X:E12CH         PUBLIC        BKE1_2C_REG
  X:E10EH         PUBLIC        BKE1_0E_REG
  X:E0A5H         PUBLIC        BKE0_A5_REG
  X:E05AH         PUBLIC        BKE0_5A_REG
  X:CC50H         PUBLIC        BKCC_50_REG
  X:CC41H         PUBLIC        BKCC_41_REG
  X:CC32H         PUBLIC        BKCC_32_REG
  X:CB42H         PUBLIC        BKCB_42_REG
  X:CA16H         PUBLIC        BKCA_16_REG
  X:C52AH         PUBLIC        BKC5_2A_REG
  X:C50CH         PUBLIC        BKC5_0C_REG
  X:A36AH         PUBLIC        BKA3_6A_REG
  X:A35BH         PUBLIC        BKA3_5B_REG
  X:A33DH         PUBLIC        BKA3_3D_REG
  X:A32EH         PUBLIC        BKA3_2E_REG
  X:A2B6H         PUBLIC        BKA2_B6_REG
  X:A17BH         PUBLIC        BKA1_7B_REG
  X:A14EH         PUBLIC        BKA1_4E_REG
  X:FC30H         PUBLIC        BKFC_30_REG
  X:F5A0H         PUBLIC        BKF5_A0_REG
  X:F589H         PUBLIC        BKF5_89_REG
  X:F30CH         PUBLIC        BKF3_0C_REG
  X:F1D1H         PUBLIC        BKF1_D1_REG
  X:F1C2H         PUBLIC        BKF1_C2_REG
  X:F14AH         PUBLIC        BKF1_4A_REG
  X:F10EH         PUBLIC        BKF1_0E_REG
  X:EF10H         PUBLIC        BKEF_10_REG
  X:ED30H         PUBLIC        BKED_30_REG
  X:ED21H         PUBLIC        BKED_21_REG
  X:EB50H         PUBLIC        BKEB_50_REG
  X:EA33H         PUBLIC        BKEA_33_REG
  X:E698H         PUBLIC        BKE6_98_REG
  X:E5A1H         PUBLIC        BKE5_A1_REG
  X:E50BH         PUBLIC        BKE5_0B_REG
  X:E32BH         PUBLIC        BKE3_2B_REG
  X:E31CH         PUBLIC        BKE3_1C_REG
  X:E30DH         PUBLIC        BKE3_0D_REG
  X:E2C2H         PUBLIC        BKE2_C2_REG
  X:E20EH         PUBLIC        BKE2_0E_REG
  X:E12DH         PUBLIC        BKE1_2D_REG
BL51 BANKED LINKER/LOCATER V6.22                                                      06/21/2023  15:37:55  PAGE 266


  X:E10FH         PUBLIC        BKE1_0F_REG
  X:E0A6H         PUBLIC        BKE0_A6_REG
  X:E06AH         PUBLIC        BKE0_6A_REG
  X:E05BH         PUBLIC        BKE0_5B_REG
  X:D02FH         PUBLIC        BKD0_2F_REG
  X:CD14H         PUBLIC        BKCD_14_REG
  X:CC60H         PUBLIC        BKCC_60_REG
  X:CC51H         PUBLIC        BKCC_51_REG
  X:CC42H         PUBLIC        BKCC_42_REG
  X:CC33H         PUBLIC        BKCC_33_REG
  X:CC15H         PUBLIC        BKCC_15_REG
  X:CC06H         PUBLIC        BKCC_06_REG
  X:CB43H         PUBLIC        BKCB_43_REG
  X:CA80H         PUBLIC        BKCA_80_REG
  X:A37AH         PUBLIC        BKA3_7A_REG
  X:A36BH         PUBLIC        BKA3_6B_REG
  X:A33EH         PUBLIC        BKA3_3E_REG
  X:A32FH         PUBLIC        BKA3_2F_REG
  X:A2B7H         PUBLIC        BKA2_B7_REG
  X:A17CH         PUBLIC        BKA1_7C_REG
  X:A14FH         PUBLIC        BKA1_4F_REG
  X:FC40H         PUBLIC        BKFC_40_REG
  X:FC31H         PUBLIC        BKFC_31_REG
  X:FC22H         PUBLIC        BKFC_22_REG
  X:FC13H         PUBLIC        BKFC_13_REG
  X:F6A0H         PUBLIC        BKF6_A0_REG
  X:F60AH         PUBLIC        BKF6_0A_REG
  X:F5A1H         PUBLIC        BKF5_A1_REG
  X:F33AH         PUBLIC        BKF3_3A_REG
  X:F30DH         PUBLIC        BKF3_0D_REG
  X:F2E0H         PUBLIC        BKF2_E0_REG
  X:F1E1H         PUBLIC        BKF1_E1_REG
  X:F1D2H         PUBLIC        BKF1_D2_REG
  X:F1B4H         PUBLIC        BKF1_B4_REG
  X:F1A5H         PUBLIC        BKF1_A5_REG
  X:EF20H         PUBLIC        BKEF_20_REG
  X:EF11H         PUBLIC        BKEF_11_REG
  X:EE03H         PUBLIC        BKEE_03_REG
  X:ED22H         PUBLIC        BKED_22_REG
  X:EB60H         PUBLIC        BKEB_60_REG
  X:EB51H         PUBLIC        BKEB_51_REG
  X:EB06H         PUBLIC        BKEB_06_REG
  X:EA34H         PUBLIC        BKEA_34_REG
  X:E699H         PUBLIC        BKE6_99_REG
  X:E5A2H         PUBLIC        BKE5_A2_REG
  X:E32CH         PUBLIC        BKE3_2C_REG
  X:E31DH         PUBLIC        BKE3_1D_REG
  X:E30EH         PUBLIC        BKE3_0E_REG
  X:E2C3H         PUBLIC        BKE2_C3_REG
  X:E20FH         PUBLIC        BKE2_0F_REG
  X:E12EH         PUBLIC        BKE1_2E_REG
  X:E0A7H         PUBLIC        BKE0_A7_REG
  X:E05CH         PUBLIC        BKE0_5C_REG
  X:CD06H         PUBLIC        BKCD_06_REG
  X:CC70H         PUBLIC        BKCC_70_REG
  X:CC52H         PUBLIC        BKCC_52_REG
  X:CC43H         PUBLIC        BKCC_43_REG
BL51 BANKED LINKER/LOCATER V6.22                                                      06/21/2023  15:37:55  PAGE 267


  X:CC34H         PUBLIC        BKCC_34_REG
  X:CC07H         PUBLIC        BKCC_07_REG
  X:CB44H         PUBLIC        BKCB_44_REG
  X:C90AH         PUBLIC        BKC9_0A_REG
  X:C8B0H         PUBLIC        BKC8_B0_REG
  X:A37BH         PUBLIC        BKA3_7B_REG
  X:A36CH         PUBLIC        BKA3_6C_REG
  X:A33FH         PUBLIC        BKA3_3F_REG
  X:A2B8H         PUBLIC        BKA2_B8_REG
  X:A2A9H         PUBLIC        BKA2_A9_REG
  X:A17DH         PUBLIC        BKA1_7D_REG
  X:FC41H         PUBLIC        BKFC_41_REG
  X:FC23H         PUBLIC        BKFC_23_REG
  X:FC14H         PUBLIC        BKFC_14_REG
  X:F7A0H         PUBLIC        BKF7_A0_REG
  X:F70AH         PUBLIC        BKF7_0A_REG
  X:F6B0H         PUBLIC        BKF6_B0_REG
  X:F60BH         PUBLIC        BKF6_0B_REG
  X:F34AH         PUBLIC        BKF3_4A_REG
  X:F33BH         PUBLIC        BKF3_3B_REG
  X:F30EH         PUBLIC        BKF3_0E_REG
  X:F2E1H         PUBLIC        BKF2_E1_REG
  X:F1D3H         PUBLIC        BKF1_D3_REG
  X:F1C4H         PUBLIC        BKF1_C4_REG
  X:F1B5H         PUBLIC        BKF1_B5_REG
  X:F14CH         PUBLIC        BKF1_4C_REG
  X:EF21H         PUBLIC        BKEF_21_REG
  X:EF12H         PUBLIC        BKEF_12_REG
  X:EF03H         PUBLIC        BKEF_03_REG
  X:EE04H         PUBLIC        BKEE_04_REG
  X:ED32H         PUBLIC        BKED_32_REG
  X:ED23H         PUBLIC        BKED_23_REG
  X:EB61H         PUBLIC        BKEB_61_REG
  X:EB52H         PUBLIC        BKEB_52_REG
  X:EB43H         PUBLIC        BKEB_43_REG
  X:EA17H         PUBLIC        BKEA_17_REG
  X:E5A3H         PUBLIC        BKE5_A3_REG
  X:E31EH         PUBLIC        BKE3_1E_REG
  X:E30FH         PUBLIC        BKE3_0F_REG
  X:E2C4H         PUBLIC        BKE2_C4_REG
  X:E23DH         PUBLIC        BKE2_3D_REG
  X:E12FH         PUBLIC        BKE1_2F_REG
  X:E0A8H         PUBLIC        BKE0_A8_REG
  X:E08AH         PUBLIC        BKE0_8A_REG
  X:E05DH         PUBLIC        BKE0_5D_REG
  X:CD61H         PUBLIC        BKCD_61_REG
  X:CD52H         PUBLIC        BKCD_52_REG
  X:CD16H         PUBLIC        BKCD_16_REG
  X:CD07H         PUBLIC        BKCD_07_REG
  X:CC80H         PUBLIC        BKCC_80_REG
  X:CC53H         PUBLIC        BKCC_53_REG
  X:CC44H         PUBLIC        BKCC_44_REG
  X:CC35H         PUBLIC        BKCC_35_REG
  X:CC08H         PUBLIC        BKCC_08_REG
  X:CB45H         PUBLIC        BKCB_45_REG
  X:C91AH         PUBLIC        BKC9_1A_REG
  X:C8B1H         PUBLIC        BKC8_B1_REG
BL51 BANKED LINKER/LOCATER V6.22                                                      06/21/2023  15:37:55  PAGE 268


  X:C7D0H         PUBLIC        BKC7_D0_REG
  X:C64AH         PUBLIC        BKC6_4A_REG
  X:A37CH         PUBLIC        BKA3_7C_REG
  X:A36DH         PUBLIC        BKA3_6D_REG
  X:A2B9H         PUBLIC        BKA2_B9_REG
  X:A17EH         PUBLIC        BKA1_7E_REG
  X:A16FH         PUBLIC        BKA1_6F_REG
  X:FC42H         PUBLIC        BKFC_42_REG
  X:FC15H         PUBLIC        BKFC_15_REG
  X:F71AH         PUBLIC        BKF7_1A_REG
  X:F70BH         PUBLIC        BKF7_0B_REG
  X:F6B1H         PUBLIC        BKF6_B1_REG
  X:F60CH         PUBLIC        BKF6_0C_REG
  X:F52BH         PUBLIC        BKF5_2B_REG
  X:F40EH         PUBLIC        BKF4_0E_REG
  X:F34BH         PUBLIC        BKF3_4B_REG
  X:F33CH         PUBLIC        BKF3_3C_REG
  X:F31EH         PUBLIC        BKF3_1E_REG
  X:F30FH         PUBLIC        BKF3_0F_REG
  X:F2F1H         PUBLIC        BKF2_F1_REG
  X:F2E2H         PUBLIC        BKF2_E2_REG
  X:F17AH         PUBLIC        BKF1_7A_REG
  X:EF40H         PUBLIC        BKEF_40_REG
  X:EF22H         PUBLIC        BKEF_22_REG
  X:EF13H         PUBLIC        BKEF_13_REG
  X:EF04H         PUBLIC        BKEF_04_REG
  X:EE05H         PUBLIC        BKEE_05_REG
  X:EC43H         PUBLIC        BKEC_43_REG
  X:EC16H         PUBLIC        BKEC_16_REG
  X:EB62H         PUBLIC        BKEB_62_REG
  X:EB53H         PUBLIC        BKEB_53_REG
  X:EB44H         PUBLIC        BKEB_44_REG
  X:EA45H         PUBLIC        BKEA_45_REG
  X:EA18H         PUBLIC        BKEA_18_REG
  X:E9A0H         PUBLIC        BKE9_A0_REG
  X:E989H         PUBLIC        BKE9_89_REG
  X:E53BH         PUBLIC        BKE5_3B_REG
  X:E32EH         PUBLIC        BKE3_2E_REG
  X:E31FH         PUBLIC        BKE3_1F_REG
  X:E2C5H         PUBLIC        BKE2_C5_REG
  X:E0A9H         PUBLIC        BKE0_A9_REG
  X:E09AH         PUBLIC        BKE0_9A_REG
  X:E08BH         PUBLIC        BKE0_8B_REG
  X:E05EH         PUBLIC        BKE0_5E_REG
  X:CD80H         PUBLIC        BKCD_80_REG
  X:CD62H         PUBLIC        BKCD_62_REG
  X:CD08H         PUBLIC        BKCD_08_REG
  X:CC81H         PUBLIC        BKCC_81_REG
  X:CC63H         PUBLIC        BKCC_63_REG
  X:CC54H         PUBLIC        BKCC_54_REG
  X:CC45H         PUBLIC        BKCC_45_REG
  X:CC36H         PUBLIC        BKCC_36_REG
  X:CB19H         PUBLIC        BKCB_19_REG
  X:C91BH         PUBLIC        BKC9_1B_REG
  X:C8B2H         PUBLIC        BKC8_B2_REG
  X:C7D1H         PUBLIC        BKC7_D1_REG
  X:C74AH         PUBLIC        BKC7_4A_REG
BL51 BANKED LINKER/LOCATER V6.22                                                      06/21/2023  15:37:55  PAGE 269


  X:A37DH         PUBLIC        BKA3_7D_REG
  X:A36EH         PUBLIC        BKA3_6E_REG
  X:FC43H         PUBLIC        BKFC_43_REG
  X:FC16H         PUBLIC        BKFC_16_REG
  X:F72AH         PUBLIC        BKF7_2A_REG
  X:F71BH         PUBLIC        BKF7_1B_REG
  X:F70CH         PUBLIC        BKF7_0C_REG
  X:F6B2H         PUBLIC        BKF6_B2_REG
  X:F60DH         PUBLIC        BKF6_0D_REG
  X:F54AH         PUBLIC        BKF5_4A_REG
  X:F52CH         PUBLIC        BKF5_2C_REG
  X:F40FH         PUBLIC        BKF4_0F_REG
  X:F3E2H         PUBLIC        BKF3_E2_REG
  X:F34CH         PUBLIC        BKF3_4C_REG
  X:F33DH         PUBLIC        BKF3_3D_REG
  X:F2E3H         PUBLIC        BKF2_E3_REG
  X:F1F3H         PUBLIC        BKF1_F3_REG
  X:F1B7H         PUBLIC        BKF1_B7_REG
  X:F18AH         PUBLIC        BKF1_8A_REG
  X:F16CH         PUBLIC        BKF1_6C_REG
  X:F15DH         PUBLIC        BKF1_5D_REG
  X:F14EH         PUBLIC        BKF1_4E_REG
  X:EF50H         PUBLIC        BKEF_50_REG
  X:EF41H         PUBLIC        BKEF_41_REG
  X:EF23H         PUBLIC        BKEF_23_REG
  X:EF05H         PUBLIC        BKEF_05_REG
  X:EC17H         PUBLIC        BKEC_17_REG
  X:EB63H         PUBLIC        BKEB_63_REG
  X:EB54H         PUBLIC        BKEB_54_REG
  X:EB45H         PUBLIC        BKEB_45_REG
  X:EB18H         PUBLIC        BKEB_18_REG
  X:EA19H         PUBLIC        BKEA_19_REG
  X:E9B0H         PUBLIC        BKE9_B0_REG
  X:E91AH         PUBLIC        BKE9_1A_REG
  X:E5A5H         PUBLIC        BKE5_A5_REG
  X:E54BH         PUBLIC        BKE5_4B_REG
  X:E32FH         PUBLIC        BKE3_2F_REG
  X:E2B7H         PUBLIC        BKE2_B7_REG
  X:E24EH         PUBLIC        BKE2_4E_REG
  X:E09BH         PUBLIC        BKE0_9B_REG
  X:E08CH         PUBLIC        BKE0_8C_REG
  X:CE80H         PUBLIC        BKCE_80_REG
  X:CE35H         PUBLIC        BKCE_35_REG
  X:CD63H         PUBLIC        BKCD_63_REG
  X:CD09H         PUBLIC        BKCD_09_REG
  X:CC82H         PUBLIC        BKCC_82_REG
  X:CC64H         PUBLIC        BKCC_64_REG
  X:CC55H         PUBLIC        BKCC_55_REG
  X:CC46H         PUBLIC        BKCC_46_REG
  X:CC37H         PUBLIC        BKCC_37_REG
  X:CC28H         PUBLIC        BKCC_28_REG
  X:CC19H         PUBLIC        BKCC_19_REG
  X:CA84H         PUBLIC        BKCA_84_REG
  X:C91CH         PUBLIC        BKC9_1C_REG
  X:C8B3H         PUBLIC        BKC8_B3_REG
  X:C84AH         PUBLIC        BKC8_4A_REG
  X:C7C3H         PUBLIC        BKC7_C3_REG
BL51 BANKED LINKER/LOCATER V6.22                                                      06/21/2023  15:37:55  PAGE 270


  X:C75AH         PUBLIC        BKC7_5A_REG
  X:C62EH         PUBLIC        BKC6_2E_REG
  X:A37EH         PUBLIC        BKA3_7E_REG
  X:A36FH         PUBLIC        BKA3_6F_REG
  X:FC44H         PUBLIC        BKFC_44_REG
  X:FC17H         PUBLIC        BKFC_17_REG
  X:F72BH         PUBLIC        BKF7_2B_REG
  X:F71CH         PUBLIC        BKF7_1C_REG
  X:F70DH         PUBLIC        BKF7_0D_REG
  X:F6D1H         PUBLIC        BKF6_D1_REG
  X:F60EH         PUBLIC        BKF6_0E_REG
  X:F54BH         PUBLIC        BKF5_4B_REG
  X:F50FH         PUBLIC        BKF5_0F_REG
  X:F34DH         PUBLIC        BKF3_4D_REG
  X:F33EH         PUBLIC        BKF3_3E_REG
  X:F32FH         PUBLIC        BKF3_2F_REG
  X:F2E4H         PUBLIC        BKF2_E4_REG
  X:F1F4H         PUBLIC        BKF1_F4_REG
  X:F1B8H         PUBLIC        BKF1_B8_REG
  X:F17CH         PUBLIC        BKF1_7C_REG
  X:EF51H         PUBLIC        BKEF_51_REG
  X:EF42H         PUBLIC        BKEF_42_REG
  X:EF15H         PUBLIC        BKEF_15_REG
  X:EF06H         PUBLIC        BKEF_06_REG
  X:ED08H         PUBLIC        BKED_08_REG
  X:EB73H         PUBLIC        BKEB_73_REG
  X:EB64H         PUBLIC        BKEB_64_REG
  X:EB55H         PUBLIC        BKEB_55_REG
  X:EB46H         PUBLIC        BKEB_46_REG
  X:EB19H         PUBLIC        BKEB_19_REG
  X:E9B1H         PUBLIC        BKE9_B1_REG
  X:E91BH         PUBLIC        BKE9_1B_REG
  X:E6C3H         PUBLIC        BKE6_C3_REG
  X:E55BH         PUBLIC        BKE5_5B_REG
  X:E38AH         PUBLIC        BKE3_8A_REG
  X:E34EH         PUBLIC        BKE3_4E_REG
  X:E26DH         PUBLIC        BKE2_6D_REG
  X:E24FH         PUBLIC        BKE2_4F_REG
  X:E09CH         PUBLIC        BKE0_9C_REG
  X:E08DH         PUBLIC        BKE0_8D_REG
  X:CE81H         PUBLIC        BKCE_81_REG
  X:CD55H         PUBLIC        BKCD_55_REG
  X:CD46H         PUBLIC        BKCD_46_REG
  X:CC83H         PUBLIC        BKCC_83_REG
  X:CC65H         PUBLIC        BKCC_65_REG
  X:CC56H         PUBLIC        BKCC_56_REG
  X:CC47H         PUBLIC        BKCC_47_REG
  X:CC38H         PUBLIC        BKCC_38_REG
  X:C91DH         PUBLIC        BKC9_1D_REG
  X:C8B4H         PUBLIC        BKC8_B4_REG
  X:C84BH         PUBLIC        BKC8_4B_REG
  X:C7C4H         PUBLIC        BKC7_C4_REG
  X:C62FH         PUBLIC        BKC6_2F_REG
  X:A37FH         PUBLIC        BKA3_7F_REG
  X:FC45H         PUBLIC        BKFC_45_REG
  X:FC36H         PUBLIC        BKFC_36_REG
  X:FC18H         PUBLIC        BKFC_18_REG
BL51 BANKED LINKER/LOCATER V6.22                                                      06/21/2023  15:37:55  PAGE 271


  X:F72CH         PUBLIC        BKF7_2C_REG
  X:F70EH         PUBLIC        BKF7_0E_REG
  X:F6D2H         PUBLIC        BKF6_D2_REG
  X:F65AH         PUBLIC        BKF6_5A_REG
  X:F5A6H         PUBLIC        BKF5_A6_REG
  X:F54CH         PUBLIC        BKF5_4C_REG
  X:F37BH         PUBLIC        BKF3_7B_REG
  X:F34EH         PUBLIC        BKF3_4E_REG
  X:F2E5H         PUBLIC        BKF2_E5_REG
  X:F2A9H         PUBLIC        BKF2_A9_REG
  X:F27CH         PUBLIC        BKF2_7C_REG
  X:F1F5H         PUBLIC        BKF1_F5_REG
  X:F1B9H         PUBLIC        BKF1_B9_REG
  X:F16EH         PUBLIC        BKF1_6E_REG
  X:F15FH         PUBLIC        BKF1_5F_REG
  X:EF52H         PUBLIC        BKEF_52_REG
  X:EF43H         PUBLIC        BKEF_43_REG
  X:EF16H         PUBLIC        BKEF_16_REG
  X:EF07H         PUBLIC        BKEF_07_REG
  X:EE80H         PUBLIC        BKEE_80_REG
  X:EE08H         PUBLIC        BKEE_08_REG
  X:ED09H         PUBLIC        BKED_09_REG
  X:EC28H         PUBLIC        BKEC_28_REG
  X:EB74H         PUBLIC        BKEB_74_REG
  X:EB65H         PUBLIC        BKEB_65_REG
  X:EB56H         PUBLIC        BKEB_56_REG
  X:EB47H         PUBLIC        BKEB_47_REG
  X:E9B2H         PUBLIC        BKE9_B2_REG
  X:E9A3H         PUBLIC        BKE9_A3_REG
  X:E92BH         PUBLIC        BKE9_2B_REG
  X:E56BH         PUBLIC        BKE5_6B_REG
  X:E09DH         PUBLIC        BKE0_9D_REG
  X:E08EH         PUBLIC        BKE0_8E_REG
  X:D72EH         PUBLIC        BKD7_2E_REG
  X:CE28H         PUBLIC        BKCE_28_REG
  X:CC84H         PUBLIC        BKCC_84_REG
  X:CC75H         PUBLIC        BKCC_75_REG
  X:CC57H         PUBLIC        BKCC_57_REG
  X:CC48H         PUBLIC        BKCC_48_REG
  X:CC39H         PUBLIC        BKCC_39_REG
  X:C91EH         PUBLIC        BKC9_1E_REG
  X:C84CH         PUBLIC        BKC8_4C_REG
  X:C7C5H         PUBLIC        BKC7_C5_REG
  X:FC46H         PUBLIC        BKFC_46_REG
  X:FC19H         PUBLIC        BKFC_19_REG
  X:F7F0H         PUBLIC        BKF7_F0_REG
  X:F71EH         PUBLIC        BKF7_1E_REG
  X:F70FH         PUBLIC        BKF7_0F_REG
  X:F6D3H         PUBLIC        BKF6_D3_REG
  X:F65BH         PUBLIC        BKF6_5B_REG
  X:F5F2H         PUBLIC        BKF5_F2_REG
  X:F54DH         PUBLIC        BKF5_4D_REG
  X:F34FH         PUBLIC        BKF3_4F_REG
  X:F2F5H         PUBLIC        BKF2_F5_REG
  X:F2E6H         PUBLIC        BKF2_E6_REG
  X:F1F6H         PUBLIC        BKF1_F6_REG
  X:F1C9H         PUBLIC        BKF1_C9_REG
BL51 BANKED LINKER/LOCATER V6.22                                                      06/21/2023  15:37:55  PAGE 272


  X:F17EH         PUBLIC        BKF1_7E_REG
  X:EF80H         PUBLIC        BKEF_80_REG
  X:EF53H         PUBLIC        BKEF_53_REG
  X:EF44H         PUBLIC        BKEF_44_REG
  X:EF17H         PUBLIC        BKEF_17_REG
  X:EF08H         PUBLIC        BKEF_08_REG
  X:EE90H         PUBLIC        BKEE_90_REG
  X:EE81H         PUBLIC        BKEE_81_REG
  X:EE09H         PUBLIC        BKEE_09_REG
  X:EC29H         PUBLIC        BKEC_29_REG
  X:EB75H         PUBLIC        BKEB_75_REG
  X:EB66H         PUBLIC        BKEB_66_REG
  X:EB48H         PUBLIC        BKEB_48_REG
  X:E9E0H         PUBLIC        BKE9_E0_REG
  X:E9B3H         PUBLIC        BKE9_B3_REG
  X:E92CH         PUBLIC        BKE9_2C_REG
  X:E6D4H         PUBLIC        BKE6_D4_REG
  X:E29CH         PUBLIC        BKE2_9C_REG
  X:E09EH         PUBLIC        BKE0_9E_REG
  X:E08FH         PUBLIC        BKE0_8F_REG
  X:D72FH         PUBLIC        BKD7_2F_REG
  X:CE83H         PUBLIC        BKCE_83_REG
  X:CD57H         PUBLIC        BKCD_57_REG
  X:CD48H         PUBLIC        BKCD_48_REG
  X:CC94H         PUBLIC        BKCC_94_REG
  X:CC85H         PUBLIC        BKCC_85_REG
  X:CC58H         PUBLIC        BKCC_58_REG
  X:CC49H         PUBLIC        BKCC_49_REG
  X:C84DH         PUBLIC        BKC8_4D_REG
  X:C7C6H         PUBLIC        BKC7_C6_REG
  X:C67CH         PUBLIC        BKC6_7C_REG
  X:FC29H         PUBLIC        BKFC_29_REG
  X:F7F1H         PUBLIC        BKF7_F1_REG
  X:F72EH         PUBLIC        BKF7_2E_REG
  X:F6D4H         PUBLIC        BKF6_D4_REG
  X:F58AH         PUBLIC        BKF5_8A_REG
  X:F37DH         PUBLIC        BKF3_7D_REG
  X:F36EH         PUBLIC        BKF3_6E_REG
  X:F2F6H         PUBLIC        BKF2_F6_REG
  X:F2E7H         PUBLIC        BKF2_E7_REG
  X:F1F7H         PUBLIC        BKF1_F7_REG
  X:EF90H         PUBLIC        BKEF_90_REG
  X:EF81H         PUBLIC        BKEF_81_REG
  X:EF54H         PUBLIC        BKEF_54_REG
  X:EF45H         PUBLIC        BKEF_45_REG
  X:EF18H         PUBLIC        BKEF_18_REG
  X:EF09H         PUBLIC        BKEF_09_REG
  X:EE91H         PUBLIC        BKEE_91_REG
  X:EE82H         PUBLIC        BKEE_82_REG
  X:ED38H         PUBLIC        BKED_38_REG
  X:EB76H         PUBLIC        BKEB_76_REG
  X:EB67H         PUBLIC        BKEB_67_REG
  X:EB49H         PUBLIC        BKEB_49_REG
  X:EA59H         PUBLIC        BKEA_59_REG
  X:E9E1H         PUBLIC        BKE9_E1_REG
  X:E9C3H         PUBLIC        BKE9_C3_REG
  X:E9A5H         PUBLIC        BKE9_A5_REG
BL51 BANKED LINKER/LOCATER V6.22                                                      06/21/2023  15:37:55  PAGE 273


  X:E92DH         PUBLIC        BKE9_2D_REG
  X:E09FH         PUBLIC        BKE0_9F_REG
  X:CE84H         PUBLIC        BKCE_84_REG
  X:CC86H         PUBLIC        BKCC_86_REG
  X:C84EH         PUBLIC        BKC8_4E_REG
  X:C7D6H         PUBLIC        BKC7_D6_REG
  X:C7C7H         PUBLIC        BKC7_C7_REG
  X:C77CH         PUBLIC        BKC7_7C_REG
  X:FC93H         PUBLIC        BKFC_93_REG
  X:F7E3H         PUBLIC        BKF7_E3_REG
  X:F72FH         PUBLIC        BKF7_2F_REG
  X:F6D5H         PUBLIC        BKF6_D5_REG
  X:F5C7H         PUBLIC        BKF5_C7_REG
  X:F57CH         PUBLIC        BKF5_7C_REG
  X:F37EH         PUBLIC        BKF3_7E_REG
  X:F2F7H         PUBLIC        BKF2_F7_REG
  X:F2E8H         PUBLIC        BKF2_E8_REG
  X:F1F8H         PUBLIC        BKF1_F8_REG
  X:EF91H         PUBLIC        BKEF_91_REG
  X:EF82H         PUBLIC        BKEF_82_REG
  X:EF55H         PUBLIC        BKEF_55_REG
  X:EF46H         PUBLIC        BKEF_46_REG
  X:EF19H         PUBLIC        BKEF_19_REG
  X:EE92H         PUBLIC        BKEE_92_REG
  X:EE83H         PUBLIC        BKEE_83_REG
  X:ED39H         PUBLIC        BKED_39_REG
  X:EB77H         PUBLIC        BKEB_77_REG
  X:EB68H         PUBLIC        BKEB_68_REG
  X:E9E2H         PUBLIC        BKE9_E2_REG
  X:E9B5H         PUBLIC        BKE9_B5_REG
  X:E6C7H         PUBLIC        BKE6_C7_REG
  X:E69AH         PUBLIC        BKE6_9A_REG
  X:E37FH         PUBLIC        BKE3_7F_REG
  X:CE85H         PUBLIC        BKCE_85_REG
  X:CC87H         PUBLIC        BKCC_87_REG
  X:CC78H         PUBLIC        BKCC_78_REG
  X:CA0AH         PUBLIC        BKCA_0A_REG
  X:C84FH         PUBLIC        BKC8_4F_REG
  X:C7E6H         PUBLIC        BKC7_E6_REG
  X:C7D7H         PUBLIC        BKC7_D7_REG
  X:C7C8H         PUBLIC        BKC7_C8_REG
  X:C77DH         PUBLIC        BKC7_7D_REG
  X:F7E4H         PUBLIC        BKF7_E4_REG
  X:F6D6H         PUBLIC        BKF6_D6_REG
  X:F5C8H         PUBLIC        BKF5_C8_REG
  X:F59BH         PUBLIC        BKF5_9B_REG
  X:F58CH         PUBLIC        BKF5_8C_REG
  X:F57DH         PUBLIC        BKF5_7D_REG
  X:F55FH         PUBLIC        BKF5_5F_REG
  X:F2F8H         PUBLIC        BKF2_F8_REG
  X:F2E9H         PUBLIC        BKF2_E9_REG
  X:F1F9H         PUBLIC        BKF1_F9_REG
  X:EF92H         PUBLIC        BKEF_92_REG
  X:EF83H         PUBLIC        BKEF_83_REG
  X:EF56H         PUBLIC        BKEF_56_REG
  X:EF47H         PUBLIC        BKEF_47_REG
  X:EE93H         PUBLIC        BKEE_93_REG
BL51 BANKED LINKER/LOCATER V6.22                                                      06/21/2023  15:37:55  PAGE 274


  X:EE84H         PUBLIC        BKEE_84_REG
  X:EB78H         PUBLIC        BKEB_78_REG
  X:E9E3H         PUBLIC        BKE9_E3_REG
  X:E9B6H         PUBLIC        BKE9_B6_REG
  X:E6C8H         PUBLIC        BKE6_C8_REG
  X:CE86H         PUBLIC        BKCE_86_REG
  X:CC88H         PUBLIC        BKCC_88_REG
  X:CC79H         PUBLIC        BKCC_79_REG
  X:CBA0H         PUBLIC        BKCB_A0_REG
  X:C87DH         PUBLIC        BKC8_7D_REG
  X:C86EH         PUBLIC        BKC8_6E_REG
  X:C7E7H         PUBLIC        BKC7_E7_REG
  X:C7C9H         PUBLIC        BKC7_C9_REG
  X:C77EH         PUBLIC        BKC7_7E_REG
  X:A2BAH         PUBLIC        BKA2_BA_REG
  X:A2ABH         PUBLIC        BKA2_AB_REG
  X:F3F8H         PUBLIC        BKF3_F8_REG
  X:FC95H         PUBLIC        BKFC_95_REG
  X:F6D7H         PUBLIC        BKF6_D7_REG
  X:F5C9H         PUBLIC        BKF5_C9_REG
  X:F58DH         PUBLIC        BKF5_8D_REG
  X:F57EH         PUBLIC        BKF5_7E_REG
  X:F38FH         PUBLIC        BKF3_8F_REG
  X:F2F9H         PUBLIC        BKF2_F9_REG
  X:EF93H         PUBLIC        BKEF_93_REG
  X:EF84H         PUBLIC        BKEF_84_REG
  X:EF57H         PUBLIC        BKEF_57_REG
  X:EF48H         PUBLIC        BKEF_48_REG
  X:EE85H         PUBLIC        BKEE_85_REG
  X:EE58H         PUBLIC        BKEE_58_REG
  X:EB79H         PUBLIC        BKEB_79_REG
  X:E9D5H         PUBLIC        BKE9_D5_REG
  X:E0AAH         PUBLIC        BKE0_AA_REG
  X:CCA0H         PUBLIC        BKCC_A0_REG
  X:CC89H         PUBLIC        BKCC_89_REG
  X:CC0AH         PUBLIC        BKCC_0A_REG
  X:CA2AH         PUBLIC        BKCA_2A_REG
  X:C86FH         PUBLIC        BKC8_6F_REG
  X:C7E8H         PUBLIC        BKC7_E8_REG
  X:C77FH         PUBLIC        BKC7_7F_REG
  X:A2BBH         PUBLIC        BKA2_BB_REG
  X:A2ACH         PUBLIC        BKA2_AC_REG
  X:F3F9H         PUBLIC        BKF3_F9_REG
  X:FC96H         PUBLIC        BKFC_96_REG
  X:F6D8H         PUBLIC        BKF6_D8_REG
  X:F69CH         PUBLIC        BKF6_9C_REG
  X:F57FH         PUBLIC        BKF5_7F_REG
  X:EF58H         PUBLIC        BKEF_58_REG
  X:EF49H         PUBLIC        BKEF_49_REG
  X:EA1AH         PUBLIC        BKEA_1A_REG
  X:E9D6H         PUBLIC        BKE9_D6_REG
  X:E9C7H         PUBLIC        BKE9_C7_REG
  X:E0ABH         PUBLIC        BKE0_AB_REG
  X:CD0AH         PUBLIC        BKCD_0A_REG
  X:CCB0H         PUBLIC        BKCC_B0_REG
  X:CCA1H         PUBLIC        BKCC_A1_REG
  X:CA2BH         PUBLIC        BKCA_2B_REG
BL51 BANKED LINKER/LOCATER V6.22                                                      06/21/2023  15:37:55  PAGE 275


  X:A2BCH         PUBLIC        BKA2_BC_REG
  X:A2ADH         PUBLIC        BKA2_AD_REG
  X:FC97H         PUBLIC        BKFC_97_REG
  X:F7F6H         PUBLIC        BKF7_F6_REG
  X:F7E7H         PUBLIC        BKF7_E7_REG
  X:F69DH         PUBLIC        BKF6_9D_REG
  X:F58FH         PUBLIC        BKF5_8F_REG
  X:EF59H         PUBLIC        BKEF_59_REG
  X:EE96H         PUBLIC        BKEE_96_REG
  X:EE87H         PUBLIC        BKEE_87_REG
  X:EA1BH         PUBLIC        BKEA_1B_REG
  X:EA0CH         PUBLIC        BKEA_0C_REG
  X:E6E9H         PUBLIC        BKE6_E9_REG
  X:E0ACH         PUBLIC        BKE0_AC_REG
  X:CE89H         PUBLIC        BKCE_89_REG
  X:CD0BH         PUBLIC        BKCD_0B_REG
  X:CCB1H         PUBLIC        BKCC_B1_REG
  X:CC2AH         PUBLIC        BKCC_2A_REG
  X:CAB3H         PUBLIC        BKCA_B3_REG
  X:A2AEH         PUBLIC        BKA2_AE_REG
  X:FC98H         PUBLIC        BKFC_98_REG
  X:FC0AH         PUBLIC        BKFC_0A_REG
  X:F7F7H         PUBLIC        BKF7_F7_REG
  X:F69EH         PUBLIC        BKF6_9E_REG
  X:F2AAH         PUBLIC        BKF2_AA_REG
  X:EF96H         PUBLIC        BKEF_96_REG
  X:EF87H         PUBLIC        BKEF_87_REG
  X:EE97H         PUBLIC        BKEE_97_REG
  X:EE88H         PUBLIC        BKEE_88_REG
  X:ED0AH         PUBLIC        BKED_0A_REG
  X:EBB1H         PUBLIC        BKEB_B1_REG
  X:EA1CH         PUBLIC        BKEA_1C_REG
  X:E9C9H         PUBLIC        BKE9_C9_REG
  X:E98DH         PUBLIC        BKE9_8D_REG
  X:E0ADH         PUBLIC        BKE0_AD_REG
  X:DBD0H         PUBLIC        BKDB_D0_REG
  X:CDC0H         PUBLIC        BKCD_C0_REG
  X:CDA2H         PUBLIC        BKCD_A2_REG
  X:CD0CH         PUBLIC        BKCD_0C_REG
  X:CCD0H         PUBLIC        BKCC_D0_REG
  X:CCA3H         PUBLIC        BKCC_A3_REG
  X:CC3AH         PUBLIC        BKCC_3A_REG
  X:CC2BH         PUBLIC        BKCC_2B_REG
  X:CC1CH         PUBLIC        BKCC_1C_REG
  X:CB3BH         PUBLIC        BKCB_3B_REG
  X:CA1EH         PUBLIC        BKCA_1E_REG
  X:A2AFH         PUBLIC        BKA2_AF_REG
  X:FCB0H         PUBLIC        BKFC_B0_REG
  X:FC99H         PUBLIC        BKFC_99_REG
  X:FC1AH         PUBLIC        BKFC_1A_REG
  X:F7F8H         PUBLIC        BKF7_F8_REG
  X:F2ABH         PUBLIC        BKF2_AB_REG
  X:F1BBH         PUBLIC        BKF1_BB_REG
  X:EF97H         PUBLIC        BKEF_97_REG
  X:EF88H         PUBLIC        BKEF_88_REG
  X:EEA0H         PUBLIC        BKEE_A0_REG
  X:EE98H         PUBLIC        BKEE_98_REG
BL51 BANKED LINKER/LOCATER V6.22                                                      06/21/2023  15:37:55  PAGE 276


  X:EE89H         PUBLIC        BKEE_89_REG
  X:EE0AH         PUBLIC        BKEE_0A_REG
  X:EC2AH         PUBLIC        BKEC_2A_REG
  X:EBB2H         PUBLIC        BKEB_B2_REG
  X:EB0DH         PUBLIC        BKEB_0D_REG
  X:EA1DH         PUBLIC        BKEA_1D_REG
  X:E0AEH         PUBLIC        BKE0_AE_REG
  X:DBD1H         PUBLIC        BKDB_D1_REG
  X:D0AFH         PUBLIC        BKD0_AF_REG
  X:CDC1H         PUBLIC        BKCD_C1_REG
  X:CD0DH         PUBLIC        BKCD_0D_REG
  X:CCA4H         PUBLIC        BKCC_A4_REG
  X:CC4AH         PUBLIC        BKCC_4A_REG
  X:CC3BH         PUBLIC        BKCC_3B_REG
  X:CC2CH         PUBLIC        BKCC_2C_REG
  X:CBB4H         PUBLIC        BKCB_B4_REG
  X:CB3CH         PUBLIC        BKCB_3C_REG
  X:CA2EH         PUBLIC        BKCA_2E_REG
  X:FCC0H         PUBLIC        BKFC_C0_REG
  X:FCB1H         PUBLIC        BKFC_B1_REG
  X:FCA2H         PUBLIC        BKFC_A2_REG
  X:FC1BH         PUBLIC        BKFC_1B_REG
  X:FC0CH         PUBLIC        BKFC_0C_REG
  X:F7F9H         PUBLIC        BKF7_F9_REG
  X:EFA0H         PUBLIC        BKEF_A0_REG
  X:EF98H         PUBLIC        BKEF_98_REG
  X:EF89H         PUBLIC        BKEF_89_REG
  X:EF0AH         PUBLIC        BKEF_0A_REG
  X:EEA1H         PUBLIC        BKEE_A1_REG
  X:EE0BH         PUBLIC        BKEE_0B_REG
  X:EC2BH         PUBLIC        BKEC_2B_REG
  X:EC0DH         PUBLIC        BKEC_0D_REG
  X:EBB3H         PUBLIC        BKEB_B3_REG
  X:EB4AH         PUBLIC        BKEB_4A_REG
  X:E98FH         PUBLIC        BKE9_8F_REG
  X:E0AFH         PUBLIC        BKE0_AF_REG
  X:DBD2H         PUBLIC        BKDB_D2_REG
  X:DBA5H         PUBLIC        BKDB_A5_REG
  X:CDE0H         PUBLIC        BKCD_E0_REG
  X:CD0EH         PUBLIC        BKCD_0E_REG
  X:CCE1H         PUBLIC        BKCC_E1_REG
  X:CCA5H         PUBLIC        BKCC_A5_REG
  X:CC4BH         PUBLIC        BKCC_4B_REG
  X:CC3CH         PUBLIC        BKCC_3C_REG
  X:CC0FH         PUBLIC        BKCC_0F_REG
  X:CB3DH         PUBLIC        BKCB_3D_REG
  X:FCC1H         PUBLIC        BKFC_C1_REG
  X:FCA3H         PUBLIC        BKFC_A3_REG
  X:FC3AH         PUBLIC        BKFC_3A_REG
  X:FC1CH         PUBLIC        BKFC_1C_REG
  X:FC0DH         PUBLIC        BKFC_0D_REG
  X:F2BCH         PUBLIC        BKF2_BC_REG
  X:F1CCH         PUBLIC        BKF1_CC_REG
  X:EFA1H         PUBLIC        BKEF_A1_REG
  X:EF0BH         PUBLIC        BKEF_0B_REG
  X:EEA2H         PUBLIC        BKEE_A2_REG
  X:EE0CH         PUBLIC        BKEE_0C_REG
BL51 BANKED LINKER/LOCATER V6.22                                                      06/21/2023  15:37:55  PAGE 277


  X:EC2CH         PUBLIC        BKEC_2C_REG
  X:EC0EH         PUBLIC        BKEC_0E_REG
  X:EBB4H         PUBLIC        BKEB_B4_REG
  X:EB4BH         PUBLIC        BKEB_4B_REG
  X:DBD3H         PUBLIC        BKDB_D3_REG
  X:CDF0H         PUBLIC        BKCD_F0_REG
  X:CD5AH         PUBLIC        BKCD_5A_REG
  X:CD0FH         PUBLIC        BKCD_0F_REG
  X:CCF1H         PUBLIC        BKCC_F1_REG
  X:CCD3H         PUBLIC        BKCC_D3_REG
  X:CCB5H         PUBLIC        BKCC_B5_REG
  X:CCA6H         PUBLIC        BKCC_A6_REG
  X:CC4CH         PUBLIC        BKCC_4C_REG
  X:CC3DH         PUBLIC        BKCC_3D_REG
  X:CC2EH         PUBLIC        BKCC_2E_REG
  X:CC1FH         PUBLIC        BKCC_1F_REG
  X:CB3EH         PUBLIC        BKCB_3E_REG
  X:FC3BH         PUBLIC        BKFC_3B_REG
  X:FC2CH         PUBLIC        BKFC_2C_REG
  X:F2EAH         PUBLIC        BKF2_EA_REG
  X:F2DBH         PUBLIC        BKF2_DB_REG
  X:F2BDH         PUBLIC        BKF2_BD_REG
  X:F1FAH         PUBLIC        BKF1_FA_REG
  X:F1CDH         PUBLIC        BKF1_CD_REG
  X:EFA2H         PUBLIC        BKEF_A2_REG
  X:EF0CH         PUBLIC        BKEF_0C_REG
  X:EEA3H         PUBLIC        BKEE_A3_REG
  X:EE0DH         PUBLIC        BKEE_0D_REG
  X:ED3BH         PUBLIC        BKED_3B_REG
  X:EC2DH         PUBLIC        BKEC_2D_REG
  X:EC0FH         PUBLIC        BKEC_0F_REG
  X:EBB5H         PUBLIC        BKEB_B5_REG
  X:EB4CH         PUBLIC        BKEB_4C_REG
  X:CEC3H         PUBLIC        BKCE_C3_REG
  X:CDB5H         PUBLIC        BKCD_B5_REG
  X:CDA6H         PUBLIC        BKCD_A6_REG
  X:CCF2H         PUBLIC        BKCC_F2_REG
  X:CCB6H         PUBLIC        BKCC_B6_REG
  X:CCA7H         PUBLIC        BKCC_A7_REG
  X:CC7AH         PUBLIC        BKCC_7A_REG
  X:CC6BH         PUBLIC        BKCC_6B_REG
  X:CC4DH         PUBLIC        BKCC_4D_REG
  X:CC3EH         PUBLIC        BKCC_3E_REG
  X:CC2FH         PUBLIC        BKCC_2F_REG
  X:CBD5H         PUBLIC        BKCB_D5_REG
  X:CB3FH         PUBLIC        BKCB_3F_REG
  X:C7CAH         PUBLIC        BKC7_CA_REG
  X:FCD2H         PUBLIC        BKFC_D2_REG
  X:FC3CH         PUBLIC        BKFC_3C_REG
  X:FC2DH         PUBLIC        BKFC_2D_REG
  X:F5CAH         PUBLIC        BKF5_CA_REG
  X:F2EBH         PUBLIC        BKF2_EB_REG
  X:F2DCH         PUBLIC        BKF2_DC_REG
  X:F1CEH         PUBLIC        BKF1_CE_REG
  X:EFA3H         PUBLIC        BKEF_A3_REG
  X:EF3AH         PUBLIC        BKEF_3A_REG
  X:EF1CH         PUBLIC        BKEF_1C_REG
BL51 BANKED LINKER/LOCATER V6.22                                                      06/21/2023  15:37:55  PAGE 278


  X:EF0DH         PUBLIC        BKEF_0D_REG
  X:EE0EH         PUBLIC        BKEE_0E_REG
  X:ED3CH         PUBLIC        BKED_3C_REG
  X:EBB6H         PUBLIC        BKEB_B6_REG
  X:EB7AH         PUBLIC        BKEB_7A_REG
  X:EB4DH         PUBLIC        BKEB_4D_REG
  X:E6CAH         PUBLIC        BKE6_CA_REG
  X:E0EEH         PUBLIC        BKE0_EE_REG
  X:CEC4H         PUBLIC        BKCE_C4_REG
  X:CDE3H         PUBLIC        BKCD_E3_REG
  X:CDB6H         PUBLIC        BKCD_B6_REG
  X:CCF3H         PUBLIC        BKCC_F3_REG
  X:CCB7H         PUBLIC        BKCC_B7_REG
  X:CC8AH         PUBLIC        BKCC_8A_REG
  X:CC7BH         PUBLIC        BKCC_7B_REG
  X:CC4EH         PUBLIC        BKCC_4E_REG
  X:CC3FH         PUBLIC        BKCC_3F_REG
  X:CB9AH         PUBLIC        BKCB_9A_REG
  X:C7CBH         PUBLIC        BKC7_CB_REG
  X:F3FAH         PUBLIC        BKF3_FA_REG
  X:FCD3H         PUBLIC        BKFC_D3_REG
  X:FCA6H         PUBLIC        BKFC_A6_REG
  X:FC3DH         PUBLIC        BKFC_3D_REG
  X:FC2EH         PUBLIC        BKFC_2E_REG
  X:F5CBH         PUBLIC        BKF5_CB_REG
  X:F2ECH         PUBLIC        BKF2_EC_REG
  X:F2DDH         PUBLIC        BKF2_DD_REG
  X:F1CFH         PUBLIC        BKF1_CF_REG
  X:EF4AH         PUBLIC        BKEF_4A_REG
  X:EF3BH         PUBLIC        BKEF_3B_REG
  X:EF1DH         PUBLIC        BKEF_1D_REG
  X:EF0EH         PUBLIC        BKEF_0E_REG
  X:EE0FH         PUBLIC        BKEE_0F_REG
  X:ED3DH         PUBLIC        BKED_3D_REG
  X:EBB7H         PUBLIC        BKEB_B7_REG
  X:EB7BH         PUBLIC        BKEB_7B_REG
  X:EB4EH         PUBLIC        BKEB_4E_REG
  X:EB3FH         PUBLIC        BKEB_3F_REG
  X:EA4FH         PUBLIC        BKEA_4F_REG
  X:CEC5H         PUBLIC        BKCE_C5_REG
  X:CEB6H         PUBLIC        BKCE_B6_REG
  X:CCF4H         PUBLIC        BKCC_F4_REG
  X:CC9AH         PUBLIC        BKCC_9A_REG
  X:CC8BH         PUBLIC        BKCC_8B_REG
  X:CC7CH         PUBLIC        BKCC_7C_REG
  X:CC4FH         PUBLIC        BKCC_4F_REG
  X:CB9BH         PUBLIC        BKCB_9B_REG
  X:C7CCH         PUBLIC        BKC7_CC_REG
  X:FCD4H         PUBLIC        BKFC_D4_REG
  X:FCB6H         PUBLIC        BKFC_B6_REG
  X:FCA7H         PUBLIC        BKFC_A7_REG
  X:FC4DH         PUBLIC        BKFC_4D_REG
  X:FC3EH         PUBLIC        BKFC_3E_REG
  X:FC2FH         PUBLIC        BKFC_2F_REG
  X:F5CCH         PUBLIC        BKF5_CC_REG
  X:F3CEH         PUBLIC        BKF3_CE_REG
  X:F2EDH         PUBLIC        BKF2_ED_REG
BL51 BANKED LINKER/LOCATER V6.22                                                      06/21/2023  15:37:55  PAGE 279


  X:F2DEH         PUBLIC        BKF2_DE_REG
  X:F1FDH         PUBLIC        BKF1_FD_REG
  X:EF5AH         PUBLIC        BKEF_5A_REG
  X:EF4BH         PUBLIC        BKEF_4B_REG
  X:EF3CH         PUBLIC        BKEF_3C_REG
  X:EF1EH         PUBLIC        BKEF_1E_REG
  X:EF0FH         PUBLIC        BKEF_0F_REG
  X:EEF1H         PUBLIC        BKEE_F1_REG
  X:EEA6H         PUBLIC        BKEE_A6_REG
  X:ED3EH         PUBLIC        BKED_3E_REG
  X:EBB8H         PUBLIC        BKEB_B8_REG
  X:EB4FH         PUBLIC        BKEB_4F_REG
  X:E9BAH         PUBLIC        BKE9_BA_REG
  X:E6EAH         PUBLIC        BKE6_EA_REG
  X:DCD6H         PUBLIC        BKDC_D6_REG
  X:CEB7H         PUBLIC        BKCE_B7_REG
  X:CE8AH         PUBLIC        BKCE_8A_REG
  X:CCF5H         PUBLIC        BKCC_F5_REG
  X:CCD7H         PUBLIC        BKCC_D7_REG
  X:CC9BH         PUBLIC        BKCC_9B_REG
  X:CC8CH         PUBLIC        BKCC_8C_REG
  X:CC7DH         PUBLIC        BKCC_7D_REG
  X:CB9CH         PUBLIC        BKCB_9C_REG
  X:C7CDH         PUBLIC        BKC7_CD_REG
  X:FCD5H         PUBLIC        BKFC_D5_REG
  X:FCA8H         PUBLIC        BKFC_A8_REG
  X:FC8AH         PUBLIC        BKFC_8A_REG
  X:F2EEH         PUBLIC        BKF2_EE_REG
  X:F2DFH         PUBLIC        BKF2_DF_REG
  X:F1FEH         PUBLIC        BKF1_FE_REG
  X:EFF1H         PUBLIC        BKEF_F1_REG
  X:EFA6H         PUBLIC        BKEF_A6_REG
  X:EF5BH         PUBLIC        BKEF_5B_REG
  X:EF4CH         PUBLIC        BKEF_4C_REG
  X:EF3DH         PUBLIC        BKEF_3D_REG
  X:EF1FH         PUBLIC        BKEF_1F_REG
  X:EEF2H         PUBLIC        BKEE_F2_REG
  X:EEA7H         PUBLIC        BKEE_A7_REG
  X:EBB9H         PUBLIC        BKEB_B9_REG
  X:E9CAH         PUBLIC        BKE9_CA_REG
  X:E9BBH         PUBLIC        BKE9_BB_REG
  X:E6EBH         PUBLIC        BKE6_EB_REG
  X:CEB8H         PUBLIC        BKCE_B8_REG
  X:CE8BH         PUBLIC        BKCE_8B_REG
  X:CE4FH         PUBLIC        BKCE_4F_REG
  X:CDE6H         PUBLIC        BKCD_E6_REG
  X:CDB9H         PUBLIC        BKCD_B9_REG
  X:CCF6H         PUBLIC        BKCC_F6_REG
  X:CC9CH         PUBLIC        BKCC_9C_REG
  X:CC7EH         PUBLIC        BKCC_7E_REG
  X:C7FBH         PUBLIC        BKC7_FB_REG
  X:C7CEH         PUBLIC        BKC7_CE_REG
  X:FCD6H         PUBLIC        BKFC_D6_REG
  X:FCA9H         PUBLIC        BKFC_A9_REG
  X:FC9AH         PUBLIC        BKFC_9A_REG
  X:F7EAH         PUBLIC        BKF7_EA_REG
  X:F6EBH         PUBLIC        BKF6_EB_REG
BL51 BANKED LINKER/LOCATER V6.22                                                      06/21/2023  15:37:55  PAGE 280


  X:F3DFH         PUBLIC        BKF3_DF_REG
  X:F2EFH         PUBLIC        BKF2_EF_REG
  X:EFF2H         PUBLIC        BKEF_F2_REG
  X:EFA7H         PUBLIC        BKEF_A7_REG
  X:EF5CH         PUBLIC        BKEF_5C_REG
  X:EF4DH         PUBLIC        BKEF_4D_REG
  X:EF3EH         PUBLIC        BKEF_3E_REG
  X:EEF3H         PUBLIC        BKEE_F3_REG
  X:E9CBH         PUBLIC        BKE9_CB_REG
  X:E9BCH         PUBLIC        BKE9_BC_REG
  X:E6ECH         PUBLIC        BKE6_EC_REG
  X:E6DDH         PUBLIC        BKE6_DD_REG
  X:CEC8H         PUBLIC        BKCE_C8_REG
  X:CD9CH         PUBLIC        BKCD_9C_REG
  X:CCD9H         PUBLIC        BKCC_D9_REG
  X:CC9DH         PUBLIC        BKCC_9D_REG
  X:CC7FH         PUBLIC        BKCC_7F_REG
  X:C7CFH         PUBLIC        BKC7_CF_REG
  X:FC9BH         PUBLIC        BKFC_9B_REG
  X:FC8CH         PUBLIC        BKFC_8C_REG
  X:F7FAH         PUBLIC        BKF7_FA_REG
  X:F7EBH         PUBLIC        BKF7_EB_REG
  X:F6FBH         PUBLIC        BKF6_FB_REG
  X:F6DDH         PUBLIC        BKF6_DD_REG
  X:F6CEH         PUBLIC        BKF6_CE_REG
  X:EFF3H         PUBLIC        BKEF_F3_REG
  X:EF5DH         PUBLIC        BKEF_5D_REG
  X:EF4EH         PUBLIC        BKEF_4E_REG
  X:EF3FH         PUBLIC        BKEF_3F_REG
  X:EEF4H         PUBLIC        BKEE_F4_REG
  X:EEA9H         PUBLIC        BKEE_A9_REG
  X:EE9AH         PUBLIC        BKEE_9A_REG
  X:EE8BH         PUBLIC        BKEE_8B_REG
  X:E9BDH         PUBLIC        BKE9_BD_REG
  X:E6EDH         PUBLIC        BKE6_ED_REG
  X:CB9FH         PUBLIC        BKCB_9F_REG
  X:FC9CH         PUBLIC        BKFC_9C_REG
  X:FC8DH         PUBLIC        BKFC_8D_REG
  X:F7FBH         PUBLIC        BKF7_FB_REG
  X:F6EDH         PUBLIC        BKF6_ED_REG
  X:F6CFH         PUBLIC        BKF6_CF_REG
  X:F5DFH         PUBLIC        BKF5_DF_REG
  X:EFF4H         PUBLIC        BKEF_F4_REG
  X:EF9AH         PUBLIC        BKEF_9A_REG
  X:EF8BH         PUBLIC        BKEF_8B_REG
  X:EF4FH         PUBLIC        BKEF_4F_REG
  X:EEF5H         PUBLIC        BKEE_F5_REG
  X:EE9BH         PUBLIC        BKEE_9B_REG
  X:EE8CH         PUBLIC        BKEE_8C_REG
  X:E9BEH         PUBLIC        BKE9_BE_REG
  X:E9AFH         PUBLIC        BKE9_AF_REG
  X:E6EEH         PUBLIC        BKE6_EE_REG
  X:CDF8H         PUBLIC        BKCD_F8_REG
  X:CC9FH         PUBLIC        BKCC_9F_REG
  X:F7EDH         PUBLIC        BKF7_ED_REG
  X:EFF5H         PUBLIC        BKEF_F5_REG
  X:EF9BH         PUBLIC        BKEF_9B_REG
BL51 BANKED LINKER/LOCATER V6.22                                                      06/21/2023  15:37:55  PAGE 281


  X:EF8CH         PUBLIC        BKEF_8C_REG
  X:EEF6H         PUBLIC        BKEE_F6_REG
  X:EE9CH         PUBLIC        BKEE_9C_REG
  X:EE8DH         PUBLIC        BKEE_8D_REG
  X:E9DDH         PUBLIC        BKE9_DD_REG
  X:CDF9H         PUBLIC        BKCD_F9_REG
  X:F6EFH         PUBLIC        BKF6_EF_REG
  X:EFF6H         PUBLIC        BKEF_F6_REG
  X:EF9CH         PUBLIC        BKEF_9C_REG
  X:EF8DH         PUBLIC        BKEF_8D_REG
  X:EEF7H         PUBLIC        BKEE_F7_REG
  X:EE8EH         PUBLIC        BKEE_8E_REG
  X:E9DEH         PUBLIC        BKE9_DE_REG
  X:EFF7H         PUBLIC        BKEF_F7_REG
  X:EF8EH         PUBLIC        BKEF_8E_REG
  X:EEF8H         PUBLIC        BKEE_F8_REG
  X:EE8FH         PUBLIC        BKEE_8F_REG
  X:E9DFH         PUBLIC        BKE9_DF_REG
  X:EFF8H         PUBLIC        BKEF_F8_REG
  X:EF8FH         PUBLIC        BKEF_8F_REG
  X:EE9FH         PUBLIC        BKEE_9F_REG
  X:EF9FH         PUBLIC        BKEF_9F_REG
  X:CDBAH         PUBLIC        BKCD_BA_REG
  X:CCACH         PUBLIC        BKCC_AC_REG
  X:CABDH         PUBLIC        BKCA_BD_REG
  X:CDBBH         PUBLIC        BKCD_BB_REG
  X:CCADH         PUBLIC        BKCC_AD_REG
  X:FCBAH         PUBLIC        BKFC_BA_REG
  X:FCABH         PUBLIC        BKFC_AB_REG
  X:EEAAH         PUBLIC        BKEE_AA_REG
  X:DBCCH         PUBLIC        BKDB_CC_REG
  X:CEBBH         PUBLIC        BKCE_BB_REG
  X:CDBCH         PUBLIC        BKCD_BC_REG
  X:CCDBH         PUBLIC        BKCC_DB_REG
  X:CCAEH         PUBLIC        BKCC_AE_REG
  X:FCBBH         PUBLIC        BKFC_BB_REG
  X:FCACH         PUBLIC        BKFC_AC_REG
  X:EEABH         PUBLIC        BKEE_AB_REG
  X:DBCDH         PUBLIC        BKDB_CD_REG
  X:CDDBH         PUBLIC        BKCD_DB_REG
  X:CDBDH         PUBLIC        BKCD_BD_REG
  X:CCAFH         PUBLIC        BKCC_AF_REG
  X:FCADH         PUBLIC        BKFC_AD_REG
  X:EFABH         PUBLIC        BKEF_AB_REG
  X:EEACH         PUBLIC        BKEE_AC_REG
  X:DBCEH         PUBLIC        BKDB_CE_REG
  X:CDDCH         PUBLIC        BKCD_DC_REG
  X:CDBEH         PUBLIC        BKCD_BE_REG
  X:CCDDH         PUBLIC        BKCC_DD_REG
  X:FCBDH         PUBLIC        BKFC_BD_REG
  X:FCAEH         PUBLIC        BKFC_AE_REG
  X:EFACH         PUBLIC        BKEF_AC_REG
  X:EEADH         PUBLIC        BKEE_AD_REG
  X:DBCFH         PUBLIC        BKDB_CF_REG
  X:CCFCH         PUBLIC        BKCC_FC_REG
  X:FCCDH         PUBLIC        BKFC_CD_REG
  X:FCBEH         PUBLIC        BKFC_BE_REG
BL51 BANKED LINKER/LOCATER V6.22                                                      06/21/2023  15:37:55  PAGE 282


  X:FCAFH         PUBLIC        BKFC_AF_REG
  X:EFADH         PUBLIC        BKEF_AD_REG
  X:CDDFH         PUBLIC        BKCD_DF_REG
  X:CCEFH         PUBLIC        BKCC_EF_REG
  -------         ENDMOD        REGISTER

  -------         MODULE        OCMPRINT
  C:0000H         SYMBOL        _ICE_DUMMY_
  C:7FA9H         PUBLIC        _printLT
  C:AEB6H         PUBLIC        g_ucPrintLvl
  D:00C8H         PUBLIC        T2CON
  -------         PROC          _PRINTLT
  D:0007H         SYMBOL        ucLvl
  X:04D2H         SYMBOL        fmt
  -------         DO            
  X:04D5H         SYMBOL        ellipsis_40
  X:04FDH         SYMBOL        args
  X:0500H         SYMBOL        i
  X:0501H         SYMBOL        buf
  -------         ENDDO         
  C:7FA9H         LINE#         33
  C:7FAFH         LINE#         34
  C:7FAFH         LINE#         39
  C:7FBAH         LINE#         40
  C:7FBAH         LINE#         41
  C:7FC6H         LINE#         42
  C:7FE7H         LINE#         44
  C:8006H         LINE#         45
  C:8006H         LINE#         46
  C:801BH         LINE#         47
  C:8023H         LINE#         48
  C:8023H         LINE#         50
  -------         ENDPROC       _PRINTLT
  -------         ENDMOD        OCMPRINT

  -------         MODULE        OCMTIMER
  C:0000H         SYMBOL        _ICE_DUMMY_
  C:ADB4H         PUBLIC        Ocm_Timer_ParaInit
  C:A949H         PUBLIC        _Ocm_Delay1ms
  B:00A8H.7       PUBLIC        EA
  C:7B73H         PUBLIC        Timer0Interrupt
  C:ADA9H         PUBLIC        _Ocm_Delay1us
  C:91E2H         PUBLIC        _Ocm_Timer_UpdLocalTime
  B:0098H.0       PUBLIC        RI
  B:0098H.1       PUBLIC        TI
  C:AEB7H         PUBLIC        Ocm_Timer_UartParaInit
  C:AEB8H         PUBLIC        Ocm_Timer_UartDataGet
  D:0087H         PUBLIC        PCON
  D:0098H         PUBLIC        SCON
  C:ADF7H         PUBLIC        Ocm_External0_IntSet
  D:0089H         PUBLIC        TMOD
  C:AE48H         PUBLIC        Ocm_External1_IntSet
  C:AE00H         PUBLIC        Ocm_External2_IntSet
  X:0662H         PUBLIC        g_ulSystemTime
  C:AE32H         PUBLIC        Ocm_Timer2_Set
  B:00A8H.1       PUBLIC        ET0
  B:00A8H.5       PUBLIC        ET2
BL51 BANKED LINKER/LOCATER V6.22                                                      06/21/2023  15:37:55  PAGE 283


  D:008CH         PUBLIC        TH0
  B:00A8H.0       PUBLIC        EX0
  B:0088H.0       PUBLIC        IT0
  D:008DH         PUBLIC        TH1
  B:00A8H.2       PUBLIC        EX1
  B:0088H.2       PUBLIC        IT1
  D:00CDH         PUBLIC        TH2
  D:008AH         PUBLIC        TL0
  D:008BH         PUBLIC        TL1
  D:00CCH         PUBLIC        TL2
  D:00E8H         PUBLIC        EIE
  B:0088H.4       PUBLIC        TR0
  B:0088H.6       PUBLIC        TR1
  B:00C8H.2       PUBLIC        TR2
  B:00B8H.0       PUBLIC        PX0
  C:81FDH         PUBLIC        _Ocm_Timer_IsOverFlow
  D:00F8H         PUBLIC        EIP
  C:AE09H         PUBLIC        Ocm_Timer2ForPsRdy_Set
  B:0098H.4       PUBLIC        REN
  D:00C8H         PUBLIC        T2CON
  C:AE4FH         PUBLIC        Ocm_TR2_ValueSet
  C:AAC7H         PUBLIC        Ocm_Timer1_UartBaudRateSet
  C:ACCEH         PUBLIC        Ocm_Timer2_IntSet
  C:AC82H         PUBLIC        Ocm_Timer0_SysTimerInit
  C:AADFH         PUBLIC        Ocm_Timer_Init
  -------         PROC          _OCM_DELAY1MS
  D:0006H         SYMBOL        var
  -------         DO            
  D:0004H         SYMBOL        i
  -------         ENDDO         
  C:A949H         LINE#         37
  C:A949H         LINE#         38
  C:A949H         LINE#         40
  C:A953H         LINE#         41
  C:A953H         LINE#         47
  C:A966H         LINE#         49
  C:A966H         LINE#         50
  -------         ENDPROC       _OCM_DELAY1MS
  -------         PROC          _OCM_DELAY1US
  D:0006H         SYMBOL        var
  C:ADA9H         LINE#         59
  C:ADA9H         LINE#         60
  C:ADA9H         LINE#         62
  C:ADB3H         LINE#         63
  C:ADB3H         LINE#         70
  C:ADB3H         LINE#         71
  -------         ENDPROC       _OCM_DELAY1US
  -------         PROC          OCM_TIMER0_SYSTIMERINIT
  C:AC82H         LINE#         80
  C:AC82H         LINE#         81
  C:AC82H         LINE#         82
  C:AC85H         LINE#         83
  C:AC88H         LINE#         84
  C:AC8BH         LINE#         86
  C:AC8DH         LINE#         87
  C:AC8FH         LINE#         88
  C:AC91H         LINE#         89
BL51 BANKED LINKER/LOCATER V6.22                                                      06/21/2023  15:37:55  PAGE 284


  -------         ENDPROC       OCM_TIMER0_SYSTIMERINIT
  -------         PROC          OCM_TIMER1_UARTBAUDRATESET
  C:AAC7H         LINE#         100
  C:AAC7H         LINE#         101
  C:AAC7H         LINE#         102
  C:AACAH         LINE#         103
  C:AACDH         LINE#         104
  C:AAD0H         LINE#         105
  C:AAD3H         LINE#         106
  C:AAD6H         LINE#         107
  C:AAD8H         LINE#         108
  C:AADAH         LINE#         110
  C:AADCH         LINE#         111
  C:AADEH         LINE#         112
  -------         ENDPROC       OCM_TIMER1_UARTBAUDRATESET
  -------         PROC          OCM_EXTERNAL0_INTSET
  C:ADF7H         LINE#         121
  C:ADF7H         LINE#         122
  C:ADF7H         LINE#         123
  C:ADF9H         LINE#         124
  C:ADFBH         LINE#         125
  C:ADFDH         LINE#         126
  C:ADFFH         LINE#         127
  -------         ENDPROC       OCM_EXTERNAL0_INTSET
  -------         PROC          OCM_EXTERNAL1_INTSET
  C:AE48H         LINE#         136
  C:AE48H         LINE#         137
  C:AE48H         LINE#         138
  C:AE4AH         LINE#         139
  C:AE4CH         LINE#         140
  C:AE4EH         LINE#         141
  -------         ENDPROC       OCM_EXTERNAL1_INTSET
  -------         PROC          OCM_TR2_VALUESET
  C:AE4FH         LINE#         143
  C:AE4FH         LINE#         144
  C:AE4FH         LINE#         145
  C:AE52H         LINE#         146
  C:AE55H         LINE#         147
  -------         ENDPROC       OCM_TR2_VALUESET
  -------         PROC          OCM_EXTERNAL2_INTSET
  C:AE00H         LINE#         156
  C:AE00H         LINE#         157
  C:AE00H         LINE#         158
  C:AE03H         LINE#         159
  C:AE06H         LINE#         160
  C:AE08H         LINE#         161
  -------         ENDPROC       OCM_EXTERNAL2_INTSET
  -------         PROC          OCM_TIMER2_SET
  C:AE32H         LINE#         171
  C:AE32H         LINE#         172
  C:AE32H         LINE#         173
  C:AE35H         LINE#         174
  C:AE37H         LINE#         175
  C:AE39H         LINE#         176
  -------         ENDPROC       OCM_TIMER2_SET
  -------         PROC          OCM_TIMER2_INTSET
  C:ACCEH         LINE#         178
BL51 BANKED LINKER/LOCATER V6.22                                                      06/21/2023  15:37:55  PAGE 285


  C:ACCEH         LINE#         179
  C:ACCEH         LINE#         180
  C:ACD1H         LINE#         181
  C:ACD4H         LINE#         182
  C:ACD6H         LINE#         183
  C:ACD8H         LINE#         184
  C:ACDAH         LINE#         185
  C:ACDCH         LINE#         186
  -------         ENDPROC       OCM_TIMER2_INTSET
  -------         PROC          OCM_TIMER2FORPSRDY_SET
  C:AE09H         LINE#         188
  C:AE09H         LINE#         189
  C:AE09H         LINE#         190
  C:AE0CH         LINE#         191
  C:AE0FH         LINE#         192
  C:AE11H         LINE#         193
  -------         ENDPROC       OCM_TIMER2FORPSRDY_SET
  -------         PROC          _OCM_TIMER_UPDLOCALTIME
  X:04B4H         SYMBOL        pstCurtTime
  -------         DO            
  X:04B7H         SYMBOL        ulPresentTime
  -------         ENDDO         
  C:91E2H         LINE#         201
  C:91E8H         LINE#         202
  C:91E8H         LINE#         203
  C:91F4H         LINE#         205
  C:9219H         LINE#         206
  C:9219H         LINE#         207
  C:9225H         LINE#         208
  C:9225H         LINE#         209
  -------         ENDPROC       _OCM_TIMER_UPDLOCALTIME
  -------         PROC          OCM_TIMER_PARAINIT
  C:ADB4H         LINE#         219
  C:ADB4H         LINE#         220
  C:ADB4H         LINE#         221
  C:ADBEH         LINE#         222
  -------         ENDPROC       OCM_TIMER_PARAINIT
  -------         PROC          _OCM_TIMER_ISOVERFLOW
  X:04B4H         SYMBOL        ulSource
  X:04B7H         SYMBOL        ulDelay
  -------         DO            
  X:04BBH         SYMBOL        ulTimeS
  X:04BFH         SYMBOL        ulTimeG
  -------         ENDDO         
  C:81FDH         LINE#         231
  C:8209H         LINE#         232
  C:8209H         LINE#         236
  C:8215H         LINE#         237
  C:821EH         LINE#         239
  C:8230H         LINE#         240
  C:8230H         LINE#         241
  C:823FH         LINE#         242
  C:824BH         LINE#         243
  C:824EH         LINE#         244
  C:824EH         LINE#         245
  C:8269H         LINE#         246
  C:8269H         LINE#         247
BL51 BANKED LINKER/LOCATER V6.22                                                      06/21/2023  15:37:55  PAGE 286


  C:826CH         LINE#         248
  C:826CH         LINE#         249
  C:826EH         LINE#         250
  -------         ENDPROC       _OCM_TIMER_ISOVERFLOW
  -------         PROC          OCM_TIMER_UARTPARAINIT
  C:AEB7H         LINE#         258
  C:AEB7H         LINE#         259
  C:AEB7H         LINE#         263
  -------         ENDPROC       OCM_TIMER_UARTPARAINIT
  -------         PROC          OCM_TIMER_UARTDATAGET
  C:AEB8H         LINE#         272
  C:AEB8H         LINE#         273
  C:AEB8H         LINE#         285
  -------         ENDPROC       OCM_TIMER_UARTDATAGET
  -------         PROC          OCM_TIMER_INIT
  C:AADFH         LINE#         293
  C:AADFH         LINE#         294
  C:AADFH         LINE#         295
  C:AAE2H         LINE#         296
  C:AAE5H         LINE#         297
  C:AAE8H         LINE#         298
  C:AAEBH         LINE#         299
  C:AAEEH         LINE#         300
  C:AAF1H         LINE#         301
  C:AAF4H         LINE#         302
  -------         ENDPROC       OCM_TIMER_INIT
  -------         PROC          TIMER0INTERRUPT
  C:7B73H         LINE#         312
  C:7B90H         LINE#         314
  C:7B93H         LINE#         315
  C:7B96H         LINE#         316
  C:7BAFH         LINE#         317
  C:7BB2H         LINE#         319
  C:7BBAH         LINE#         320
  C:7BBAH         LINE#         322
  C:7BBAH         LINE#         323
  C:7BC8H         LINE#         324
  C:7BC8H         LINE#         325
  C:7BCFH         LINE#         326
  C:7BCFH         LINE#         327
  C:7BD2H         LINE#         328
  C:7BD8H         LINE#         329
  C:7BDFH         LINE#         330
  C:7BE2H         LINE#         331
  C:7BE2H         LINE#         332
  C:7BE2H         LINE#         334
  -------         ENDPROC       TIMER0INTERRUPT
  -------         ENDMOD        OCMTIMER

  -------         MODULE        ?C?COPY
  C:06E6H         PUBLIC        ?C?COPY
  -------         ENDMOD        ?C?COPY

  -------         MODULE        ?C?CLDPTR
  C:070CH         PUBLIC        ?C?CLDPTR
  -------         ENDMOD        ?C?CLDPTR

BL51 BANKED LINKER/LOCATER V6.22                                                      06/21/2023  15:37:55  PAGE 287


  -------         MODULE        ?C?CLDOPTR
  C:0725H         PUBLIC        ?C?CLDOPTR
  -------         ENDMOD        ?C?CLDOPTR

  -------         MODULE        ?C?CILDOPTR
  C:0752H         PUBLIC        ?C?CILDOPTR
  -------         ENDMOD        ?C?CILDOPTR

  -------         MODULE        ?C?CSTPTR
  C:0785H         PUBLIC        ?C?CSTPTR
  -------         ENDMOD        ?C?CSTPTR

  -------         MODULE        ?C?CSTOPTR
  C:0797H         PUBLIC        ?C?CSTOPTR
  -------         ENDMOD        ?C?CSTOPTR

  -------         MODULE        ?C?IMUL
  C:07B9H         PUBLIC        ?C?IMUL
  -------         ENDMOD        ?C?IMUL

  -------         MODULE        ?C?UIDIV
  C:07CBH         PUBLIC        ?C?UIDIV
  -------         ENDMOD        ?C?UIDIV

  -------         MODULE        ?C?IILDX
  C:0820H         PUBLIC        ?C?IILDX
  -------         ENDMOD        ?C?IILDX

  -------         MODULE        ?C?ILDOPTR
  C:0836H         PUBLIC        ?C?ILDOPTR
  -------         ENDMOD        ?C?ILDOPTR

  -------         MODULE        ?C?ISTPTR
  C:086EH         PUBLIC        ?C?ISTPTR
  -------         ENDMOD        ?C?ISTPTR

  -------         MODULE        ?C?ISTOPTR
  C:088DH         PUBLIC        ?C?ISTOPTR
  -------         ENDMOD        ?C?ISTOPTR

  -------         MODULE        ?C?LADD
  C:08BAH         PUBLIC        ?C?LADD
  -------         ENDMOD        ?C?LADD

  -------         MODULE        ?C?LMUL
  C:08C7H         PUBLIC        ?C?LMUL
  -------         ENDMOD        ?C?LMUL

  -------         MODULE        ?C?ULDIV
  C:0952H         PUBLIC        ?C?ULDIV
  -------         ENDMOD        ?C?ULDIV

  -------         MODULE        ?C?ULCMP
  C:09E4H         PUBLIC        ?C?ULCMP
  -------         ENDMOD        ?C?ULCMP

  -------         MODULE        ?C?ULSHR
BL51 BANKED LINKER/LOCATER V6.22                                                      06/21/2023  15:37:55  PAGE 288


  C:09F5H         PUBLIC        ?C?ULSHR
  -------         ENDMOD        ?C?ULSHR

  -------         MODULE        ?C?LSHL
  C:0A08H         PUBLIC        ?C?LSHL
  -------         ENDMOD        ?C?LSHL

  -------         MODULE        ?C?LLDPTR
  C:0A1BH         PUBLIC        ?C?LLDPTR
  -------         ENDMOD        ?C?LLDPTR

  -------         MODULE        ?C?LLDOPTR
  C:0A3BH         PUBLIC        ?C?LLDOPTR
  -------         ENDMOD        ?C?LLDOPTR

  -------         MODULE        ?C?LSTPTR
  C:0A6BH         PUBLIC        ?C?LSTPTR
  -------         ENDMOD        ?C?LSTPTR

  -------         MODULE        ?C?LLDXDATA
  C:0A85H         PUBLIC        ?C?LLDXDATA
  -------         ENDMOD        ?C?LLDXDATA

  -------         MODULE        ?C?LLDXDATA0
  C:0A91H         PUBLIC        ?C?LLDXDATA0
  -------         ENDMOD        ?C?LLDXDATA0

  -------         MODULE        ?C?LSTXDATA
  C:0A9DH         PUBLIC        ?C?LSTXDATA
  -------         ENDMOD        ?C?LSTXDATA

  -------         MODULE        ?C?LSTKXDATA
  C:0AA9H         PUBLIC        ?C?LSTKXDATA
  -------         ENDMOD        ?C?LSTKXDATA

  -------         MODULE        ?C?PLDXDATA
  C:0ADAH         PUBLIC        ?C?PLDXDATA
  -------         ENDMOD        ?C?PLDXDATA

  -------         MODULE        ?C?PSTXDATA
  C:0AE3H         PUBLIC        ?C?PSTXDATA
  -------         ENDMOD        ?C?PSTXDATA

  -------         MODULE        ?C?CCASE
  C:0AECH         PUBLIC        ?C?CCASE
  -------         ENDMOD        ?C?CCASE

  -------         MODULE        PUTCHAR
  C:A529H         PUBLIC        _PUTCHAR
  -------         ENDMOD        PUTCHAR

  -------         MODULE        ABS
  C:AD50H         PUBLIC        _ABS
  -------         ENDMOD        ABS

  -------         MODULE        STRLEN
  C:AB4FH         PUBLIC        _STRLEN
BL51 BANKED LINKER/LOCATER V6.22                                                      06/21/2023  15:37:55  PAGE 289


  -------         ENDMOD        STRLEN

  -------         MODULE        ?C?MEMSET
  C:0B12H         PUBLIC        ?C?MEMSET
  -------         ENDMOD        ?C?MEMSET

  -------         MODULE        VSPRINTF
  X:057EH         PUBLIC        ?_VSPRINTF?BYTE
  C:96B3H         PUBLIC        _VSPRINTF
  -------         ENDMOD        VSPRINTF

  -------         MODULE        ?C?LLDIDATA
  C:0B3EH         PUBLIC        ?C?LLDIDATA
  -------         ENDMOD        ?C?LLDIDATA

  -------         MODULE        ?C?LLDPDATA
  C:0B4AH         PUBLIC        ?C?LLDPDATA
  -------         ENDMOD        ?C?LLDPDATA

  -------         MODULE        ?C?LLDCODE
  C:0B56H         PUBLIC        ?C?LLDCODE
  -------         ENDMOD        ?C?LLDCODE

  -------         MODULE        ?C?LSTIDATA
  C:0B66H         PUBLIC        ?C?LSTIDATA
  -------         ENDMOD        ?C?LSTIDATA

  -------         MODULE        ?C?LSTPDATA
  C:0B72H         PUBLIC        ?C?LSTPDATA
  -------         ENDMOD        ?C?LSTPDATA

  -------         MODULE        PRINTF
  X:0587H         PUBLIC        ?_PRINTF517?BYTE
  X:0587H         PUBLIC        ?_PRINTF?BYTE
  X:0587H         PUBLIC        ?_SPRINTF517?BYTE
  X:0587H         PUBLIC        ?_SPRINTF?BYTE
  C:1DA5H         PUBLIC        _PRINTF
  C:1DA5H         PUBLIC        _PRINTF517
  C:1D9FH         PUBLIC        _SPRINTF
  C:1D9FH         PUBLIC        _SPRINTF517
  -------         ENDMOD        PRINTF

  -------         MODULE        ?C?PLDIXDATA
  C:0B7EH         PUBLIC        ?C?PLDIXDATA
  -------         ENDMOD        ?C?PLDIXDATA



FUNCTION REGISTER MASKS


FUNCTION . . . . . . . . . . . . . . . . REG MASK
-------------------------------------------------

APP_CHIPFW_READ. . . . . . . . . . . . . @0xe300
CHIP_5ACABLE_INIT. . . . . . . . . . . . @0xf300
CHIP_ADAPTERLOST_VARINI. . . . . . . . . @0xe300
BL51 BANKED LINKER/LOCATER V6.22                                                      06/21/2023  15:37:55  PAGE 290


CHIP_DCC_TMPINI. . . . . . . . . . . . . @0xe300
CHIP_LASTMSG_PSRDY . . . . . . . . . . . @0xf303
CHIP_UCCEMARKREG_RESET . . . . . . . . . @0xe300
CHIP_UCCMESSAGESOP1_SEND . . . . . . . . @0xf7f7
CHIP_UCCOFFTMP_SET . . . . . . . . . . . @0xe301
CHIP_UCC_FLIP. . . . . . . . . . . . . . @0xe304
CHIP_UCC_OFFSCAN . . . . . . . . . . . . @0xf301
DRV_AUDIO_ACRMUTE. . . . . . . . . . . . @0x8001
DRV_AUDIO_ACRPLLINIT . . . . . . . . . . @0xa300
DRV_AUDIO_DPININIT . . . . . . . . . . . @0xe300
DRV_AUDIO_DPOUTINIT. . . . . . . . . . . @0x8000
DRV_AUDIO_EARCOUTINIT. . . . . . . . . . @0x8000
DRV_AUDIO_HDMIININIT . . . . . . . . . . @0x8000
DRV_AUDIO_HDMIOUTINIT. . . . . . . . . . @0xe300
DRV_AUDIO_I2SININIT. . . . . . . . . . . @0x8000
DRV_AUDIO_I2SOUTINIT . . . . . . . . . . @0x8000
DRV_AUDIO_INIT . . . . . . . . . . . . . @0xe300
DRV_AUDIO_SPDIFININIT. . . . . . . . . . @0x8000
DRV_AUDIO_SPDIFOUTINIT . . . . . . . . . @0x8000
DRV_CCRX_PHYDIGSET . . . . . . . . . . . @0x8000
DRV_CCTX_PHYDIGSET . . . . . . . . . . . @0x8000
DRV_DPRX_AUXDCDET. . . . . . . . . . . . @0xa301
DRV_DPRX_AUXINIT . . . . . . . . . . . . @0xe300
DRV_DPRX_CLKMUX. . . . . . . . . . . . . @0xe300
DRV_DPRX_DIGITALINIT . . . . . . . . . . @0xe300
DRV_DPRX_DPCDINIT. . . . . . . . . . . . @0xf33f
DRV_DPRX_DSCDECSTATE . . . . . . . . . . @0x8001
DRV_DPRX_ECCERRORCHECK . . . . . . . . . @0xe301
DRV_DPRX_ERRCLR. . . . . . . . . . . . . @0xe300
DRV_DPRX_FREQINTG. . . . . . . . . . . . @0xa300
DRV_DPRX_HWRESETSET. . . . . . . . . . . @0xe300
DRV_DPRX_MAINLINK. . . . . . . . . . . . @0xe300
DRV_DPRX_MSAPKTDETEN . . . . . . . . . . @0xe300
DRV_DPRX_PCRINIT . . . . . . . . . . . . @0xe300
DRV_DPRX_PCRPLLINIT. . . . . . . . . . . @0xe300
DRV_DPRX_PHYINIT . . . . . . . . . . . . @0xe300
DRV_DPRX_PPSINFOCHECK. . . . . . . . . . @0xa301
DRV_DPRX_TIMINGFIFORESET . . . . . . . . @0x8000
DRV_DPRX_TIMINGHBE . . . . . . . . . . . @0x8000
DRV_DPRX_VIDEOSTREAMFLAG . . . . . . . . @0xf301
DRV_DPRX_VSCPKTCHECK . . . . . . . . . . @0xf301
DRV_FRTRIG_SEND. . . . . . . . . . . . . @0xe300
DRV_HDCPRX_STATECLEAR. . . . . . . . . . @0x8000
DRV_HDCPRX_VERGET. . . . . . . . . . . . @0x8001
DRV_HDCPTX_HDCPINIT. . . . . . . . . . . @0xe300
DRV_HDMITX_DATASEL . . . . . . . . . . . @0xa300
DRV_HDMITX_DCDET . . . . . . . . . . . . @0xe300
DRV_HDMITX_DDCINIT . . . . . . . . . . . @0xe300
DRV_HDMITX_DEBOUNCESET . . . . . . . . . @0xe300
DRV_HDMITX_DOBLYHDRENABLE. . . . . . . . @0xe301
DRV_HDMITX_DYMICHDRENABLE. . . . . . . . @0xe301
DRV_HDMITX_ENCPATH . . . . . . . . . . . @0xe300
DRV_HDMITX_FRLVIDSET . . . . . . . . . . @0xe300
DRV_HDMITX_HPDDET. . . . . . . . . . . . @0xa301
DRV_HDMITX_PPSSRAMSET. . . . . . . . . . @0xa300
DRV_HDMITX_STATICHDRENABLE . . . . . . . @0xe301
DRV_HDMITX_TMDSDIVLINKCLKSET . . . . . . @0xe300
BL51 BANKED LINKER/LOCATER V6.22                                                      06/21/2023  15:37:55  PAGE 291


DRV_HDMITX_TXPLLINIT . . . . . . . . . . @0xe300
DRV_IO_UARTSET . . . . . . . . . . . . . @0xf317
LT8711GXE_HDMITXVARINIT. . . . . . . . . @0x8000
MOD_AUX_DONEGET. . . . . . . . . . . . . @0xf383
MOD_AUX_GETRETRAINSTATUS . . . . . . . . @0xf081
MOD_AUX_GETTRAINDONESTATUS . . . . . . . @0xf081
MOD_AUX_LINKCNTGET . . . . . . . . . . . @0xa081
MOD_CCRX_LOOP. . . . . . . . . . . . . . @0x8000
MOD_CCTX_LOOP. . . . . . . . . . . . . . @0x8000
MOD_DPRX_COLORDEPTH. . . . . . . . . . . @0xa301
MOD_DPRX_COLORSPACE. . . . . . . . . . . @0xa301
MOD_DPRX_JUDGETIMINGHBE. . . . . . . . . @0xa301
MOD_DPRX_MSTHANDLER. . . . . . . . . . . @0x8000
MOD_DPRX_PCRMSAUPDATE. . . . . . . . . . @0xf30f
MOD_DPRX_PCRSTABLECHECK. . . . . . . . . @0xa301
MOD_DPRX_POWERONINIT . . . . . . . . . . @0xbfff
MOD_EDID_MODEDET . . . . . . . . . . . . @0xa301
MOD_FRLTX_HDMI21ENGET. . . . . . . . . . @0xa301
MOD_FRLTX_NOFFE. . . . . . . . . . . . . @0xbfff
MOD_HDMIEDID_INIT. . . . . . . . . . . . @0xbfff
MOD_HDMITX_AVIINFOSET. . . . . . . . . . @0xf35f
MOD_HDMITX_FRLUPDATECHG. . . . . . . . . @0xa301
MOD_HDMITX_GCPINFOSET. . . . . . . . . . @0xf300
MOD_HDMITX_MAXTMDSCHARRATECHK. . . . . . @0x8000
MOD_HDMITX_NEEDOPENDSCENC. . . . . . . . @0x8001
MOD_HDMITX_POWERONINIT . . . . . . . . . @0xbfff
MOD_IT2_INTERRUPTSERVICE . . . . . . . . @0x8000
MOD_SEND_ACKREPLY. . . . . . . . . . . . @0xe300
MOD_SEND_NACKREPLY . . . . . . . . . . . @0xe300
MOD_UCC_COMDONEFLAG. . . . . . . . . . . @0xf301
OCM_EXTERNAL0_INTSET . . . . . . . . . . @0xc000
OCM_EXTERNAL1_INTSET . . . . . . . . . . @0xc000
OCM_EXTERNAL2_INTSET . . . . . . . . . . @0xe000
OCM_TIMER0_SYSTIMERINIT. . . . . . . . . @0xc000
OCM_TIMER1_UARTBAUDRATESET . . . . . . . @0xc000
OCM_TIMER2FORPSRDY_SET . . . . . . . . . @0xe000
OCM_TIMER2_INTSET. . . . . . . . . . . . @0xe000
OCM_TIMER2_SET . . . . . . . . . . . . . @0xe000
OCM_TIMER_INIT . . . . . . . . . . . . . @0xff8f
OCM_TIMER_PARAINIT . . . . . . . . . . . @0xbf8f
OCM_TIMER_UARTDATAGET. . . . . . . . . . @0x8000
OCM_TIMER_UARTPARAINIT . . . . . . . . . @0x8000
OCM_TR2_VALUESET . . . . . . . . . . . . @0xe000
_CHIP_ALTMODE_HANDLE . . . . . . . . . . @0xf303
_CHIP_CCMSGID_CAL. . . . . . . . . . . . @0xf001
_CHIP_DISCOVERID_HANDLE. . . . . . . . . @0xf386
_CHIP_REQUESTMSG_CAL . . . . . . . . . . @0xf3ff
_CHIP_UCC_MSGTYPECAL . . . . . . . . . . @0xf003
_CHIP_USB3GEN1_MUX . . . . . . . . . . . @0xf300
_DRV_AUDIO_HDMINCTSVALUESET. . . . . . . @0xf300
_DRV_AUDIO_OUTEN . . . . . . . . . . . . @0xf300
_DRV_CCDEBOUNCE_SET. . . . . . . . . . . @0xf300
_DRV_CCINT_INIT. . . . . . . . . . . . . @0xe300
_DRV_CCRXPHY_SET . . . . . . . . . . . . @0xf300
_DRV_CCRXRATE_SET. . . . . . . . . . . . @0xf300
_DRV_CCTXRATE_SET. . . . . . . . . . . . @0xf300
_DRV_CC_LOGICRST . . . . . . . . . . . . @0xf300
BL51 BANKED LINKER/LOCATER V6.22                                                      06/21/2023  15:37:55  PAGE 292


_DRV_DPRX_AUDIOINFOGET . . . . . . . . . @0xf381
_DRV_DPRX_AUXSWAP. . . . . . . . . . . . @0xf300
_DRV_DPRX_CDRSET . . . . . . . . . . . . @0xe301
_DRV_DPRX_CHANNELSWAP. . . . . . . . . . @0xf304
_DRV_DPRX_CP2520KEYCODESET . . . . . . . @0xf304
_DRV_DPRX_CRLOCKTHRESHOLDSET . . . . . . @0xf300
_DRV_DPRX_DIVSET . . . . . . . . . . . . @0xa300
_DRV_DPRX_DPCD_HIGHADDRWRITE . . . . . . @0xe300
_DRV_DPRX_DPCD_VALUEWRITE. . . . . . . . @0xa300
_DRV_DPRX_EQMODE . . . . . . . . . . . . @0xf300
_DRV_DPRX_LINKCLKSEL . . . . . . . . . . @0xf304
_DRV_DPRX_PIENABLE . . . . . . . . . . . @0xf300
_DRV_DPRX_PISET. . . . . . . . . . . . . @0xf300
_DRV_DPRX_RESET. . . . . . . . . . . . . @0xf300
_DRV_DPRX_RXPLLBAND. . . . . . . . . . . @0xf300
_DRV_DPRX_RXTIMINGGET. . . . . . . . . . @0xf78f
_DRV_DPRX_SSCJUDGEBYRXFM . . . . . . . . @0xf32f
_DRV_DPRX_VIDCOLORINFOGET. . . . . . . . @0xf387
_DRV_GETIO_STATE . . . . . . . . . . . . @0xf303
_DRV_GPIO_MODESET. . . . . . . . . . . . @0xf303
_DRV_GPIO_OUTSIGNALSET . . . . . . . . . @0xe004
_DRV_HARDRESET_SET . . . . . . . . . . . @0xa300
_DRV_HDCPRX_ENABLE . . . . . . . . . . . @0xe304
_DRV_HDMITX_FRLDIGSET. . . . . . . . . . @0xf383
_DRV_HDMITX_FRLTXPHYSET. . . . . . . . . @0xf304
_DRV_HDMITX_FRLTXRST . . . . . . . . . . @0xf300
_DRV_HDMITX_TMDSSET. . . . . . . . . . . @0xf387
_DRV_HDMITX_TXPLLDIVCAL. . . . . . . . . @0xf003
_DRV_IOSOFTLEVEL_SET . . . . . . . . . . @0xf300
_DRV_POWERROLE_SET . . . . . . . . . . . @0xf300
_DRV_RPCUR_SEL . . . . . . . . . . . . . @0xf302
_DRV_SYSTEM_FMSTBGET . . . . . . . . . . @0xf303
_DRV_SYSTEM_INTCLR . . . . . . . . . . . @0xf300
_DRV_SYSTEM_INTFLAGGET . . . . . . . . . @0xf303
_DRV_SYSTEM_INTSET . . . . . . . . . . . @0xf304
_DRV_SYSTEM_INTSRCGET. . . . . . . . . . @0xf303
_DRV_SYSTEM_PKTDATACHK . . . . . . . . . @0xf303
_DRV_SYSTEM_PKTHEADSET . . . . . . . . . @0x8000
_DRV_SYSTEM_VIDCHKSET. . . . . . . . . . @0xf300
_DRV_SYSTEM_VIDCHKSTATEGET . . . . . . . @0xf301
_DRV_SYS_CHIPRXSRCSEL. . . . . . . . . . @0xe300
_DRV_SYS_DECPOWERDOMAIN. . . . . . . . . @0xf305
_DRV_SYS_DHRXPOWERDOMAIN . . . . . . . . @0xe305
_DRV_SYS_DHTXPOWERDOMAIN . . . . . . . . @0xf305
_DRV_SYS_DHTXSRCSEL. . . . . . . . . . . @0xa300
_DRV_SYS_ENCPOWERDOMAIN. . . . . . . . . @0xf305
_DRV_SYS_LMTXPOWERDOMAIN . . . . . . . . @0xf305
_MOD_AUDIO_HDMITXINFOCVT . . . . . . . . @0xf3f7
_MOD_AUX_EDIDREAD. . . . . . . . . . . . @0xf38e
_MOD_AUX_SENDDATA. . . . . . . . . . . . @0xf382
_MOD_AUX_SENDZERODATA. . . . . . . . . . @0xf380
_MOD_CHECK_DISIDSUM. . . . . . . . . . . @0xf3f7
_MOD_CHECK_SUM . . . . . . . . . . . . . @0xf3f3
_MOD_CTABLOCK_UPDATE . . . . . . . . . . @0xf3ff
_MOD_FRLTX_SETSTATE. . . . . . . . . . . @0xf302
_MOD_HDMIEDID_ANALYSIS . . . . . . . . . @0xf7ff
_MOD_HDMIEDID_BLOCK0ANALYSIS . . . . . . @0xe370
BL51 BANKED LINKER/LOCATER V6.22                                                      06/21/2023  15:37:55  PAGE 293


_MOD_HDMIEDID_CTABLOCKANALYSIS . . . . . @0xf3ff
_MOD_HDMIEDID_DISPLAYIDBLOCKANALYSIS . . @0xe370
_MOD_HDMITX_ASPECTRATIOCAL . . . . . . . @0xf7ff
_MOD_HDMITX_COLORDEPTHCAL. . . . . . . . @0xf3f0
_MOD_HDMITX_COLORIMETRYCAL . . . . . . . @0xf3f0
_MOD_HDMITX_COLORRANGECAL. . . . . . . . @0xf3f0
_MOD_HDMITX_COLORSPACECAL. . . . . . . . @0xf3f0
_MOD_READ_DPCD200. . . . . . . . . . . . @0xf080
_MOD_READ_DPCD201. . . . . . . . . . . . @0xe001
_MOD_READ_DPCD204. . . . . . . . . . . . @0xf387
_MOD_WRITE_DPCD101 . . . . . . . . . . . @0xf0c0
_MOD_WRITE_DPCD103 . . . . . . . . . . . @0xf080
_MOD_WRITE_DPCD104 . . . . . . . . . . . @0xe001
_MOD_WRITE_DPCD105 . . . . . . . . . . . @0xe001
_MOD_WRITE_DPCD106 . . . . . . . . . . . @0xe001
_MOD_WRITE_DPCD201 . . . . . . . . . . . @0xe001
_OCM_DELAY1MS. . . . . . . . . . . . . . @0xf02f
_OCM_DELAY1US. . . . . . . . . . . . . . @0xe00b



RE-TRANSLATION LIST FOR OPTIMAL REGISTER MASKS


MESSAGE                         MODULE
   INFORMATION
--------------------------------------

** RE-TRANSLATION SUGGESTED **  .\main.obj (MAIN)
   REG MASK (@000000) IS TOO PESSIMISTIC FOR FUNCTION 'OCM_TIMER_INIT'
   REG MASK (@000000) IS TOO PESSIMISTIC FOR FUNCTION 'DRV_IO_UARTSET'
   REG MASK (@000000) IS TOO PESSIMISTIC FOR FUNCTION 'CHIP_DCC_TMPINI'

** RE-TRANSLATION SUGGESTED **  .\LT8711GXE.obj (LT8711GXE)
   REG MASK (@000000) IS TOO PESSIMISTIC FOR FUNCTION '_MOD_AUDIO_HDMITXINFOCVT'
   REG MASK (@000000) IS TOO PESSIMISTIC FOR FUNCTION '_MOD_HDMITX_COLORIMETRYCAL'
   REG MASK (@000000) IS TOO PESSIMISTIC FOR FUNCTION 'MOD_CCRX_LOOP'
   REG MASK (@000000) IS TOO PESSIMISTIC FOR FUNCTION '_DRV_DPRX_VIDCOLORINFOGET'
   REG MASK (@000000) IS TOO PESSIMISTIC FOR FUNCTION '_DRV_SYS_LMTXPOWERDOMAIN'
   REG MASK (@000000) IS TOO PESSIMISTIC FOR FUNCTION '_MOD_HDMITX_COLORDEPTHCAL'
   REG MASK (@000000) IS TOO PESSIMISTIC FOR FUNCTION '_MOD_HDMITX_COLORRANGECAL'
   REG MASK (@000000) IS TOO PESSIMISTIC FOR FUNCTION '_MOD_HDMITX_COLORSPACECAL'
   REG MASK (@000000) IS TOO PESSIMISTIC FOR FUNCTION '_DRV_GPIO_MODESET'
   REG MASK (@000000) IS TOO PESSIMISTIC FOR FUNCTION '_DRV_SYS_ENCPOWERDOMAIN'
   REG MASK (@000000) IS TOO PESSIMISTIC FOR FUNCTION '_MOD_HDMITX_ASPECTRATIOCAL'
   REG MASK (@000000) IS TOO PESSIMISTIC FOR FUNCTION '_DRV_SYS_DECPOWERDOMAIN'
   REG MASK (@000000) IS TOO PESSIMISTIC FOR FUNCTION '_DRV_DPRX_AUDIOINFOGET'
   REG MASK (@000000) IS TOO PESSIMISTIC FOR FUNCTION 'DRV_HDCPRX_VERGET'
   REG MASK (@000000) IS TOO PESSIMISTIC FOR FUNCTION 'MOD_EDID_MODEDET'

** RE-TRANSLATION SUGGESTED **  .\ModAuxMsg.obj (MODAUXMSG)
   REG MASK (@000000) IS TOO PESSIMISTIC FOR FUNCTION '_DRV_DPRX_RESET'
   REG MASK (@000000) IS TOO PESSIMISTIC FOR FUNCTION '_DRV_DPRX_RXPLLBAND'
   REG MASK (@000000) IS TOO PESSIMISTIC FOR FUNCTION '_DRV_DPRX_PISET'
   REG MASK (@000000) IS TOO PESSIMISTIC FOR FUNCTION '_DRV_DPRX_SSCJUDGEBYRXFM'
   REG MASK (@000000) IS TOO PESSIMISTIC FOR FUNCTION '_DRV_DPRX_DIVSET'
   REG MASK (@000000) IS TOO PESSIMISTIC FOR FUNCTION '_DRV_DPRX_CDRSET'
BL51 BANKED LINKER/LOCATER V6.22                                                      06/21/2023  15:37:55  PAGE 294


   REG MASK (@000000) IS TOO PESSIMISTIC FOR FUNCTION '_DRV_DPRX_EQMODE'
   REG MASK (@000000) IS TOO PESSIMISTIC FOR FUNCTION '_DRV_DPRX_CRLOCKTHRESHOLDSET'

** RE-TRANSLATION SUGGESTED **  .\ModCC1BasicTypec.obj (MODCC1BASICTYPEC)
   REG MASK (@000000) IS TOO PESSIMISTIC FOR FUNCTION 'DRV_HDMITX_HPDDET'
   REG MASK (@000000) IS TOO PESSIMISTIC FOR FUNCTION '_CHIP_REQUESTMSG_CAL'
   REG MASK (@000000) IS TOO PESSIMISTIC FOR FUNCTION 'OCM_TIMER2FORPSRDY_SET'
   REG MASK (@000000) IS TOO PESSIMISTIC FOR FUNCTION '_CHIP_UCC_MSGTYPECAL'
   REG MASK (@000000) IS TOO PESSIMISTIC FOR FUNCTION '_DRV_RPCUR_SEL'
   REG MASK (@000000) IS TOO PESSIMISTIC FOR FUNCTION '_CHIP_CCMSGID_CAL'
   REG MASK (@000000) IS TOO PESSIMISTIC FOR FUNCTION '_OCM_DELAY1MS'
   REG MASK (@000000) IS TOO PESSIMISTIC FOR FUNCTION '_DRV_POWERROLE_SET'

** RE-TRANSLATION SUGGESTED **  .\ModCC1MsgTypec.obj (MODCC1MSGTYPEC)
   REG MASK (@000000) IS TOO PESSIMISTIC FOR FUNCTION 'OCM_TR2_VALUESET'
   REG MASK (@000000) IS TOO PESSIMISTIC FOR FUNCTION 'OCM_TIMER2FORPSRDY_SET'
   REG MASK (@000000) IS TOO PESSIMISTIC FOR FUNCTION '_CHIP_UCC_MSGTYPECAL'
   REG MASK (@000000) IS TOO PESSIMISTIC FOR FUNCTION 'OCM_TIMER2_SET'
   REG MASK (@000000) IS TOO PESSIMISTIC FOR FUNCTION '_OCM_DELAY1US'
   REG MASK (@000000) IS TOO PESSIMISTIC FOR FUNCTION '_OCM_DELAY1MS'

** RE-TRANSLATION SUGGESTED **  .\ModCC1Typec.obj (MODCC1TYPEC)
   REG MASK (@000000) IS TOO PESSIMISTIC FOR FUNCTION 'DRV_HDMITX_HPDDET'
   REG MASK (@000000) IS TOO PESSIMISTIC FOR FUNCTION '_DRV_HARDRESET_SET'
   REG MASK (@000000) IS TOO PESSIMISTIC FOR FUNCTION '_DRV_CC_LOGICRST'
   REG MASK (@000000) IS TOO PESSIMISTIC FOR FUNCTION 'CHIP_UCCMESSAGESOP1_SEND'
   REG MASK (@000000) IS TOO PESSIMISTIC FOR FUNCTION '_DRV_RPCUR_SEL'
   REG MASK (@000000) IS TOO PESSIMISTIC FOR FUNCTION '_CHIP_USB3GEN1_MUX'
   REG MASK (@000000) IS TOO PESSIMISTIC FOR FUNCTION '_OCM_DELAY1US'
   REG MASK (@000000) IS TOO PESSIMISTIC FOR FUNCTION '_OCM_DELAY1MS'
   REG MASK (@000000) IS TOO PESSIMISTIC FOR FUNCTION '_DRV_POWERROLE_SET'

** RE-TRANSLATION SUGGESTED **  .\ModCC2BasicTypec.obj (MODCC2BASICTYPEC)
   REG MASK (@000000) IS TOO PESSIMISTIC FOR FUNCTION '_CHIP_REQUESTMSG_CAL'
   REG MASK (@000000) IS TOO PESSIMISTIC FOR FUNCTION '_CHIP_DISCOVERID_HANDLE'
   REG MASK (@000000) IS TOO PESSIMISTIC FOR FUNCTION 'OCM_TIMER2FORPSRDY_SET'
   REG MASK (@000000) IS TOO PESSIMISTIC FOR FUNCTION '_CHIP_UCC_MSGTYPECAL'
   REG MASK (@000000) IS TOO PESSIMISTIC FOR FUNCTION '_CHIP_CCMSGID_CAL'

** RE-TRANSLATION SUGGESTED **  .\ModCC2MsgTypec.obj (MODCC2MSGTYPEC)
   REG MASK (@000000) IS TOO PESSIMISTIC FOR FUNCTION 'OCM_TR2_VALUESET'
   REG MASK (@000000) IS TOO PESSIMISTIC FOR FUNCTION '_CHIP_UCC_MSGTYPECAL'
   REG MASK (@000000) IS TOO PESSIMISTIC FOR FUNCTION '_DRV_RPCUR_SEL'
   REG MASK (@000000) IS TOO PESSIMISTIC FOR FUNCTION '_OCM_DELAY1US'
   REG MASK (@000000) IS TOO PESSIMISTIC FOR FUNCTION 'DRV_FRTRIG_SEND'
   REG MASK (@000000) IS TOO PESSIMISTIC FOR FUNCTION '_OCM_DELAY1MS'
   REG MASK (@000000) IS TOO PESSIMISTIC FOR FUNCTION '_DRV_POWERROLE_SET'

** RE-TRANSLATION SUGGESTED **  .\ModCCSharedTypec.obj (MODCCSHAREDTYPEC)
   REG MASK (@000000) IS TOO PESSIMISTIC FOR FUNCTION 'OCM_TR2_VALUESET'

** RE-TRANSLATION SUGGESTED **  .\ModDpRx.obj (MODDPRX)
   REG MASK (@000000) IS TOO PESSIMISTIC FOR FUNCTION '_DRV_DPRX_RESET'
   REG MASK (@000000) IS TOO PESSIMISTIC FOR FUNCTION 'DRV_DPRX_ECCERRORCHECK'
   REG MASK (@000000) IS TOO PESSIMISTIC FOR FUNCTION 'DRV_DPRX_AUXDCDET'
   REG MASK (@000000) IS TOO PESSIMISTIC FOR FUNCTION '_DRV_SYS_CHIPRXSRCSEL'
   REG MASK (@000000) IS TOO PESSIMISTIC FOR FUNCTION '_DRV_DPRX_CHANNELSWAP'
BL51 BANKED LINKER/LOCATER V6.22                                                      06/21/2023  15:37:55  PAGE 295


   REG MASK (@000000) IS TOO PESSIMISTIC FOR FUNCTION 'MOD_AUX_GETTRAINDONESTATUS'
   REG MASK (@000000) IS TOO PESSIMISTIC FOR FUNCTION '_DRV_DPRX_VIDCOLORINFOGET'
   REG MASK (@000000) IS TOO PESSIMISTIC FOR FUNCTION '_DRV_DPRX_LINKCLKSEL'
   REG MASK (@000000) IS TOO PESSIMISTIC FOR FUNCTION '_DRV_DPRX_AUXSWAP'
   REG MASK (@000000) IS TOO PESSIMISTIC FOR FUNCTION 'DRV_DPRX_ERRCLR'
   REG MASK (@000000) IS TOO PESSIMISTIC FOR FUNCTION '_DRV_SYS_DECPOWERDOMAIN'
   REG MASK (@000000) IS TOO PESSIMISTIC FOR FUNCTION 'MOD_UCC_COMDONEFLAG'
   REG MASK (@000000) IS TOO PESSIMISTIC FOR FUNCTION 'DRV_DPRX_DSCDECSTATE'
   REG MASK (@000000) IS TOO PESSIMISTIC FOR FUNCTION 'DRV_AUDIO_ACRMUTE'
   REG MASK (@000000) IS TOO PESSIMISTIC FOR FUNCTION 'MOD_AUX_GETRETRAINSTATUS'
   REG MASK (@000000) IS TOO PESSIMISTIC FOR FUNCTION 'DRV_DPRX_MSAPKTDETEN'
   REG MASK (@000000) IS TOO PESSIMISTIC FOR FUNCTION 'DRV_DPRX_VIDEOSTREAMFLAG'
   REG MASK (@000000) IS TOO PESSIMISTIC FOR FUNCTION '_DRV_DPRX_AUDIOINFOGET'
   REG MASK (@000000) IS TOO PESSIMISTIC FOR FUNCTION 'DRV_DPRX_PPSINFOCHECK'
   REG MASK (@000000) IS TOO PESSIMISTIC FOR FUNCTION '_OCM_DELAY1MS'

** RE-TRANSLATION SUGGESTED **  .\ModDpRxEq.obj (MODDPRXEQ)
   REG MASK (@000000) IS TOO PESSIMISTIC FOR FUNCTION 'DRV_DPRX_ERRCLR'
   REG MASK (@000000) IS TOO PESSIMISTIC FOR FUNCTION '_DRV_DPRX_EQMODE'
   REG MASK (@000000) IS TOO PESSIMISTIC FOR FUNCTION '_OCM_DELAY1MS'

** RE-TRANSLATION SUGGESTED **  .\ModFrlTrain.obj (MODFRLTRAIN)
   REG MASK (@000000) IS TOO PESSIMISTIC FOR FUNCTION '_DRV_HDMITX_FRLTXRST'
   REG MASK (@000000) IS TOO PESSIMISTIC FOR FUNCTION '_DRV_HDMITX_FRLDIGSET'
   REG MASK (@000000) IS TOO PESSIMISTIC FOR FUNCTION '_DRV_HDMITX_FRLTXPHYSET'
   REG MASK (@000000) IS TOO PESSIMISTIC FOR FUNCTION '_OCM_DELAY1US'
   REG MASK (@000000) IS TOO PESSIMISTIC FOR FUNCTION '_OCM_DELAY1MS'

** RE-TRANSLATION SUGGESTED **  .\ModHdmiTx.obj (MODHDMITX)
   REG MASK (@000000) IS TOO PESSIMISTIC FOR FUNCTION 'DRV_HDMITX_HPDDET'
   REG MASK (@000000) IS TOO PESSIMISTIC FOR FUNCTION '_DRV_SYS_DHTXSRCSEL'
   REG MASK (@000000) IS TOO PESSIMISTIC FOR FUNCTION '_DRV_AUDIO_OUTEN'
   REG MASK (@000000) IS TOO PESSIMISTIC FOR FUNCTION 'LT8711GXE_HDMITXVARINIT'
   REG MASK (@000000) IS TOO PESSIMISTIC FOR FUNCTION '_DRV_AUDIO_HDMINCTSVALUESET'
   REG MASK (@000000) IS TOO PESSIMISTIC FOR FUNCTION 'DRV_HDMITX_DOBLYHDRENABLE'
   REG MASK (@000000) IS TOO PESSIMISTIC FOR FUNCTION 'DRV_HDMITX_STATICHDRENABLE'
   REG MASK (@000000) IS TOO PESSIMISTIC FOR FUNCTION 'MOD_FRLTX_HDMI21ENGET'
   REG MASK (@000000) IS TOO PESSIMISTIC FOR FUNCTION '_OCM_DELAY1MS'

** RE-TRANSLATION SUGGESTED **  .\DrvDdcMast.obj (DRVDDCMAST)
   REG MASK (@000000) IS TOO PESSIMISTIC FOR FUNCTION '_OCM_DELAY1US'

** RE-TRANSLATION SUGGESTED **  .\DrvDpRx.obj (DRVDPRX)
   REG MASK (@000000) IS TOO PESSIMISTIC FOR FUNCTION '_DRV_SYSTEM_INTSET'
   REG MASK (@000000) IS TOO PESSIMISTIC FOR FUNCTION '_DRV_SYSTEM_INTCLR'
   REG MASK (@000000) IS TOO PESSIMISTIC FOR FUNCTION '_OCM_DELAY1US'
   REG MASK (@000000) IS TOO PESSIMISTIC FOR FUNCTION '_DRV_HDCPRX_ENABLE'
   REG MASK (@000000) IS TOO PESSIMISTIC FOR FUNCTION '_OCM_DELAY1MS'

** RE-TRANSLATION SUGGESTED **  .\DrvHdmiTx.obj (DRVHDMITX)
   REG MASK (@000000) IS TOO PESSIMISTIC FOR FUNCTION 'DRV_AUDIO_INIT'
   REG MASK (@000000) IS TOO PESSIMISTIC FOR FUNCTION 'DRV_HDCPTX_HDCPINIT'
   REG MASK (@000000) IS TOO PESSIMISTIC FOR FUNCTION '_OCM_DELAY1MS'

** RE-TRANSLATION SUGGESTED **  .\DrvSystem.obj (DRVSYSTEM)
   REG MASK (@000000) IS TOO PESSIMISTIC FOR FUNCTION '_OCM_DELAY1MS'

BL51 BANKED LINKER/LOCATER V6.22                                                      06/21/2023  15:37:55  PAGE 296


** RE-TRANSLATION SUGGESTED **  .\DrvTypecDcc.obj (DRVTYPECDCC)
   REG MASK (@000000) IS TOO PESSIMISTIC FOR FUNCTION '_OCM_DELAY1US'
   REG MASK (@000000) IS TOO PESSIMISTIC FOR FUNCTION '_OCM_DELAY1MS'

** RE-TRANSLATION SUGGESTED **  .\OcmTimer.obj (OCMTIMER)
   REG MASK (@000000) IS TOO PESSIMISTIC FOR FUNCTION 'DRV_FRTRIG_SEND'
   REG MASK (@000000) IS TOO PESSIMISTIC FOR FUNCTION 'CHIP_ADAPTERLOST_VARINI'

*** ERROR L104: MULTIPLE PUBLIC DEFINITIONS
    SYMBOL:  MOD_CCRX_LOOP
    MODULE:  .\ModRxTypec.obj (MODRXTYPEC)

*** ERROR L104: MULTIPLE PUBLIC DEFINITIONS
    SYMBOL:  MOD_CCTX_LOOP
    MODULE:  .\ModTxTypec.obj (MODTXTYPEC)

*** WARNING L16: UNCALLED SEGMENT, IGNORED FOR OVERLAY PROCESS
    SEGMENT: ?PR?MOD_AUX_LINKCNTGET?MODAUXMSG

*** WARNING L16: UNCALLED SEGMENT, IGNORED FOR OVERLAY PROCESS
    SEGMENT: ?PR?CHIP_DVBUSUCC_DOTRIG?MODCC2MSGTYPEC

*** WARNING L16: UNCALLED SEGMENT, IGNORED FOR OVERLAY PROCESS
    SEGMENT: ?PR?MOD_CCTX_LOOP?MODCC2TYPEC

*** WARNING L16: UNCALLED SEGMENT, IGNORED FOR OVERLAY PROCESS
    SEGMENT: ?PR?MOD_DPRX_JUDGETIMINGHBE?MODDPRX

*** WARNING L16: UNCALLED SEGMENT, IGNORED FOR OVERLAY PROCESS
    SEGMENT: ?PR?MOD_DPRX_HPDIRQ?MODDPRX

*** WARNING L16: UNCALLED SEGMENT, IGNORED FOR OVERLAY PROCESS
    SEGMENT: ?PR?MOD_DPRX_MSTHANDLER?MODDPRX

*** WARNING L16: UNCALLED SEGMENT, IGNORED FOR OVERLAY PROCESS
    SEGMENT: ?PR?MOD_DPRX_COLORSPACE?MODDPRX

*** WARNING L16: UNCALLED SEGMENT, IGNORED FOR OVERLAY PROCESS
    SEGMENT: ?PR?MOD_DPRX_COLORDEPTH?MODDPRX

*** WARNING L16: UNCALLED SEGMENT, IGNORED FOR OVERLAY PROCESS
    SEGMENT: ?PR?MOD_HDMITX_MAXTMDSCHARRATECHK?MODHDMITX

*** WARNING L16: UNCALLED SEGMENT, IGNORED FOR OVERLAY PROCESS
    SEGMENT: ?PR?MOD_HDMITX_READSINKERRORCNT?MODHDMITX

*** WARNING L16: UNCALLED SEGMENT, IGNORED FOR OVERLAY PROCESS
    SEGMENT: ?PR?_MOD_HDMITX_VRRSET?MODHDMITX

*** WARNING L16: UNCALLED SEGMENT, IGNORED FOR OVERLAY PROCESS
    SEGMENT: ?PR?MOD_HDMITX_NEEDOPENDSCENC?MODHDMITX

*** WARNING L16: UNCALLED SEGMENT, IGNORED FOR OVERLAY PROCESS
    SEGMENT: ?PR?MOD_CCRX_LOOP?MODRXTYPEC

*** WARNING L16: UNCALLED SEGMENT, IGNORED FOR OVERLAY PROCESS
    SEGMENT: ?PR?MOD_CCTX_LOOP?MODTXTYPEC
BL51 BANKED LINKER/LOCATER V6.22                                                      06/21/2023  15:37:55  PAGE 297



*** WARNING L16: UNCALLED SEGMENT, IGNORED FOR OVERLAY PROCESS
    SEGMENT: ?PR?_DRV_DPRX_RXTIMINGGET?DRVDPRX

*** WARNING L16: UNCALLED SEGMENT, IGNORED FOR OVERLAY PROCESS
    SEGMENT: ?PR?DRV_DPRX_TIMINGHBE?DRVDPRX

*** WARNING L16: UNCALLED SEGMENT, IGNORED FOR OVERLAY PROCESS
    SEGMENT: ?PR?DRV_DPRX_TIMINGFIFORESET?DRVDPRX

*** WARNING L16: UNCALLED SEGMENT, IGNORED FOR OVERLAY PROCESS
    SEGMENT: ?PR?_DRV_IOSOFTLEVEL_SET?DRVGPIO

*** WARNING L16: UNCALLED SEGMENT, IGNORED FOR OVERLAY PROCESS
    SEGMENT: ?PR?_DRV_GETIO_STATE?DRVGPIO

*** WARNING L16: UNCALLED SEGMENT, IGNORED FOR OVERLAY PROCESS
    SEGMENT: ?PR?DRV_HDCPRX_STATECLEAR?DRVHDCPRX

*** WARNING L16: UNCALLED SEGMENT, IGNORED FOR OVERLAY PROCESS
    SEGMENT: ?PR?DRV_HDMITX_DCDET?DRVHDMITX

*** WARNING L16: UNCALLED SEGMENT, IGNORED FOR OVERLAY PROCESS
    SEGMENT: ?PR?DRV_HDMITX_DYMICHDRENABLE?DRVHDMITX

*** WARNING L16: UNCALLED SEGMENT, IGNORED FOR OVERLAY PROCESS
    SEGMENT: ?PR?DRV_CCRX_PHYDIGSET?DRVRXTYPEC

*** WARNING L16: UNCALLED SEGMENT, IGNORED FOR OVERLAY PROCESS
    SEGMENT: ?PR?_DRV_SYSTEM_INTSRCGET?DRVSYSTEM

*** WARNING L16: UNCALLED SEGMENT, IGNORED FOR OVERLAY PROCESS
    SEGMENT: ?PR?_DRV_SYSTEM_INTFLAGGET?DRVSYSTEM

*** WARNING L16: UNCALLED SEGMENT, IGNORED FOR OVERLAY PROCESS
    SEGMENT: ?PR?_DRV_SYSTEM_FMSTBGET?DRVSYSTEM

*** WARNING L16: UNCALLED SEGMENT, IGNORED FOR OVERLAY PROCESS
    SEGMENT: ?PR?_DRV_SYSTEM_PKTHEADSET?DRVSYSTEM

*** WARNING L16: UNCALLED SEGMENT, IGNORED FOR OVERLAY PROCESS
    SEGMENT: ?PR?_DRV_SYSTEM_PKTDATACHK?DRVSYSTEM

*** WARNING L16: UNCALLED SEGMENT, IGNORED FOR OVERLAY PROCESS
    SEGMENT: ?PR?_DRV_SYSTEM_VIDCHKSET?DRVSYSTEM

*** WARNING L16: UNCALLED SEGMENT, IGNORED FOR OVERLAY PROCESS
    SEGMENT: ?PR?_DRV_SYSTEM_VIDCHKSTATEGET?DRVSYSTEM

*** WARNING L16: UNCALLED SEGMENT, IGNORED FOR OVERLAY PROCESS
    SEGMENT: ?PR?DRV_SYS_HDCPKEYLOAD?DRVSYSTEM

*** WARNING L16: UNCALLED SEGMENT, IGNORED FOR OVERLAY PROCESS
    SEGMENT: ?PR?_DRV_SYS_DHRXPOWERDOMAIN?DRVSYSTEM

*** WARNING L16: UNCALLED SEGMENT, IGNORED FOR OVERLAY PROCESS
    SEGMENT: ?PR?_DRV_SYS_DHTXPOWERDOMAIN?DRVSYSTEM
BL51 BANKED LINKER/LOCATER V6.22                                                      06/21/2023  15:37:55  PAGE 298



*** WARNING L16: UNCALLED SEGMENT, IGNORED FOR OVERLAY PROCESS
    SEGMENT: ?PR?DRV_CCTX_PHYDIGSET?DRVTXTYPEC

*** WARNING L15: MULTIPLE CALL TO SEGMENT
    SEGMENT: ?PR?CHIP_DCCMESSAGE_SEND?MODCC2BASICTYPEC
    CALLER1: ?C_C51STARTUP
    CALLER2: ?PR?MOD_IT1_INTERRUPTSERVICE?INTERRUPT

*** WARNING L15: MULTIPLE CALL TO SEGMENT
    SEGMENT: ?PR?_CHIP_CCMESSAGE_RESEND?MODCCSHAREDTYPEC
    CALLER1: ?C_C51STARTUP
    CALLER2: ?PR?MOD_IT1_INTERRUPTSERVICE?INTERRUPT

*** WARNING L15: MULTIPLE CALL TO SEGMENT
    SEGMENT: ?PR?CHIP_UCCMESSAGE_SEND?MODCC1BASICTYPEC
    CALLER1: ?C_C51STARTUP
    CALLER2: ?PR?MOD_IT1_INTERRUPTSERVICE?INTERRUPT

*** WARNING L15: MULTIPLE CALL TO SEGMENT
    SEGMENT: ?PR?_CHIP_DCC_ONDET?MODCC1TYPEC
    CALLER1: ?C_C51STARTUP
    CALLER2: ?PR?MOD_IT1_INTERRUPTSERVICE?INTERRUPT

*** WARNING L15: MULTIPLE CALL TO SEGMENT
    SEGMENT: ?PR?CHIP_UCC_RPONSCAN?DRVTYPECDCC
    CALLER1: ?C_C51STARTUP
    CALLER2: ?PR?MOD_IT1_INTERRUPTSERVICE?INTERRUPT

*** WARNING L15: MULTIPLE CALL TO SEGMENT
    SEGMENT: ?PR?CHIP_UCC_OFFDET?MODCC1TYPEC
    CALLER1: ?C_C51STARTUP
    CALLER2: ?PR?MOD_IT1_INTERRUPTSERVICE?INTERRUPT

*** WARNING L15: MULTIPLE CALL TO SEGMENT
    SEGMENT: ?PR?_CHIP_UCC_FLIPDET?MODCC1TYPEC
    CALLER1: ?C_C51STARTUP
    CALLER2: ?PR?MOD_IT1_INTERRUPTSERVICE?INTERRUPT

*** WARNING L15: MULTIPLE CALL TO SEGMENT
    SEGMENT: ?PR?CHIP_UCCMESSAGE_SEND?MODCC1BASICTYPEC
    CALLER1: ?PR?MOD_IT1_INTERRUPTSERVICE?INTERRUPT
    CALLER2: ?PR?MOD_TIME2_INTERRUPTSERVICE?INTERRUPT

*** WARNING L15: MULTIPLE CALL TO SEGMENT
    SEGMENT: ?PR?_CHIP_CCMESSAGE_RESEND?MODCCSHAREDTYPEC
    CALLER1: ?PR?MOD_IT1_INTERRUPTSERVICE?INTERRUPT
    CALLER2: ?PR?MOD_TIME2_INTERRUPTSERVICE?INTERRUPT

*** WARNING L15: MULTIPLE CALL TO SEGMENT
    SEGMENT: ?PR?CHIP_UCC_OFFDET?MODCC1TYPEC
    CALLER1: ?PR?MOD_IT1_INTERRUPTSERVICE?INTERRUPT
    CALLER2: ?PR?MOD_TIME2_INTERRUPTSERVICE?INTERRUPT

*** WARNING L15: MULTIPLE CALL TO SEGMENT
    SEGMENT: ?PR?CHIP_DCCMESSAGE_SEND?MODCC2BASICTYPEC
    CALLER1: ?PR?MOD_IT1_INTERRUPTSERVICE?INTERRUPT
BL51 BANKED LINKER/LOCATER V6.22                                                      06/21/2023  15:37:55  PAGE 299


    CALLER2: ?PR?MOD_TIME2_INTERRUPTSERVICE?INTERRUPT

*** ERROR L118: REFERENCE MADE TO ERRONEOUS EXTERNAL
    SYMBOL:  MOD_CCRX_LOOP
    MODULE:  .\LT8711GXE.obj (LT8711GXE)
    ADDRESS: ADD4H

Program Size: data=88.1 xdata=3206 code=44729
LINK/LOCATE RUN COMPLETE.  45 WARNING(S),  3 ERROR(S)
